 wav

 Timestamp is 6495d78e (Fri Jun 23 12:34:06 2023)

 Preferred load address is 0000000140000000

 Start         Length     Name                   Class
 0001:00000000 0004b3e0H .text$mn                CODE
 0001:0004b3e0 00000040H .text$mn$00             CODE
 0001:0004b420 000007edH .text$x                 CODE
 0002:00000000 00000290H .idata$5                DATA
 0002:00000290 00000038H .00cfg                  DATA
 0002:000002c8 00000008H .CRT$XCA                DATA
 0002:000002d0 00000008H .CRT$XCAA               DATA
 0002:000002d8 00000008H .CRT$XCZ                DATA
 0002:000002e0 00000008H .CRT$XIA                DATA
 0002:000002e8 00000008H .CRT$XIAA               DATA
 0002:000002f0 00000008H .CRT$XIAC               DATA
 0002:000002f8 00000020H .CRT$XIC                DATA
 0002:00000318 00000008H .CRT$XIZ                DATA
 0002:00000320 00000008H .CRT$XPA                DATA
 0002:00000328 00000010H .CRT$XPX                DATA
 0002:00000338 00000008H .CRT$XPXA               DATA
 0002:00000340 00000008H .CRT$XPZ                DATA
 0002:00000348 00000008H .CRT$XTA                DATA
 0002:00000350 00000010H .CRT$XTZ                DATA
 0002:00000358 00000000H .gehcont$y              DATA
 0002:00000358 00000000H .gfids$y                DATA
 0002:00000360 00013c20H .rdata                  DATA
 0002:00013f80 00000000H .rdata$CastGuardVftablesA DATA
 0002:00013f80 00000000H .rdata$CastGuardVftablesC DATA
 0002:00013f80 0000016cH .rdata$r                DATA
 0002:000140ec 000000ccH .rdata$voltmd           DATA
 0002:000141b8 00000370H .rdata$zzzdbg           DATA
 0002:00014528 00000008H .rtc$IAA                DATA
 0002:00014530 00000008H .rtc$IZZ                DATA
 0002:00014538 00000008H .rtc$TAA                DATA
 0002:00014540 00000008H .rtc$TZZ                DATA
 0002:00014548 00001538H .xdata                  DATA
 0002:00015a80 00000084H .xdata$x                DATA
 0002:00015b04 00000000H .edata                  DATA
 0002:00015b04 00000014H .idata$2                DATA
 0002:00015b18 00000018H .idata$3                DATA
 0002:00015b30 00000290H .idata$4                DATA
 0002:00015dc0 000005dcH .idata$6                DATA
 0003:00000000 00000aa0H .data                   DATA
 0003:00000aa0 00000050H .data$r                 DATA
 0003:00000af0 00000020H .data$rs                DATA
 0003:00000b10 00001858H .bss                    DATA
 0004:00000000 00003810H .pdata                  DATA
 0005:00000000 0000015cH _RDATA                  DATA

  Address         Publics by Value              Rva+Base               Lib:Object

 0000:00000000       __AbsoluteZero             0000000000000000     <absolute>
 0000:00000000       ___safe_se_handler_count   0000000000000000     <absolute>
 0000:00000000       ___safe_se_handler_table   0000000000000000     <absolute>
 0000:00000000       __arm64x_extra_rfe_table   0000000000000000     <absolute>
 0000:00000000       __arm64x_extra_rfe_table_size 0000000000000000     <absolute>
 0000:00000000       __arm64x_native_entrypoint 0000000000000000     <absolute>
 0000:00000000       __arm64x_redirection_metadata 0000000000000000     <absolute>
 0000:00000000       __arm64x_redirection_metadata_count 0000000000000000     <absolute>
 0000:00000000       __dynamic_value_reloc_table 0000000000000000     <absolute>
 0000:00000000       __enclave_config           0000000000000000     <absolute>
 0000:00000000       __guard_check_icall_a64n_fptr 0000000000000000     <absolute>
 0000:00000000       __guard_eh_cont_count      0000000000000000     <absolute>
 0000:00000000       __guard_eh_cont_table      0000000000000000     <absolute>
 0000:00000000       __guard_fids_count         0000000000000000     <absolute>
 0000:00000000       __guard_fids_table         0000000000000000     <absolute>
 0000:00000000       __guard_iat_count          0000000000000000     <absolute>
 0000:00000000       __guard_iat_table          0000000000000000     <absolute>
 0000:00000000       __guard_longjmp_count      0000000000000000     <absolute>
 0000:00000000       __guard_longjmp_table      0000000000000000     <absolute>
 0000:00000000       __hybrid_auxiliary_iat     0000000000000000     <absolute>
 0000:00000000       __hybrid_auxiliary_iat_copy 0000000000000000     <absolute>
 0000:00000000       __hybrid_code_map          0000000000000000     <absolute>
 0000:00000000       __hybrid_code_map_count    0000000000000000     <absolute>
 0000:00000000       __x64_code_ranges_to_entry_points 0000000000000000     <absolute>
 0000:00000000       __x64_code_ranges_to_entry_points_count 0000000000000000     <absolute>
 0000:00000100       __guard_flags              0000000000000100     <absolute>
 0000:00000000       __ImageBase                0000000140000000     <linker-defined>
 0001:00000000       ?read_file@@YA?AUFile_Result@@PEAD@Z 0000000140001000 f   wav.obj
 0001:00000110       ?free_file@@YAXUFile_Result@@@Z 0000000140001110 f   wav.obj
 0001:00000140       ?write_file@@YA_NPEADPEAXI@Z 0000000140001140 f   wav.obj
 0001:00000200       ?EndianSwap@@YAXPEAI@Z     0000000140001200 f   wav.obj
 0001:00000260       ?ConsumeDataSize@@YAPEAXPEAPEAEI@Z 0000000140001260 f   wav.obj
 0001:000002a0       ?ConsumeDataSizeLong@@YAPEAXPEAPEAE_K@Z 00000001400012a0 f   wav.obj
 0001:000002e0       ?PushDataSize@@YAIPEAPEAEPEAEI@Z 00000001400012e0 f   wav.obj
 0001:00000350       ?calc_line_length@@YAIPEADI@Z 0000000140001350 f   wav.obj
 0001:000003b0       ?copy_line_to_buffer@@YAXPEAD0PEAI@Z 00000001400013b0 f   wav.obj
 0001:00000420       ?LoadWAV@@YA?AUSound@@UFile_Result@@@Z 0000000140001420 f   wav.obj
 0001:00000610       main                       0000000140001610 f   wav.obj
 0001:000006d0       __local_stdio_printf_options 00000001400016d0 f i wav.obj
 0001:000006e0       _vfprintf_l                00000001400016e0 f i wav.obj
 0001:00000730       printf                     0000000140001730 f i wav.obj
 0001:00000a40       ?configure_argv@__scrt_narrow_argv_policy@@SAHXZ 0000000140001a40 f i LIBCMTD:exe_main.obj
 0001:00000a60       ?initialize_environment@__scrt_narrow_environment_policy@@SAHXZ 0000000140001a60 f i LIBCMTD:exe_main.obj
 0001:00000ab0       ?set_app_type@__scrt_main_policy@@SAXXZ 0000000140001ab0 f i LIBCMTD:exe_main.obj
 0001:00000ad0       ?set_commode@__scrt_file_policy@@SAXXZ 0000000140001ad0 f i LIBCMTD:exe_main.obj
 0001:00000af0       ?set_fmode@__scrt_file_policy@@SAXXZ 0000000140001af0 f i LIBCMTD:exe_main.obj
 0001:00000b10       mainCRTStartup             0000000140001b10 f   LIBCMTD:exe_main.obj
 0001:00000c90       NtCurrentTeb               0000000140001c90 f i LIBCMTD:utility.obj
 0001:00000ca0       __scrt_acquire_startup_lock 0000000140001ca0 f   LIBCMTD:utility.obj
 0001:00000d10       __scrt_initialize_crt      0000000140001d10 f   LIBCMTD:utility.obj
 0001:00000d60       __scrt_initialize_onexit_tables 0000000140001d60 f   LIBCMTD:utility.obj
 0001:00000e70       __scrt_is_nonwritable_in_current_image 0000000140001e70 f   LIBCMTD:utility.obj
 0001:00000f00       __scrt_release_startup_lock 0000000140001f00 f   LIBCMTD:utility.obj
 0001:00000f30       __scrt_uninitialize_crt    0000000140001f30 f   LIBCMTD:utility.obj
 0001:00000f70       _onexit                    0000000140001f70 f   LIBCMTD:utility.obj
 0001:00000ff0       atexit                     0000000140001ff0 f   LIBCMTD:utility.obj
 0001:000010f0       __security_init_cookie     00000001400020f0 f   LIBCMTD:gs_support.obj
 0001:00001170       ?get_current_state_index@__crt_state_management@@YA_KAEBV__crt_scoped_get_last_error_reset@@@Z 0000000140002170 f   libucrtd:fclose.obj
 0001:00001170       _matherr                   0000000140002170 f   LIBCMTD:matherr.obj
 0001:00001180       _get_startup_argv_mode     0000000140002180 f   LIBCMTD:argv_mode.obj
 0001:00001190       ?get_current_state_index@__crt_state_management@@YA_KXZ 0000000140002190 f   libucrtd:matherr.obj
 0001:00001190       ?get_invalid_value@__crt_hmodule_traits@@SAPEAUHINSTANCE__@@XZ 0000000140002190 f   libucrtd:exit.obj
 0001:00001190       __scrt_exe_initialize_mta  0000000140002190 f   LIBCMTD:utility_desktop.obj
 0001:00001190       __scrt_initialize_winrt    0000000140002190 f   LIBCMTD:utility_desktop.obj
 0001:00001190       __scrt_stub_for_initialize_mta 0000000140002190 f   LIBCMTD:utility_desktop.obj
 0001:00001190       _get_startup_commit_mode   0000000140002190 f   LIBCMTD:commit_mode.obj
 0001:00001190       _get_startup_new_mode      0000000140002190 f   LIBCMTD:new_mode.obj
 0001:00001190       _get_startup_thread_locale_mode 0000000140002190 f   LIBCMTD:thread_locale.obj
 0001:000011a0       _get_startup_file_mode     00000001400021a0 f   LIBCMTD:file_mode.obj
 0001:000011b0       ?__scrt_initialize_type_info@@YAXXZ 00000001400021b0 f   LIBCMTD:tncleanup.obj
 0001:000011d0       _should_initialize_environment 00000001400021d0 f   LIBCMTD:env_mode.obj
 0001:000011e0       _initialize_denormal_control 00000001400021e0 f   LIBCMTD:denormal_control.obj
 0001:000011e0       _initialize_invalid_parameter_handler 00000001400021e0 f   LIBCMTD:invalid_parameter_handler.obj
 0001:000011f0       __local_stdio_scanf_options 00000001400021f0 f i LIBCMTD:default_local_stdio_options.obj
 0001:00001200       __scrt_initialize_default_local_stdio_options 0000000140002200 f   LIBCMTD:default_local_stdio_options.obj
 0001:00001250       __scrt_is_user_matherr_present 0000000140002250 f   LIBCMTD:matherr_detection.obj
 0001:00001280       __scrt_get_dyn_tls_init_callback 0000000140002280 f   LIBCMTD:dyn_tls_init.obj
 0001:00001290       __scrt_get_dyn_tls_dtor_callback 0000000140002290 f   LIBCMTD:dyn_tls_dtor.obj
 0001:000012a0       __crt_debugger_hook        00000001400022a0 f   LIBCMTD:utility_desktop.obj
 0001:000012b0       __scrt_fastfail            00000001400022b0 f   LIBCMTD:utility_desktop.obj
 0001:00001450       __scrt_initialize_mta      0000000140002450 f   LIBCMTD:utility_desktop.obj
 0001:00001460       __scrt_is_managed_app      0000000140002460 f   LIBCMTD:utility_desktop.obj
 0001:00001510       __scrt_set_unhandled_exception_filter 0000000140002510 f   LIBCMTD:utility_desktop.obj
 0001:00001530       __scrt_unhandled_exception_filter 0000000140002530 f   LIBCMTD:utility_desktop.obj
 0001:000015d0       _RTC_Initialize            00000001400025d0 f   LIBCMTD:initsect.obj
 0001:00001620       _RTC_Terminate             0000000140002620 f   LIBCMTD:initsect.obj
 0001:00001670       ??1?$__crt_simd_cleanup_guard@$0A@@@QEAA@XZ 0000000140002670 f i libucrtd:strnlen.obj
 0001:00001670       ??1scoped_global_state_reset@__crt_state_management@@QEAA@XZ 0000000140002670 f i libucrtd:onexit.obj
 0001:00001670       _guard_check_icall_nop     0000000140002670 f i LIBCMTD:guard_support.obj
 0001:00001680       ReadNoFence64              0000000140002680 f i LIBCMTD:guard_support.obj
 0001:000016a0       ReadPointerNoFence         00000001400026a0 f i LIBCMTD:guard_support.obj
 0001:000016c0       _guard_icall_checks_enforced 00000001400026c0 f i LIBCMTD:guard_support.obj
 0001:00001700       __isa_available_init       0000000140002700 f   LIBCMTD:cpu_disp.obj
 0001:00001ab0       __scrt_is_ucrt_dll_in_use  0000000140002ab0 f   LIBCMTD:ucrt_detection.obj
 0001:00001ae0       __GSHandlerCheck           0000000140002ae0 f   LIBCMTD:gshandler.obj
 0001:00001b20       __GSHandlerCheckCommon     0000000140002b20 f   LIBCMTD:gshandler.obj
 0001:00001c30       __security_check_cookie    0000000140002c30 f   LIBCMTD:amdsecgs.obj
 0001:00001c50       __raise_securityfailure    0000000140002c50 f   LIBCMTD:gs_report.obj
 0001:00001c90       __report_gsfailure         0000000140002c90 f   LIBCMTD:gs_report.obj
 0001:00001d70       __report_rangecheckfailure 0000000140002d70 f   LIBCMTD:gs_report.obj
 0001:00001d90       __report_securityfailure   0000000140002d90 f   LIBCMTD:gs_report.obj
 0001:00001f90       __C_specific_handler       0000000140002f90 f   libvcruntimed:riscchandler.obj
 0001:00002400       __vcrt_initialize          0000000140003400 f   libvcruntimed:initialization.obj
 0001:00002440       __vcrt_uninitialize        0000000140003440 f   libvcruntimed:initialization.obj
 0001:00002460       ??$?RD@__crt_internal_free_policy@@QEBAXQEBD@Z 0000000140003460 f i libvcruntimed:std_type_info.obj
 0001:00002460       ??$?RE@__crt_internal_free_policy@@QEBAXQEBE@Z 0000000140003460 f i libucrtd:argv_parsing.obj
 0001:00002460       ??$?RP6AXXZ@__crt_internal_free_policy@@QEBAXQEBQ6AXXZ@Z 0000000140003460 f i libucrtd:onexit.obj
 0001:00002460       ??$?RPEAD@__crt_internal_free_policy@@QEBAXQEBQEAD@Z 0000000140003460 f i libucrtd:argv_parsing.obj
 0001:00002460       ??$?RPEAU__crt_stdio_stream_data@@@__crt_internal_free_policy@@QEBAXQEBQEAU__crt_stdio_stream_data@@@Z 0000000140003460 f i libucrtd:_file.obj
 0001:00002460       ??$?RPEA_W@__crt_internal_free_policy@@QEBAXQEBQEA_W@Z 0000000140003460 f i libucrtd:argv_parsing.obj
 0001:00002460       ??$?RU__acrt_ptd@@@__crt_internal_free_policy@@QEBAXQEBU__acrt_ptd@@@Z 0000000140003460 f i libucrtd:per_thread_data.obj
 0001:00002460       ??$?RU__crt_lowio_handle_data@@@__crt_internal_free_policy@@QEBAXQEBU__crt_lowio_handle_data@@@Z 0000000140003460 f i libucrtd:osfinfo.obj
 0001:00002460       ??$?RU__crt_multibyte_data@@@__crt_internal_free_policy@@QEBAXQEBU__crt_multibyte_data@@@Z 0000000140003460 f i libucrtd:wsetlocale.obj
 0001:00002460       ??$?RU__crt_stdio_stream_data@@@__crt_internal_free_policy@@QEBAXQEBU__crt_stdio_stream_data@@@Z 0000000140003460 f i libucrtd:stream.obj
 0001:00002460       ??$?RU__vcrt_ptd@@@__crt_internal_free_policy@@QEBAXQEBU__vcrt_ptd@@@Z 0000000140003460 f i libvcruntimed:per_thread_data.obj
 0001:00002490       ??0?$__crt_scoped_stack_ptr@_W@@QEAA@U?$__crt_scoped_stack_ptr_tag@_W@@@Z 0000000140003490 f i libucrtd:getstringtypea.obj
 0001:00002490       ??0?$__crt_scoped_stack_ptr_tag@_W@@QEAA@QEA_W@Z 0000000140003490 f i libucrtd:getstringtypea.obj
 0001:00002490       ??0?$__crt_unique_handle_t@U__crt_findfile_traits@@@@QEAA@QEAX@Z 0000000140003490 f i libucrtd:argv_wildcards.obj
 0001:00002490       ??0?$__crt_unique_handle_t@U__crt_hmodule_traits@@@@QEAA@QEAUHINSTANCE__@@@Z 0000000140003490 f i libucrtd:exit.obj
 0001:00002490       ??0?$__crt_unique_heap_ptr@DU__crt_internal_free_policy@@@@QEAA@QEAD@Z 0000000140003490 f i libvcruntimed:std_type_info.obj
 0001:00002490       ??0?$__crt_unique_heap_ptr@DU__crt_public_free_policy@@@@QEAA@QEAD@Z 0000000140003490 f i libvcruntimed:std_exception.obj
 0001:00002490       ??0?$__crt_unique_heap_ptr@EU__crt_internal_free_policy@@@@QEAA@QEAE@Z 0000000140003490 f i libucrtd:argv_parsing.obj
 0001:00002490       ??0?$__crt_unique_heap_ptr@P6AXXZU__crt_internal_free_policy@@@@QEAA@QEAP6AXXZ@Z 0000000140003490 f i libucrtd:onexit.obj
 0001:00002490       ??0?$__crt_unique_heap_ptr@PEADU__crt_internal_free_policy@@@@QEAA@QEAPEAD@Z 0000000140003490 f i libucrtd:argv_parsing.obj
 0001:00002490       ??0?$__crt_unique_heap_ptr@PEAU__crt_stdio_stream_data@@U__crt_internal_free_policy@@@@QEAA@QEAPEAU__crt_stdio_stream_data@@@Z 0000000140003490 f i libucrtd:_file.obj
 0001:00002490       ??0?$__crt_unique_heap_ptr@PEA_WU__crt_internal_free_policy@@@@QEAA@QEAPEA_W@Z 0000000140003490 f i libucrtd:argv_parsing.obj
 0001:00002490       ??0?$__crt_unique_heap_ptr@U__acrt_ptd@@U__crt_internal_free_policy@@@@QEAA@QEAU__acrt_ptd@@@Z 0000000140003490 f i libucrtd:per_thread_data.obj
 0001:00002490       ??0?$__crt_unique_heap_ptr@U__crt_lowio_handle_data@@U__crt_internal_free_policy@@@@QEAA@QEAU__crt_lowio_handle_data@@@Z 0000000140003490 f i libucrtd:osfinfo.obj
 0001:00002490       ??0?$__crt_unique_heap_ptr@U__crt_multibyte_data@@U__crt_internal_free_policy@@@@QEAA@QEAU__crt_multibyte_data@@@Z 0000000140003490 f i libucrtd:wsetlocale.obj
 0001:00002490       ??0?$__crt_unique_heap_ptr@U__crt_stdio_stream_data@@U__crt_internal_free_policy@@@@QEAA@QEAU__crt_stdio_stream_data@@@Z 0000000140003490 f i libucrtd:stream.obj
 0001:00002490       ??0?$__crt_unique_heap_ptr@U__vcrt_ptd@@U__crt_internal_free_policy@@@@QEAA@QEAU__vcrt_ptd@@@Z 0000000140003490 f i libvcruntimed:per_thread_data.obj
 0001:00002490       ??0?$string_output_adapter@D@__crt_stdio_output@@QEAA@QEAU?$string_output_adapter_context@D@1@@Z 0000000140003490 f i libucrtd:output.obj
 0001:00002490       ??0?$string_output_adapter@_W@__crt_stdio_output@@QEAA@QEAU?$string_output_adapter_context@_W@1@@Z 0000000140003490 f i libucrtd:output.obj
 0001:00002490       ??0__crt_stdio_stream@@QEAA@QEAU__crt_stdio_stream_data@@@Z 0000000140003490 f i libucrtd:closeall.obj
 0001:00002490       ??0__crt_stdio_stream@@QEAA@QEAU_iobuf@@@Z 0000000140003490 f i libucrtd:_file.obj
 0001:000024b0       ??1?$__crt_unique_heap_ptr@DU__crt_internal_free_policy@@@@QEAA@XZ 00000001400034b0 f i libvcruntimed:std_type_info.obj
 0001:000024b0       ??1?$__crt_unique_heap_ptr@EU__crt_internal_free_policy@@@@QEAA@XZ 00000001400034b0 f i libucrtd:argv_parsing.obj
 0001:000024b0       ??1?$__crt_unique_heap_ptr@P6AXXZU__crt_internal_free_policy@@@@QEAA@XZ 00000001400034b0 f i libucrtd:onexit.obj
 0001:000024b0       ??1?$__crt_unique_heap_ptr@PEADU__crt_internal_free_policy@@@@QEAA@XZ 00000001400034b0 f i libucrtd:argv_parsing.obj
 0001:000024b0       ??1?$__crt_unique_heap_ptr@PEAU__crt_stdio_stream_data@@U__crt_internal_free_policy@@@@QEAA@XZ 00000001400034b0 f i libucrtd:_file.obj
 0001:000024b0       ??1?$__crt_unique_heap_ptr@PEA_WU__crt_internal_free_policy@@@@QEAA@XZ 00000001400034b0 f i libucrtd:argv_parsing.obj
 0001:000024b0       ??1?$__crt_unique_heap_ptr@U__acrt_ptd@@U__crt_internal_free_policy@@@@QEAA@XZ 00000001400034b0 f i libucrtd:per_thread_data.obj
 0001:000024b0       ??1?$__crt_unique_heap_ptr@U__crt_lowio_handle_data@@U__crt_internal_free_policy@@@@QEAA@XZ 00000001400034b0 f i libucrtd:osfinfo.obj
 0001:000024b0       ??1?$__crt_unique_heap_ptr@U__crt_multibyte_data@@U__crt_internal_free_policy@@@@QEAA@XZ 00000001400034b0 f i libucrtd:wsetlocale.obj
 0001:000024b0       ??1?$__crt_unique_heap_ptr@U__crt_stdio_stream_data@@U__crt_internal_free_policy@@@@QEAA@XZ 00000001400034b0 f i libucrtd:stream.obj
 0001:000024b0       ??1?$__crt_unique_heap_ptr@U__vcrt_ptd@@U__crt_internal_free_policy@@@@QEAA@XZ 00000001400034b0 f i libvcruntimed:per_thread_data.obj
 0001:000024d0       ??B?$__crt_unique_heap_ptr@DU__crt_internal_free_policy@@@@QEBA_NXZ 00000001400034d0 f i libvcruntimed:std_type_info.obj
 0001:000024d0       ??B?$__crt_unique_heap_ptr@DU__crt_public_free_policy@@@@QEBA_NXZ 00000001400034d0 f i libvcruntimed:std_exception.obj
 0001:000024d0       ??B?$__crt_unique_heap_ptr@EU__crt_internal_free_policy@@@@QEBA_NXZ 00000001400034d0 f i libucrtd:argv_parsing.obj
 0001:000024d0       ??B?$__crt_unique_heap_ptr@PEADU__crt_internal_free_policy@@@@QEBA_NXZ 00000001400034d0 f i libucrtd:environment_initialization.obj
 0001:000024d0       ??B?$__crt_unique_heap_ptr@U__acrt_ptd@@U__crt_internal_free_policy@@@@QEBA_NXZ 00000001400034d0 f i libucrtd:per_thread_data.obj
 0001:000024d0       ??B?$__crt_unique_heap_ptr@U__crt_lowio_handle_data@@U__crt_internal_free_policy@@@@QEBA_NXZ 00000001400034d0 f i libucrtd:osfinfo.obj
 0001:000024d0       ??B?$__crt_unique_heap_ptr@U__crt_multibyte_data@@U__crt_internal_free_policy@@@@QEBA_NXZ 00000001400034d0 f i libucrtd:wsetlocale.obj
 0001:000024d0       ??B?$__crt_unique_heap_ptr@U__vcrt_ptd@@U__crt_internal_free_policy@@@@QEBA_NXZ 00000001400034d0 f i libvcruntimed:per_thread_data.obj
 0001:000024f0       ?__crt_interlocked_read_64@@YA_JPED_J@Z 00000001400034f0 f i libvcruntimed:std_type_info.obj
 0001:00002510       ??C__crt_stdio_stream@@QEBAPEAU__crt_stdio_stream_data@@XZ 0000000140003510 f i libucrtd:_file.obj
 0001:00002510       ?get@?$__crt_scoped_stack_ptr@_W@@QEBAPEA_WXZ 0000000140003510 f i libucrtd:getstringtypea.obj
 0001:00002510       ?get@?$__crt_unique_handle_t@U__crt_findfile_traits@@@@QEBAPEAXXZ 0000000140003510 f i libucrtd:argv_wildcards.obj
 0001:00002510       ?get@?$__crt_unique_handle_t@U__crt_hmodule_traits@@@@QEBAPEAUHINSTANCE__@@XZ 0000000140003510 f i libucrtd:exit.obj
 0001:00002510       ?get@?$__crt_unique_heap_ptr@DU__crt_internal_free_policy@@@@QEBAPEADXZ 0000000140003510 f i libvcruntimed:std_type_info.obj
 0001:00002510       ?get@?$__crt_unique_heap_ptr@DU__crt_public_free_policy@@@@QEBAPEADXZ 0000000140003510 f i libvcruntimed:std_exception.obj
 0001:00002510       ?get@?$__crt_unique_heap_ptr@EU__crt_internal_free_policy@@@@QEBAPEAEXZ 0000000140003510 f i libucrtd:argv_parsing.obj
 0001:00002510       ?get@?$__crt_unique_heap_ptr@PEADU__crt_internal_free_policy@@@@QEBAPEAPEADXZ 0000000140003510 f i libucrtd:argv_parsing.obj
 0001:00002510       ?get@?$__crt_unique_heap_ptr@U__acrt_ptd@@U__crt_internal_free_policy@@@@QEBAPEAU__acrt_ptd@@XZ 0000000140003510 f i libucrtd:per_thread_data.obj
 0001:00002510       ?get@?$__crt_unique_heap_ptr@U__crt_lowio_handle_data@@U__crt_internal_free_policy@@@@QEBAPEAU__crt_lowio_handle_data@@XZ 0000000140003510 f i libucrtd:osfinfo.obj
 0001:00002510       ?get@?$__crt_unique_heap_ptr@U__crt_multibyte_data@@U__crt_internal_free_policy@@@@QEBAPEAU__crt_multibyte_data@@XZ 0000000140003510 f i libucrtd:wsetlocale.obj
 0001:00002510       ?get@?$__crt_unique_heap_ptr@U__vcrt_ptd@@U__crt_internal_free_policy@@@@QEBAPEAU__vcrt_ptd@@XZ 0000000140003510 f i libvcruntimed:per_thread_data.obj
 0001:00002510       ?public_stream@__crt_stdio_stream@@QEBAPEAU_iobuf@@XZ 0000000140003510 f i libucrtd:fclose.obj
 0001:00002510       ?save_state@?$c_string_character_source@D@__crt_strtox@@QEBAPEBDXZ 0000000140003510 f i libucrtd:output.obj
 0001:00002510       ?save_state@?$c_string_character_source@_W@__crt_strtox@@QEBAPEB_WXZ 0000000140003510 f i libucrtd:output.obj
 0001:00002520       ??B?$__crt_scoped_stack_ptr@_W@@QEBA_NXZ 0000000140003520 f i libucrtd:lcmapstringa.obj
 0001:00002520       ?is_valid@?$__crt_unique_heap_ptr@DU__crt_internal_free_policy@@@@QEBA_NXZ 0000000140003520 f i libvcruntimed:std_type_info.obj
 0001:00002520       ?is_valid@?$__crt_unique_heap_ptr@DU__crt_public_free_policy@@@@QEBA_NXZ 0000000140003520 f i libvcruntimed:std_exception.obj
 0001:00002520       ?is_valid@?$__crt_unique_heap_ptr@EU__crt_internal_free_policy@@@@QEBA_NXZ 0000000140003520 f i libucrtd:argv_parsing.obj
 0001:00002520       ?is_valid@?$__crt_unique_heap_ptr@PEADU__crt_internal_free_policy@@@@QEBA_NXZ 0000000140003520 f i libucrtd:environment_initialization.obj
 0001:00002520       ?is_valid@?$__crt_unique_heap_ptr@U__acrt_ptd@@U__crt_internal_free_policy@@@@QEBA_NXZ 0000000140003520 f i libucrtd:per_thread_data.obj
 0001:00002520       ?is_valid@?$__crt_unique_heap_ptr@U__crt_lowio_handle_data@@U__crt_internal_free_policy@@@@QEBA_NXZ 0000000140003520 f i libucrtd:osfinfo.obj
 0001:00002520       ?is_valid@?$__crt_unique_heap_ptr@U__crt_multibyte_data@@U__crt_internal_free_policy@@@@QEBA_NXZ 0000000140003520 f i libucrtd:wsetlocale.obj
 0001:00002520       ?is_valid@?$__crt_unique_heap_ptr@U__vcrt_ptd@@U__crt_internal_free_policy@@@@QEBA_NXZ 0000000140003520 f i libvcruntimed:per_thread_data.obj
 0001:00002520       ?valid@__crt_stdio_stream@@QEBA_NXZ 0000000140003520 f i libucrtd:fclose.obj
 0001:00002550       ?release@?$__crt_unique_heap_ptr@DU__crt_internal_free_policy@@@@QEAAXXZ 0000000140003550 f i libvcruntimed:std_type_info.obj
 0001:00002550       ?release@?$__crt_unique_heap_ptr@EU__crt_internal_free_policy@@@@QEAAXXZ 0000000140003550 f i libucrtd:argv_parsing.obj
 0001:00002550       ?release@?$__crt_unique_heap_ptr@P6AXXZU__crt_internal_free_policy@@@@QEAAXXZ 0000000140003550 f i libucrtd:onexit.obj
 0001:00002550       ?release@?$__crt_unique_heap_ptr@PEADU__crt_internal_free_policy@@@@QEAAXXZ 0000000140003550 f i libucrtd:argv_parsing.obj
 0001:00002550       ?release@?$__crt_unique_heap_ptr@PEAU__crt_stdio_stream_data@@U__crt_internal_free_policy@@@@QEAAXXZ 0000000140003550 f i libucrtd:_file.obj
 0001:00002550       ?release@?$__crt_unique_heap_ptr@PEA_WU__crt_internal_free_policy@@@@QEAAXXZ 0000000140003550 f i libucrtd:argv_parsing.obj
 0001:00002550       ?release@?$__crt_unique_heap_ptr@U__acrt_ptd@@U__crt_internal_free_policy@@@@QEAAXXZ 0000000140003550 f i libucrtd:per_thread_data.obj
 0001:00002550       ?release@?$__crt_unique_heap_ptr@U__crt_lowio_handle_data@@U__crt_internal_free_policy@@@@QEAAXXZ 0000000140003550 f i libucrtd:osfinfo.obj
 0001:00002550       ?release@?$__crt_unique_heap_ptr@U__crt_multibyte_data@@U__crt_internal_free_policy@@@@QEAAXXZ 0000000140003550 f i libucrtd:wsetlocale.obj
 0001:00002550       ?release@?$__crt_unique_heap_ptr@U__crt_stdio_stream_data@@U__crt_internal_free_policy@@@@QEAAXXZ 0000000140003550 f i libucrtd:stream.obj
 0001:00002550       ?release@?$__crt_unique_heap_ptr@U__vcrt_ptd@@U__crt_internal_free_policy@@@@QEAAXXZ 0000000140003550 f i libvcruntimed:per_thread_data.obj
 0001:00002580       __std_type_info_compare    0000000140003580 f   libvcruntimed:std_type_info.obj
 0001:000025c0       __DestructExceptionObject  00000001400035c0 f   libvcruntimed:ehhelpers.obj
 0001:000026c0       ?_CallMemberFunction0@@YAXQEAX0@Z 00000001400036c0 f i libvcruntimed:ehhelpers.obj
 0001:00002790       _IsExceptionObjectToBeDestroyed 0000000140003790 f   libvcruntimed:ehhelpers.obj
 0001:000027e0       __AdjustPointer            00000001400037e0 f   libvcruntimed:ehhelpers.obj
 0001:00002860       __FrameUnwindFilter        0000000140003860 f   libvcruntimed:ehhelpers.obj
 0001:00002910       __current_exception        0000000140003910 f   libvcruntimed:ehhelpers.obj
 0001:00002930       __current_exception_context 0000000140003930 f   libvcruntimed:ehhelpers.obj
 0001:00002960       _NLG_Notify                0000000140003960 f   libvcruntimed:notify.obj
 0001:00002980       __NLG_Dispatch2            0000000140003980 f   libvcruntimed:notify.obj
 0001:00002990       __NLG_Return2              0000000140003990 f   libvcruntimed:notify.obj
 0001:000029a0       __except_validate_context_record 00000001400039a0 f   libvcruntimed:jbcxrval.obj
 0001:00002a40       ?detach@?$__crt_unique_heap_ptr@DU__crt_internal_free_policy@@@@QEAAPEADXZ 0000000140003a40 f i libucrtd:environment_initialization.obj
 0001:00002a40       ?detach@?$__crt_unique_heap_ptr@DU__crt_public_free_policy@@@@QEAAPEADXZ 0000000140003a40 f i libvcruntimed:std_exception.obj
 0001:00002a40       ?detach@?$__crt_unique_heap_ptr@EU__crt_internal_free_policy@@@@QEAAPEAEXZ 0000000140003a40 f i libucrtd:argv_parsing.obj
 0001:00002a40       ?detach@?$__crt_unique_heap_ptr@P6AXXZU__crt_internal_free_policy@@@@QEAAPEAP6AXXZXZ 0000000140003a40 f i libucrtd:onexit.obj
 0001:00002a40       ?detach@?$__crt_unique_heap_ptr@PEADU__crt_internal_free_policy@@@@QEAAPEAPEADXZ 0000000140003a40 f i libucrtd:argv_parsing.obj
 0001:00002a40       ?detach@?$__crt_unique_heap_ptr@PEAU__crt_stdio_stream_data@@U__crt_internal_free_policy@@@@QEAAPEAPEAU__crt_stdio_stream_data@@XZ 0000000140003a40 f i libucrtd:_file.obj
 0001:00002a40       ?detach@?$__crt_unique_heap_ptr@PEA_WU__crt_internal_free_policy@@@@QEAAPEAPEA_WXZ 0000000140003a40 f i libucrtd:argv_parsing.obj
 0001:00002a40       ?detach@?$__crt_unique_heap_ptr@U__acrt_ptd@@U__crt_internal_free_policy@@@@QEAAPEAU__acrt_ptd@@XZ 0000000140003a40 f i libucrtd:per_thread_data.obj
 0001:00002a40       ?detach@?$__crt_unique_heap_ptr@U__crt_lowio_handle_data@@U__crt_internal_free_policy@@@@QEAAPEAU__crt_lowio_handle_data@@XZ 0000000140003a40 f i libucrtd:osfinfo.obj
 0001:00002a40       ?detach@?$__crt_unique_heap_ptr@U__crt_multibyte_data@@U__crt_internal_free_policy@@@@QEAAPEAU__crt_multibyte_data@@XZ 0000000140003a40 f i libucrtd:wsetlocale.obj
 0001:00002a40       ?detach@?$__crt_unique_heap_ptr@U__crt_stdio_stream_data@@U__crt_internal_free_policy@@@@QEAAPEAU__crt_stdio_stream_data@@XZ 0000000140003a40 f i libucrtd:stream.obj
 0001:00002a40       ?detach@?$__crt_unique_heap_ptr@U__vcrt_ptd@@U__crt_internal_free_policy@@@@QEAAPEAU__vcrt_ptd@@XZ 0000000140003a40 f i libvcruntimed:per_thread_data.obj
 0001:00002ab0       __vcrt_freefls             0000000140003ab0 f   libvcruntimed:per_thread_data.obj
 0001:00002af0       __vcrt_getptd              0000000140003af0 f   libvcruntimed:per_thread_data.obj
 0001:00002b20       __vcrt_getptd_noexit       0000000140003b20 f   libvcruntimed:per_thread_data.obj
 0001:00002cc0       __vcrt_initialize_ptd      0000000140003cc0 f   libvcruntimed:per_thread_data.obj
 0001:00002d10       __vcrt_uninitialize_ptd    0000000140003d10 f   libvcruntimed:per_thread_data.obj
 0001:00002d40       __vcrt_initialize_locks    0000000140003d40 f   libvcruntimed:locks.obj
 0001:00002db0       __vcrt_uninitialize_locks  0000000140003db0 f   libvcruntimed:locks.obj
 0001:00002e10       _vsprintf_s_l              0000000140003e10 f i libvcruntimed:undname.obj
 0001:00002e80       sprintf_s                  0000000140003e80 f i libvcruntimed:undname.obj
 0001:00002ee0       ??$__crt_interlocked_exchange_pointer@UHINSTANCE__@@PEAU1@@@YAPEAUHINSTANCE__@@PEDSEAU0@QEAU0@@Z 0000000140003ee0 f i libvcruntimed:winapi_downlevel.obj
 0001:00002ee0       ??$__crt_interlocked_exchange_pointer@UHINSTANCE__@@PEAX@@YAPEAUHINSTANCE__@@PEDSEAU0@QEAX@Z 0000000140003ee0 f i libvcruntimed:winapi_downlevel.obj
 0001:00002ee0       ??$__crt_interlocked_exchange_pointer@XPEAX@@YAPEAXPEDSEAXQEAX@Z 0000000140003ee0 f i libvcruntimed:winapi_downlevel.obj
 0001:00002f00       ??$__crt_interlocked_read_pointer@UHINSTANCE__@@@@YAPEAUHINSTANCE__@@PEDSEAU0@@Z 0000000140003f00 f i libvcruntimed:winapi_downlevel.obj
 0001:00002f00       ??$__crt_interlocked_read_pointer@X@@YAPEAXPEDSEAX@Z 0000000140003f00 f i libvcruntimed:winapi_downlevel.obj
 0001:00002f20       ?get_invalid_value@__crt_findfile_traits@@SAPEAXXZ 0000000140003f20 f   libucrtd:argv_wildcards.obj
 0001:00003410       __vcrt_FlsAlloc            0000000140004410 f   libvcruntimed:winapi_downlevel.obj
 0001:00003460       __vcrt_FlsFree             0000000140004460 f   libvcruntimed:winapi_downlevel.obj
 0001:000034b0       __vcrt_FlsGetValue         00000001400044b0 f   libvcruntimed:winapi_downlevel.obj
 0001:00003500       __vcrt_FlsSetValue         0000000140004500 f   libvcruntimed:winapi_downlevel.obj
 0001:00003560       __vcrt_InitializeCriticalSectionEx 0000000140004560 f   libvcruntimed:winapi_downlevel.obj
 0001:000035e0       memcpy_repmovs             00000001400045e0 f   libvcruntimed:memcpy.obj
 0001:00003600       memcpy                     0000000140004600 f   libvcruntimed:memcpy.obj
 0001:00003600       memmove                    0000000140004600 f   libvcruntimed:memcpy.obj
 0001:00003c80       ??$?0AEAViterator@TryBlockMap@__FrameHandler3@@AEAV012@$0A@@?$pair@Viterator@TryBlockMap@__FrameHandler3@@V123@@std@@QEAA@AEAViterator@TryBlockMap@__FrameHandler3@@0@Z 0000000140004c80 f i libvcruntimed:risctrnsctrl.obj
 0001:00003db0       ??$_CallSETranslator@V__FrameHandler3@@@@YAHPEAUEHExceptionRecord@@PEA_KPEAU_CONTEXT@@PEAU_xDISPATCHER_CONTEXT@@PEBU_s_FuncInfo@@K1H@Z 0000000140004db0 f i libvcruntimed:risctrnsctrl.obj
 0001:00003e40       ??$forward@AEAViterator@TryBlockMap@__FrameHandler3@@@std@@YAAEAViterator@TryBlockMap@__FrameHandler3@@AEAV123@@Z 0000000140004e40 f i libvcruntimed:risctrnsctrl.obj
 0001:00003e40       ?dangerous_get_state_array@?$dual_state_global@H@__crt_state_management@@QEAAPEAHXZ 0000000140004e40 f i libucrtd:txtmode.obj
 0001:00003e40       ?dangerous_get_state_array@?$dual_state_global@P6AXPEB_W00I_K@Z@__crt_state_management@@QEAAPEAP6AXPEB_W00I_K@ZXZ 0000000140004e40 f i libucrtd:invalid_parameter.obj
 0001:00003e40       ?dangerous_get_state_array@?$dual_state_global@PEAE@__crt_state_management@@QEAAPEAPEAEXZ 0000000140004e40 f i libucrtd:mbctype.obj
 0001:00003e40       ?dangerous_get_state_array@?$dual_state_global@PEAU__crt_locale_data@@@__crt_state_management@@QEAAPEAPEAU__crt_locale_data@@XZ 0000000140004e40 f i libucrtd:per_thread_data.obj
 0001:00003e40       ?dangerous_get_state_array@?$dual_state_global@PEAU__crt_multibyte_data@@@__crt_state_management@@QEAAPEAPEAU__crt_multibyte_data@@XZ 0000000140004e40 f i libucrtd:mbctype.obj
 0001:00003e40       ?debug_info@?$__crt_win32_buffer@DU__crt_win32_buffer_internal_dynamic_resizing@@@@QEBAAEBV__crt_win32_buffer_empty_debug_info@@XZ 0000000140004e40 f i libucrtd:argv_wildcards.obj
 0001:00003e40       ?debug_info@?$__crt_win32_buffer@DU__crt_win32_buffer_no_resizing@@@@QEBAAEBV__crt_win32_buffer_empty_debug_info@@XZ 0000000140004e40 f i libucrtd:getmodulefilenamea.obj
 0001:00003e40       ?debug_info@?$__crt_win32_buffer@_WU__crt_win32_buffer_internal_dynamic_resizing@@@@QEBAAEBV__crt_win32_buffer_empty_debug_info@@XZ 0000000140004e40 f i libucrtd:argv_wildcards.obj
 0001:00003e40       ?get_address_of@?$__crt_unique_handle_t@U__crt_hmodule_traits@@@@QEAAPEAPEAUHINSTANCE__@@XZ 0000000140004e40 f i libucrtd:exit.obj
 0001:00003e40       ?get_address_of@?$__crt_unique_heap_ptr@PEADU__crt_internal_free_policy@@@@QEAAPEAPEAPEADXZ 0000000140004e40 f i libucrtd:argv_parsing.obj
 0001:00003e50       ??0iterator@HandlerMap@__FrameHandler3@@QEAA@AEAV12@I@Z 0000000140004e50 f i libvcruntimed:frame.obj
 0001:00003e50       ??0iterator@TryBlockMap@__FrameHandler3@@QEAA@AEAV12@I@Z 0000000140004e50 f i libvcruntimed:risctrnsctrl.obj
 0001:00003e80       ?CatchTryBlock@__FrameHandler3@@SAPEBU_s_TryBlockMapEntry@@PEBU_s_FuncInfo@@H@Z 0000000140004e80 f   libvcruntimed:risctrnsctrl.obj
 0001:00003f10       ?ExecutionInCatch@__FrameHandler3@@SA_NPEAU_xDISPATCHER_CONTEXT@@PEBU_s_FuncInfo@@@Z 0000000140004f10 f   libvcruntimed:risctrnsctrl.obj
 0001:00003f60       ?FrameUnwindToEmptyState@__FrameHandler3@@SAXPEA_KPEAU_xDISPATCHER_CONTEXT@@PEBU_s_FuncInfo@@@Z 0000000140004f60 f   libvcruntimed:risctrnsctrl.obj
 0001:00004000       ?GetEstablisherFrame@__FrameHandler3@@SAPEA_KPEA_KPEAU_xDISPATCHER_CONTEXT@@PEBU_s_FuncInfo@@0@Z 0000000140005000 f   libvcruntimed:risctrnsctrl.obj
 0001:00004170       ?GetRangeOfTrysToCheck@__FrameHandler3@@SA?AU?$pair@Viterator@TryBlockMap@__FrameHandler3@@V123@@std@@AEAVTryBlockMap@1@HPEAU_xDISPATCHER_CONTEXT@@PEBU_s_FuncInfo@@H@Z 0000000140005170 f   libvcruntimed:risctrnsctrl.obj
 0001:000043b0       ?UnwindNestedFrames@__FrameHandler3@@SAXPEA_KPEAUEHExceptionRecord@@PEAU_CONTEXT@@0PEAXPEBU_s_FuncInfo@@HHPEBU_s_HandlerType@@PEAU_xDISPATCHER_CONTEXT@@E@Z 00000001400053b0 f   libvcruntimed:risctrnsctrl.obj
 0001:00004520       _CreateFrameInfo           0000000140005520 f   libvcruntimed:risctrnsctrl.obj
 0001:00004590       _FindAndUnlinkFrame        0000000140005590 f   libvcruntimed:risctrnsctrl.obj
 0001:00004610       _GetImageBase              0000000140005610 f   libvcruntimed:risctrnsctrl.obj
 0001:00004630       _GetThrowImageBase         0000000140005630 f   libvcruntimed:risctrnsctrl.obj
 0001:00004650       _SetImageBase              0000000140005650 f   libvcruntimed:risctrnsctrl.obj
 0001:00004670       _SetThrowImageBase         0000000140005670 f   libvcruntimed:risctrnsctrl.obj
 0001:00004690       __CxxFrameHandler3         0000000140005690 f   libvcruntimed:risctrnsctrl.obj
 0001:00004770       ?GetCurrentState@__FrameHandler3@@SAHPEA_KPEAU_xDISPATCHER_CONTEXT@@PEBU_s_FuncInfo@@@Z 0000000140005770 f   libvcruntimed:ehstate.obj
 0001:000047d0       ?GetUnwindTryBlock@__FrameHandler3@@SAHPEA_KPEAU_xDISPATCHER_CONTEXT@@PEBU_s_FuncInfo@@@Z 00000001400057d0 f   libvcruntimed:ehstate.obj
 0001:00004820       ?SetState@__FrameHandler3@@SAXPEA_KPEBU_s_FuncInfo@@H@Z 0000000140005820 f   libvcruntimed:ehstate.obj
 0001:00004850       ?SetUnwindTryBlock@__FrameHandler3@@SAXPEA_KPEAU_xDISPATCHER_CONTEXT@@PEBU_s_FuncInfo@@H@Z 0000000140005850 f   libvcruntimed:ehstate.obj
 0001:000048c0       ?StateFromControlPc@__FrameHandler3@@SAHPEBU_s_FuncInfo@@PEAU_xDISPATCHER_CONTEXT@@@Z 00000001400058c0 f   libvcruntimed:ehstate.obj
 0001:00004900       ?StateFromIp@__FrameHandler3@@SAHPEBU_s_FuncInfo@@PEAU_xDISPATCHER_CONTEXT@@_K@Z 0000000140005900 f   libvcruntimed:ehstate.obj
 0001:000049f0       ?__RVAtoRealOffset@@YA_KPEAU_xDISPATCHER_CONTEXT@@H@Z 00000001400059f0 f i libvcruntimed:ehstate.obj
 0001:00005bc0       ??$TypeMatchHelper@V__FrameHandler3@@@@YAHPEBU_s_HandlerType@@PEBU_s_CatchableType@@PEBU_s_ThrowInfo@@@Z 0000000140006bc0 f i libvcruntimed:frame.obj
 0001:00005dc0       ??$__InternalCxxFrameHandler@V__FrameHandler3@@@@YA?AW4_EXCEPTION_DISPOSITION@@PEAUEHExceptionRecord@@PEA_KPEAU_CONTEXT@@PEAU_xDISPATCHER_CONTEXT@@PEBU_s_FuncInfo@@H1E@Z 0000000140006dc0 f i libvcruntimed:frame.obj
 0001:00006230       ??$__InternalCxxFrameHandlerWrapper@V__FrameHandler3@@@@YA?AW4_EXCEPTION_DISPOSITION@@PEAUEHExceptionRecord@@PEA_KPEAU_CONTEXT@@PEAU_xDISPATCHER_CONTEXT@@PEBU_s_FuncInfo@@H1E@Z 0000000140007230 f i libvcruntimed:frame.obj
 0001:000062a0       ??0HandlerMap@__FrameHandler3@@QEAA@PEBU_s_TryBlockMapEntry@@_KI@Z 00000001400072a0 f i libvcruntimed:frame.obj
 0001:000062f0       ??0TryBlockMap@__FrameHandler3@@QEAA@PEBU_s_FuncInfo@@_K@Z 00000001400072f0 f i libvcruntimed:frame.obj
 0001:00006320       ??0bad_exception@std@@QEAA@AEBV01@@Z 0000000140007320 f i libvcruntimed:frame.obj
 0001:00006360       ??0bad_exception@std@@QEAA@XZ 0000000140007360 f i libvcruntimed:frame.obj
 0001:000063a0       ??0exception@std@@QEAA@AEBV01@@Z 00000001400073a0 f i libvcruntimed:frame.obj
 0001:00006400       ??0exception@std@@QEAA@QEBDH@Z 0000000140007400 f i libvcruntimed:frame.obj
 0001:00006450       ??1bad_exception@std@@UEAA@XZ 0000000140007450 f i libvcruntimed:frame.obj
 0001:00006470       ??1exception@std@@UEAA@XZ  0000000140007470 f i libvcruntimed:frame.obj
 0001:000064a0       ??8iterator@HandlerMap@__FrameHandler3@@QEBA_NAEBV012@@Z 00000001400074a0 f i libvcruntimed:frame.obj
 0001:000064e0       ??8type_info@@QEBA_NAEBV0@@Z 00000001400074e0 f i libvcruntimed:frame.obj
 0001:00006560       ??9iterator@HandlerMap@__FrameHandler3@@QEBA_NAEBV012@@Z 0000000140007560 f i libvcruntimed:frame.obj
 0001:000065a0       ??Diterator@HandlerMap@__FrameHandler3@@QEAA?BU_s_HandlerType@@XZ 00000001400075a0 f i libvcruntimed:frame.obj
 0001:000065e0       ??Diterator@TryBlockMap@__FrameHandler3@@QEAA?BU_s_TryBlockMapEntry@@XZ 00000001400075e0 f i libvcruntimed:frame.obj
 0001:00006630       ??Eiterator@HandlerMap@__FrameHandler3@@QEAAAEAV012@XZ 0000000140007630 f i libvcruntimed:frame.obj
 0001:00006630       ??Eiterator@TryBlockMap@__FrameHandler3@@QEAAAEAV012@XZ 0000000140007630 f i libvcruntimed:frame.obj
 0001:00006650       ??Miterator@TryBlockMap@__FrameHandler3@@QEBA_NAEBV012@@Z 0000000140007650 f i libvcruntimed:frame.obj
 0001:00006690       ??_Ebad_exception@std@@UEAAPEAXI@Z 0000000140007690 f i libvcruntimed:frame.obj
 0001:00006690       ??_Gbad_exception@std@@UEAAPEAXI@Z 0000000140007690 f i libvcruntimed:frame.obj
 0001:000066d0       ??_Eexception@std@@UEAAPEAXI@Z 00000001400076d0 f i libvcruntimed:frame.obj
 0001:000066d0       ??_Gexception@std@@UEAAPEAXI@Z 00000001400076d0 f i libvcruntimed:frame.obj
 0001:00006710       ?BuildCatchObject@__FrameHandler3@@SAXPEAUEHExceptionRecord@@PEAXPEBU_s_HandlerType@@PEBU_s_CatchableType@@@Z 0000000140007710 f   libvcruntimed:frame.obj
 0001:00006750       ?CxxCallCatchBlock@__FrameHandler3@@SAPEAXPEAU_EXCEPTION_RECORD@@@Z 0000000140007750 f   libvcruntimed:frame.obj
 0001:00006ab0       ?FrameUnwindToState@__FrameHandler3@@SAXPEA_KPEAU_xDISPATCHER_CONTEXT@@PEBU_s_FuncInfo@@H@Z 0000000140007ab0 f   libvcruntimed:frame.obj
 0001:00006d00       ?GetHandlerSearchState@__FrameHandler3@@SAHPEA_KPEAU_xDISPATCHER_CONTEXT@@PEBU_s_FuncInfo@@@Z 0000000140007d00 f i libvcruntimed:frame.obj
 0001:00006db0       ?GetMaxState@__FrameHandler3@@SAHPEAU_xDISPATCHER_CONTEXT@@PEBU_s_FuncInfo@@@Z 0000000140007db0 f i libvcruntimed:frame.obj
 0001:00006fb0       ?TypeMatch@__FrameHandler3@@SAHPEBU_s_HandlerType@@PEBU_s_CatchableType@@PEBU_s_ThrowInfo@@@Z 0000000140007fb0 f   libvcruntimed:frame.obj
 0001:00006fb0       __TypeMatch                0000000140007fb0 f   libvcruntimed:frame.obj
 0001:00006fe0       ?_CallMemberFunction1@@YAXQEAX00@Z 0000000140007fe0 f i libvcruntimed:frame.obj
 0001:00007020       ?_CallMemberFunction2@@YAXQEAX00H@Z 0000000140008020 f i libvcruntimed:frame.obj
 0001:000070b0       ?begin@HandlerMap@__FrameHandler3@@QEAA?AViterator@12@XZ 00000001400080b0 f i libvcruntimed:frame.obj
 0001:000070e0       ?end@HandlerMap@__FrameHandler3@@QEAA?AViterator@12@XZ 00000001400080e0 f i libvcruntimed:frame.obj
 0001:00007110       ?getESTypes@__FrameHandler3@@SAPEBU_s_ESTypeList@@PEBU_s_FuncInfo@@@Z 0000000140008110 f i libvcruntimed:frame.obj
 0001:00007150       ?getLastEntry@HandlerMap@__FrameHandler3@@QEAAPEBU_s_HandlerType@@XZ 0000000140008150 f i libvcruntimed:frame.obj
 0001:00007170       ?getMagicNum@__FrameHandler3@@SAIPEBU_s_FuncInfo@@@Z 0000000140008170 f i libvcruntimed:frame.obj
 0001:00007190       ?getNumTryBlocks@TryBlockMap@__FrameHandler3@@QEAAIXZ 0000000140008190 f i libvcruntimed:frame.obj
 0001:000071b0       ?isEHs@__FrameHandler3@@SA_NPEBU_s_FuncInfo@@@Z 00000001400081b0 f i libvcruntimed:frame.obj
 0001:000071f0       ?isNoExcept@__FrameHandler3@@SA_NPEBU_s_FuncInfo@@@Z 00000001400081f0 f i libvcruntimed:frame.obj
 0001:00007230       ?what@exception@std@@UEBAPEBDXZ 0000000140008230 f i libvcruntimed:frame.obj
 0001:00007270       __vcrt_EncodePointer       0000000140008270 f i libvcruntimed:frame.obj
 0001:000072a0       memset_repstos             00000001400082a0 f   libvcruntimed:memset.obj
 0001:000072c0       memset                     00000001400082c0 f   libvcruntimed:memset.obj
 0001:00007660       _CallSettingFrame          0000000140008660 f   libvcruntimed:handlers.obj
 0001:000076b0       _CallSettingFrame_LookupContinuationIndex 00000001400086b0 f   libvcruntimed:handlers.obj
 0001:000076e0       _CallSettingFrame_NotifyContinuationAddr 00000001400086e0 f   libvcruntimed:handlers.obj
 0001:00007710       _CallSettingFrameEncoded   0000000140008710 f   libvcruntimed:handlers.obj
 0001:00007760       ??$?RD@__crt_public_free_policy@@QEBAXQEBD@Z 0000000140008760 f i libvcruntimed:std_exception.obj
 0001:00007780       ??1?$__crt_unique_heap_ptr@DU__crt_public_free_policy@@@@QEAA@XZ 0000000140008780 f i libvcruntimed:std_exception.obj
 0001:000077a0       ?release@?$__crt_unique_heap_ptr@DU__crt_public_free_policy@@@@QEAAXXZ 00000001400087a0 f i libvcruntimed:std_exception.obj
 0001:000077d0       __std_exception_copy       00000001400087d0 f   libvcruntimed:std_exception.obj
 0001:00007910       __std_exception_destroy    0000000140008910 f   libvcruntimed:std_exception.obj
 0001:00007950       _CxxThrowException         0000000140008950 f   libvcruntimed:throw.obj
 0001:00007a80       __acrt_initialize_stdio    0000000140008a80 f   libucrtd:_file.obj
 0001:00007c70       __acrt_iob_func            0000000140008c70 f   libucrtd:_file.obj
 0001:00007c90       __acrt_uninitialize_stdio  0000000140008c90 f   libucrtd:_file.obj
 0001:00007d20       _lock_file                 0000000140008d20 f   libucrtd:_file.obj
 0001:00007d60       _unlock_file               0000000140008d60 f   libucrtd:_file.obj
 0001:00007da0       ??$__crt_interlocked_read@H@@YAHPEDH@Z 0000000140008da0 f i libucrtd:setmode.obj
 0001:00007da0       ??$__crt_interlocked_read@J@@YAJPEDJ@Z 0000000140008da0 f i libucrtd:fclose.obj
 0001:00007dc0       ??0?$cached@H@__crt_cached_ptd_host@@QEAA@XZ 0000000140008dc0 f i libucrtd:fclose.obj
 0001:00007dc0       ??0?$cached@K@__crt_cached_ptd_host@@QEAA@XZ 0000000140008dc0 f i libucrtd:fclose.obj
 0001:00007de0       ??0__crt_cached_ptd_host@@QEAA@QEAU__crt_locale_pointers@@@Z 0000000140008de0 f i libucrtd:fclose.obj
 0001:00007ea0       ??0__crt_scoped_get_last_error_reset@@QEAA@XZ 0000000140008ea0 f i libucrtd:fclose.obj
 0001:00007ec0       ??1__crt_cached_ptd_host@@QEAA@XZ 0000000140008ec0 f i libucrtd:fclose.obj
 0001:00007f70       ??1__crt_scoped_get_last_error_reset@@QEAA@XZ 0000000140008f70 f i libucrtd:fclose.obj
 0001:00007f90       ?__crt_interlocked_read_32@@YAHPEDH@Z 0000000140008f90 f i libucrtd:fclose.obj
 0001:000082c0       ?check_synchronize_global_state_index@__crt_cached_ptd_host@@AEAA_KAEBV__crt_scoped_get_last_error_reset@@@Z 00000001400092c0 f i libucrtd:fclose.obj
 0001:00008300       ?check_synchronize_per_thread_data@__crt_cached_ptd_host@@AEAAPEAU__acrt_ptd@@XZ 0000000140009300 f i libucrtd:fclose.obj
 0001:00008340       ?force_synchronize_global_state_index@__crt_cached_ptd_host@@AEAA_KAEBV__crt_scoped_get_last_error_reset@@@Z 0000000140009340 f i libucrtd:fclose.obj
 0001:00008380       ?force_synchronize_per_thread_data@__crt_cached_ptd_host@@AEAAPEAU__acrt_ptd@@XZ 0000000140009380 f i libucrtd:fclose.obj
 0001:000083e0       ?get_errno@__crt_cached_ptd_host@@QEAAAEAU?$cached@H@1@XZ 00000001400093e0 f i libucrtd:fclose.obj
 0001:000083f0       ?get_flags@__crt_stdio_stream@@QEBAJXZ 00000001400093f0 f i libucrtd:fclose.obj
 0001:00008420       ?get_raw_ptd@__crt_cached_ptd_host@@QEAAPEAU__acrt_ptd@@XZ 0000000140009420 f i libucrtd:fclose.obj
 0001:00008440       ?is_in_use@__crt_stdio_stream@@QEBA_NXZ 0000000140009440 f i libucrtd:fclose.obj
 0001:00008480       ?is_string_backed@__crt_stdio_stream@@QEBA_NXZ 0000000140009480 f i libucrtd:fclose.obj
 0001:000084c0       ?set@?$cached@H@__crt_cached_ptd_host@@QEAAHH@Z 00000001400094c0 f i libucrtd:fclose.obj
 0001:000084c0       ?set@?$cached@K@__crt_cached_ptd_host@@QEAAKK@Z 00000001400094c0 f i libucrtd:errno.obj
 0001:000084f0       ?unsafe_value@?$cached@H@__crt_cached_ptd_host@@QEAAHXZ 00000001400094f0 f i libucrtd:fclose.obj
 0001:000084f0       ?unsafe_value@?$cached@K@__crt_cached_ptd_host@@QEAAKXZ 00000001400094f0 f i libucrtd:fclose.obj
 0001:00008500       ?valid@?$cached@H@__crt_cached_ptd_host@@QEBA_NXZ 0000000140009500 f i libucrtd:fclose.obj
 0001:00008500       ?valid@?$cached@K@__crt_cached_ptd_host@@QEBA_NXZ 0000000140009500 f i libucrtd:fclose.obj
 0001:00008510       __acrt_enable_global_locale_sync 0000000140009510 f i libucrtd:fclose.obj
 0001:00008540       __acrt_locale_changed      0000000140009540 f i libucrtd:fclose.obj
 0001:00008570       fclose                     0000000140009570 f   libucrtd:fclose.obj
 0001:000085b0       ?error@__crt_stdio_stream@@QEBA_NXZ 00000001400095b0 f i libucrtd:feoferr.obj
 0001:000085d0       ?has_any_of@__crt_stdio_stream@@QEBA_NJ@Z 00000001400095d0 f i libucrtd:feoferr.obj
 0001:00008610       ferror                     0000000140009610 f   libucrtd:feoferr.obj
 0001:00008990       ??$open_file@AEBQEBDAEBQEBDAEBHPEAU_iobuf@@@?$__crt_char_traits@D@@SAPEAU_iobuf@@AEBQEBD0AEBH$$QEAPEAU1@@Z 0000000140009990 f i libucrtd:fopen.obj
 0001:000089e0       ?unlock@__crt_stdio_stream@@QEBAXXZ 00000001400099e0 f i libucrtd:fopen.obj
 0001:00008a00       fopen                      0000000140009a00 f   libucrtd:fopen.obj
 0001:00008a30       ?__acrt_stdio_reset_buffer@@YAXV__crt_stdio_stream@@@Z 0000000140009a30 f i libucrtd:fread.obj
 0001:00008a80       ?has_any_buffer@__crt_stdio_stream@@QEBA_NXZ 0000000140009a80 f i libucrtd:fread.obj
 0001:00008aa0       ?set_flags@__crt_stdio_stream@@QEBA_NJ@Z 0000000140009aa0 f i libucrtd:fread.obj
 0001:00008b10       _fread_nolock_s            0000000140009b10 f   libucrtd:fread.obj
 0001:000094c0       fread                      000000014000a4c0 f   libucrtd:fread.obj
 0001:00009510       fread_s                    000000014000a510 f   libucrtd:fread.obj
 0001:000097a0       ?LongLongSub@@YAJ_J0PEA_J@Z 000000014000a7a0 f i libucrtd:fseek.obj
 0001:00009eb0       ?has_all_of@__crt_stdio_stream@@QEBA_NJ@Z 000000014000aeb0 f i libucrtd:fseek.obj
 0001:00009ef0       ?lowio_handle@__crt_stdio_stream@@QEBAHXZ 000000014000aef0 f i libucrtd:fseek.obj
 0001:00009f20       ?unset_flags@__crt_stdio_stream@@QEBA_NJ@Z 000000014000af20 f i libucrtd:fseek.obj
 0001:00009f80       fseek                      000000014000af80 f   libucrtd:fseek.obj
 0001:0000ad90       ?ctrl_z@__crt_stdio_stream@@QEBA_NXZ 000000014000bd90 f i libucrtd:ftell.obj
 0001:0000adb0       ?has_big_buffer@__crt_stdio_stream@@QEBA_NXZ 000000014000bdb0 f i libucrtd:ftell.obj
 0001:0000add0       ?has_crt_buffer@__crt_stdio_stream@@QEBA_NXZ 000000014000bdd0 f i libucrtd:ftell.obj
 0001:0000adf0       ?has_setvbuf_buffer@__crt_stdio_stream@@QEBA_NXZ 000000014000bdf0 f i libucrtd:ftell.obj
 0001:0000ae10       _ftelli64_nolock_internal  000000014000be10 f   libucrtd:ftell.obj
 0001:0000ae40       _utf8_no_of_trailbytes     000000014000be40 f i libucrtd:ftell.obj
 0001:0000ae60       ftell                      000000014000be60 f   libucrtd:ftell.obj
 0001:0000afe0       ??0__acrt_stdio_temporary_buffering_guard@@QEAA@QEAU_iobuf@@AEAV__crt_cached_ptd_host@@@Z 000000014000bfe0 f i libucrtd:fwrite.obj
 0001:0000b030       ??1__acrt_stdio_temporary_buffering_guard@@QEAA@XZ 000000014000c030 f i libucrtd:fwrite.obj
 0001:0000b130       _fwrite_internal           000000014000c130 f   libucrtd:fwrite.obj
 0001:0000b2a0       _fwrite_nolock_internal    000000014000c2a0 f   libucrtd:fwrite.obj
 0001:0000bad0       fwrite                     000000014000cad0 f   libucrtd:fwrite.obj
 0001:0000bc40       _get_sys_err_msg           000000014000cc40 f i libucrtd:perror.obj
 0001:0000bcf0       perror                     000000014000ccf0 f   libucrtd:perror.obj
 0001:0000bd30       ??$?0AEBV?$stream_output_adapter@D@__crt_stdio_output@@AEB_KAEBQEBDAEAV__crt_cached_ptd_host@@AEBQEAD@?$standard_base@DV?$stream_output_adapter@D@__crt_stdio_output@@@__crt_stdio_output@@IEAA@AEBV?$stream_output_adapter@D@1@AEB_KAEBQEBDAEAV__crt_cached_ptd_host@@AEBQEAD@Z 000000014000cd30 f i libucrtd:output.obj
 0001:0000bd30       ??$?0AEBV?$string_output_adapter@D@__crt_stdio_output@@AEB_KAEBQEBDAEAV__crt_cached_ptd_host@@AEBQEAD@?$standard_base@DV?$string_output_adapter@D@__crt_stdio_output@@@__crt_stdio_output@@IEAA@AEBV?$string_output_adapter@D@1@AEB_KAEBQEBDAEAV__crt_cached_ptd_host@@AEBQEAD@Z 000000014000cd30 f i libucrtd:output.obj
 0001:0000bda0       ??$?0AEBV?$string_output_adapter@D@__crt_stdio_output@@AEB_KAEBQEBDAEAV__crt_cached_ptd_host@@AEBQEAD@?$format_validation_base@DV?$string_output_adapter@D@__crt_stdio_output@@@__crt_stdio_output@@IEAA@AEBV?$string_output_adapter@D@1@AEB_KAEBQEBDAEAV__crt_cached_ptd_host@@AEBQEAD@Z 000000014000cda0 f i libucrtd:output.obj
 0001:0000bdf0       ??$?0AEBV?$string_output_adapter@_W@__crt_stdio_output@@AEB_KAEBQEB_WAEAV__crt_cached_ptd_host@@AEBQEAD@?$format_validation_base@_WV?$string_output_adapter@_W@__crt_stdio_output@@@__crt_stdio_output@@IEAA@AEBV?$string_output_adapter@_W@1@AEB_KAEBQEB_WAEAV__crt_cached_ptd_host@@AEBQEAD@Z 000000014000cdf0 f i libucrtd:output.obj
 0001:0000be40       ??$?0AEBV?$string_output_adapter@_W@__crt_stdio_output@@AEB_KAEBQEB_WAEAV__crt_cached_ptd_host@@AEBQEAD@?$standard_base@_WV?$string_output_adapter@_W@__crt_stdio_output@@@__crt_stdio_output@@IEAA@AEBV?$string_output_adapter@_W@1@AEB_KAEBQEB_WAEAV__crt_cached_ptd_host@@AEBQEAD@Z 000000014000ce40 f i libucrtd:output.obj
 0001:0000bf60       ??$_tcstol_internal@DPEAPEAD$0A@@@YAJAEAV__crt_cached_ptd_host@@QEBDQEAPEADH@Z 000000014000cf60 f i libucrtd:output.obj
 0001:0000bfb0       ??$_tcstol_internal@_WPEAPEA_W$0A@@@YAJAEAV__crt_cached_ptd_host@@QEB_WQEAPEA_WH@Z 000000014000cfb0 f i libucrtd:output.obj
 0001:0000ddb0       ??$count@D@formatting_buffer@__crt_stdio_output@@QEBA_KXZ 000000014000edb0 f i libucrtd:output.obj
 0001:0000de00       ??$count@_W@formatting_buffer@__crt_stdio_output@@QEBA_KXZ 000000014000ee00 f i libucrtd:output.obj
 0001:0000de50       ??$data@D@formatting_buffer@__crt_stdio_output@@QEAAPEADXZ 000000014000ee50 f i libucrtd:output.obj
 0001:0000de50       ??$data@_W@formatting_buffer@__crt_stdio_output@@QEAAPEA_WXZ 000000014000ee50 f i libucrtd:output.obj
 0001:0000dea0       ??$ensure_buffer_is_big_enough@D@formatting_buffer@__crt_stdio_output@@QEAA_N_KAEAV__crt_cached_ptd_host@@@Z 000000014000eea0 f i libucrtd:output.obj
 0001:0000dfe0       ??$ensure_buffer_is_big_enough@_W@formatting_buffer@__crt_stdio_output@@QEAA_N_KAEAV__crt_cached_ptd_host@@@Z 000000014000efe0 f i libucrtd:output.obj
 0001:0000e120       ??$extract_argument_from_va_list@C_J@?$standard_base@DV?$stream_output_adapter@D@__crt_stdio_output@@@__crt_stdio_output@@IEAA_NAEA_J@Z 000000014000f120 f i libucrtd:output.obj
 0001:0000e120       ??$extract_argument_from_va_list@C_J@?$standard_base@DV?$string_output_adapter@D@__crt_stdio_output@@@__crt_stdio_output@@IEAA_NAEA_J@Z 000000014000f120 f i libucrtd:output.obj
 0001:0000e120       ??$extract_argument_from_va_list@C_J@?$standard_base@_WV?$string_output_adapter@_W@__crt_stdio_output@@@__crt_stdio_output@@IEAA_NAEA_J@Z 000000014000f120 f i libucrtd:output.obj
 0001:0000e160       ??$extract_argument_from_va_list@E_J@?$standard_base@DV?$stream_output_adapter@D@__crt_stdio_output@@@__crt_stdio_output@@IEAA_NAEA_J@Z 000000014000f160 f i libucrtd:output.obj
 0001:0000e160       ??$extract_argument_from_va_list@E_J@?$standard_base@DV?$string_output_adapter@D@__crt_stdio_output@@@__crt_stdio_output@@IEAA_NAEA_J@Z 000000014000f160 f i libucrtd:output.obj
 0001:0000e160       ??$extract_argument_from_va_list@E_J@?$standard_base@_WV?$string_output_adapter@_W@__crt_stdio_output@@@__crt_stdio_output@@IEAA_NAEA_J@Z 000000014000f160 f i libucrtd:output.obj
 0001:0000e1a0       ??$extract_argument_from_va_list@F_J@?$standard_base@DV?$stream_output_adapter@D@__crt_stdio_output@@@__crt_stdio_output@@IEAA_NAEA_J@Z 000000014000f1a0 f i libucrtd:output.obj
 0001:0000e1a0       ??$extract_argument_from_va_list@F_J@?$standard_base@DV?$string_output_adapter@D@__crt_stdio_output@@@__crt_stdio_output@@IEAA_NAEA_J@Z 000000014000f1a0 f i libucrtd:output.obj
 0001:0000e1a0       ??$extract_argument_from_va_list@F_J@?$standard_base@_WV?$string_output_adapter@_W@__crt_stdio_output@@@__crt_stdio_output@@IEAA_NAEA_J@Z 000000014000f1a0 f i libucrtd:output.obj
 0001:0000e1e0       ??$extract_argument_from_va_list@GD@?$standard_base@DV?$stream_output_adapter@D@__crt_stdio_output@@@__crt_stdio_output@@IEAA_NAEAD@Z 000000014000f1e0 f i libucrtd:output.obj
 0001:0000e1e0       ??$extract_argument_from_va_list@GD@?$standard_base@DV?$string_output_adapter@D@__crt_stdio_output@@@__crt_stdio_output@@IEAA_NAEAD@Z 000000014000f1e0 f i libucrtd:output.obj
 0001:0000e210       ??$extract_argument_from_va_list@G_J@?$standard_base@DV?$stream_output_adapter@D@__crt_stdio_output@@@__crt_stdio_output@@IEAA_NAEA_J@Z 000000014000f210 f i libucrtd:output.obj
 0001:0000e210       ??$extract_argument_from_va_list@G_J@?$standard_base@DV?$string_output_adapter@D@__crt_stdio_output@@@__crt_stdio_output@@IEAA_NAEA_J@Z 000000014000f210 f i libucrtd:output.obj
 0001:0000e210       ??$extract_argument_from_va_list@G_J@?$standard_base@_WV?$string_output_adapter@_W@__crt_stdio_output@@@__crt_stdio_output@@IEAA_NAEA_J@Z 000000014000f210 f i libucrtd:output.obj
 0001:0000e250       ??$extract_argument_from_va_list@H_J@?$standard_base@DV?$stream_output_adapter@D@__crt_stdio_output@@@__crt_stdio_output@@IEAA_NAEA_J@Z 000000014000f250 f i libucrtd:output.obj
 0001:0000e250       ??$extract_argument_from_va_list@H_J@?$standard_base@DV?$string_output_adapter@D@__crt_stdio_output@@@__crt_stdio_output@@IEAA_NAEA_J@Z 000000014000f250 f i libucrtd:output.obj
 0001:0000e250       ??$extract_argument_from_va_list@H_J@?$standard_base@_WV?$string_output_adapter@_W@__crt_stdio_output@@@__crt_stdio_output@@IEAA_NAEA_J@Z 000000014000f250 f i libucrtd:output.obj
 0001:0000e280       ??$extract_argument_from_va_list@I_J@?$standard_base@DV?$stream_output_adapter@D@__crt_stdio_output@@@__crt_stdio_output@@IEAA_NAEA_J@Z 000000014000f280 f i libucrtd:output.obj
 0001:0000e280       ??$extract_argument_from_va_list@I_J@?$standard_base@DV?$string_output_adapter@D@__crt_stdio_output@@@__crt_stdio_output@@IEAA_NAEA_J@Z 000000014000f280 f i libucrtd:output.obj
 0001:0000e280       ??$extract_argument_from_va_list@I_J@?$standard_base@_WV?$string_output_adapter@_W@__crt_stdio_output@@@__crt_stdio_output@@IEAA_NAEA_J@Z 000000014000f280 f i libucrtd:output.obj
 0001:0000e2b0       ??$extract_argument_from_va_list@PEADPEAD@?$standard_base@DV?$stream_output_adapter@D@__crt_stdio_output@@@__crt_stdio_output@@IEAA_NAEAPEAD@Z 000000014000f2b0 f i libucrtd:output.obj
 0001:0000e2b0       ??$extract_argument_from_va_list@PEADPEAD@?$standard_base@DV?$string_output_adapter@D@__crt_stdio_output@@@__crt_stdio_output@@IEAA_NAEAPEAD@Z 000000014000f2b0 f i libucrtd:output.obj
 0001:0000e2b0       ??$extract_argument_from_va_list@PEADPEAD@?$standard_base@_WV?$string_output_adapter@_W@__crt_stdio_output@@@__crt_stdio_output@@IEAA_NAEAPEAD@Z 000000014000f2b0 f i libucrtd:output.obj
 0001:0000e2b0       ??$extract_argument_from_va_list@PEAUansi_string@?1??type_case_Z@?$output_processor@DV?$stream_output_adapter@D@__crt_stdio_output@@V?$standard_base@DV?$stream_output_adapter@D@__crt_stdio_output@@@2@@__crt_stdio_output@@AEAA_NXZ@PEAU1?1??234@AEAA_NXZ@@?$standard_base@DV?$stream_output_adapter@D@__crt_stdio_output@@@__crt_stdio_output@@IEAA_NAEAPEAUansi_string@?1??type_case_Z@?$output_processor@DV?$stream_output_adapter@D@__crt_stdio_output@@V?$standard_base@DV?$stream_output_adapter@D@__crt_stdio_output@@@2@@1@AEAA_NXZ@@Z 000000014000f2b0 f i libucrtd:output.obj
 0001:0000e2b0       ??$extract_argument_from_va_list@PEAUansi_string@?1??type_case_Z@?$output_processor@DV?$string_output_adapter@D@__crt_stdio_output@@V?$format_validation_base@DV?$string_output_adapter@D@__crt_stdio_output@@@2@@__crt_stdio_output@@AEAA_NXZ@PEAU1?1??234@AEAA_NXZ@@?$standard_base@DV?$string_output_adapter@D@__crt_stdio_output@@@__crt_stdio_output@@IEAA_NAEAPEAUansi_string@?1??type_case_Z@?$output_processor@DV?$string_output_adapter@D@__crt_stdio_output@@V?$format_validation_base@DV?$string_output_adapter@D@__crt_stdio_output@@@2@@1@AEAA_NXZ@@Z 000000014000f2b0 f i libucrtd:output.obj
 0001:0000e2b0       ??$extract_argument_from_va_list@PEAUansi_string@?1??type_case_Z@?$output_processor@_WV?$string_output_adapter@_W@__crt_stdio_output@@V?$format_validation_base@_WV?$string_output_adapter@_W@__crt_stdio_output@@@2@@__crt_stdio_output@@AEAA_NXZ@PEAU1?1??234@AEAA_NXZ@@?$standard_base@_WV?$string_output_adapter@_W@__crt_stdio_output@@@__crt_stdio_output@@IEAA_NAEAPEAUansi_string@?1??type_case_Z@?$output_processor@_WV?$string_output_adapter@_W@__crt_stdio_output@@V?$format_validation_base@_WV?$string_output_adapter@_W@__crt_stdio_output@@@2@@1@AEAA_NXZ@@Z 000000014000f2b0 f i libucrtd:output.obj
 0001:0000e2b0       ??$extract_argument_from_va_list@PEAXPEAX@?$standard_base@DV?$stream_output_adapter@D@__crt_stdio_output@@@__crt_stdio_output@@IEAA_NAEAPEAX@Z 000000014000f2b0 f i libucrtd:output.obj
 0001:0000e2b0       ??$extract_argument_from_va_list@PEAXPEAX@?$standard_base@DV?$string_output_adapter@D@__crt_stdio_output@@@__crt_stdio_output@@IEAA_NAEAPEAX@Z 000000014000f2b0 f i libucrtd:output.obj
 0001:0000e2b0       ??$extract_argument_from_va_list@PEAXPEAX@?$standard_base@_WV?$string_output_adapter@_W@__crt_stdio_output@@@__crt_stdio_output@@IEAA_NAEAPEAX@Z 000000014000f2b0 f i libucrtd:output.obj
 0001:0000e2b0       ??$extract_argument_from_va_list@_J_J@?$standard_base@DV?$stream_output_adapter@D@__crt_stdio_output@@@__crt_stdio_output@@IEAA_NAEA_J@Z 000000014000f2b0 f i libucrtd:output.obj
 0001:0000e2b0       ??$extract_argument_from_va_list@_J_J@?$standard_base@DV?$string_output_adapter@D@__crt_stdio_output@@@__crt_stdio_output@@IEAA_NAEA_J@Z 000000014000f2b0 f i libucrtd:output.obj
 0001:0000e2b0       ??$extract_argument_from_va_list@_J_J@?$standard_base@_WV?$string_output_adapter@_W@__crt_stdio_output@@@__crt_stdio_output@@IEAA_NAEA_J@Z 000000014000f2b0 f i libucrtd:output.obj
 0001:0000e2b0       ??$extract_argument_from_va_list@_K_J@?$standard_base@DV?$stream_output_adapter@D@__crt_stdio_output@@@__crt_stdio_output@@IEAA_NAEA_J@Z 000000014000f2b0 f i libucrtd:output.obj
 0001:0000e2b0       ??$extract_argument_from_va_list@_K_J@?$standard_base@DV?$string_output_adapter@D@__crt_stdio_output@@@__crt_stdio_output@@IEAA_NAEA_J@Z 000000014000f2b0 f i libucrtd:output.obj
 0001:0000e2b0       ??$extract_argument_from_va_list@_K_J@?$standard_base@_WV?$string_output_adapter@_W@__crt_stdio_output@@@__crt_stdio_output@@IEAA_NAEA_J@Z 000000014000f2b0 f i libucrtd:output.obj
 0001:0000e2e0       ??$extract_argument_from_va_list@U_CRT_DOUBLE@@U1@@?$standard_base@DV?$stream_output_adapter@D@__crt_stdio_output@@@__crt_stdio_output@@IEAA_NAEAU_CRT_DOUBLE@@@Z 000000014000f2e0 f i libucrtd:output.obj
 0001:0000e2e0       ??$extract_argument_from_va_list@U_CRT_DOUBLE@@U1@@?$standard_base@DV?$string_output_adapter@D@__crt_stdio_output@@@__crt_stdio_output@@IEAA_NAEAU_CRT_DOUBLE@@@Z 000000014000f2e0 f i libucrtd:output.obj
 0001:0000e2e0       ??$extract_argument_from_va_list@U_CRT_DOUBLE@@U1@@?$standard_base@_WV?$string_output_adapter@_W@__crt_stdio_output@@@__crt_stdio_output@@IEAA_NAEAU_CRT_DOUBLE@@@Z 000000014000f2e0 f i libucrtd:output.obj
 0001:0000e330       ??$extract_argument_from_va_list@_W_W@?$standard_base@DV?$stream_output_adapter@D@__crt_stdio_output@@@__crt_stdio_output@@IEAA_NAEA_W@Z 000000014000f330 f i libucrtd:output.obj
 0001:0000e330       ??$extract_argument_from_va_list@_W_W@?$standard_base@DV?$string_output_adapter@D@__crt_stdio_output@@@__crt_stdio_output@@IEAA_NAEA_W@Z 000000014000f330 f i libucrtd:output.obj
 0001:0000e330       ??$extract_argument_from_va_list@_W_W@?$standard_base@_WV?$string_output_adapter@_W@__crt_stdio_output@@@__crt_stdio_output@@IEAA_NAEA_W@Z 000000014000f330 f i libucrtd:output.obj
 0001:0000e360       ??$is_overflow_condition@K@__crt_strtox@@YA_NIK@Z 000000014000f360 f i libucrtd:output.obj
 0001:0000e3d0       ??$is_wide_character_specifier@D@__crt_stdio_output@@YA_N_KDW4length_modifier@0@@Z 000000014000f3d0 f i libucrtd:output.obj
 0001:0000e470       ??$is_wide_character_specifier@_W@__crt_stdio_output@@YA_N_K_WW4length_modifier@0@@Z 000000014000f470 f i libucrtd:output.obj
 0001:0000e540       ??$make_c_string_character_source@DPEAPEAD@__crt_strtox@@YA?AV?$c_string_character_source@D@0@QEBDQEAPEAD@Z 000000014000f540 f i libucrtd:output.obj
 0001:0000e540       ??$make_c_string_character_source@_WPEAPEA_W@__crt_strtox@@YA?AV?$c_string_character_source@_W@0@QEB_WQEAPEA_W@Z 000000014000f540 f i libucrtd:output.obj
 0001:0000e580       ??$parse_integer@KV?$c_string_character_source@D@__crt_strtox@@$0A@@__crt_strtox@@YAKAEAV__crt_cached_ptd_host@@V?$c_string_character_source@D@0@H_N@Z 000000014000f580 f i libucrtd:output.obj
 0001:0000ea00       ??$parse_integer@KV?$c_string_character_source@_W@__crt_strtox@@$0A@@__crt_strtox@@YAKAEAV__crt_cached_ptd_host@@V?$c_string_character_source@_W@0@H_N@Z 000000014000fa00 f i libucrtd:output.obj
 0001:0000ee80       ??$puttc_nolock_internal@AEBDPEAU_iobuf@@AEAV__crt_cached_ptd_host@@@?$__crt_char_traits@D@@SAHAEBD$$QEAPEAU_iobuf@@AEAV__crt_cached_ptd_host@@@Z 000000014000fe80 f i libucrtd:output.obj
 0001:0000eec0       ??$read_va_arg@C@__crt_stdio_output@@YACAEAPEAD@Z 000000014000fec0 f i libucrtd:output.obj
 0001:0000eec0       ??$read_va_arg@E@__crt_stdio_output@@YAEAEAPEAD@Z 000000014000fec0 f i libucrtd:output.obj
 0001:0000ef30       ??$read_va_arg@F@__crt_stdio_output@@YAFAEAPEAD@Z 000000014000ff30 f i libucrtd:output.obj
 0001:0000ef30       ??$read_va_arg@G@__crt_stdio_output@@YAGAEAPEAD@Z 000000014000ff30 f i libucrtd:output.obj
 0001:0000ef30       ??$read_va_arg@_W@__crt_stdio_output@@YA_WAEAPEAD@Z 000000014000ff30 f i libucrtd:output.obj
 0001:0000efa0       ??$read_va_arg@H@__crt_stdio_output@@YAHAEAPEAD@Z 000000014000ffa0 f i libucrtd:output.obj
 0001:0000efa0       ??$read_va_arg@I@__crt_stdio_output@@YAIAEAPEAD@Z 000000014000ffa0 f i libucrtd:output.obj
 0001:0000f000       ??$read_va_arg@PEAD@__crt_stdio_output@@YAPEADAEAPEAD@Z 0000000140010000 f i libucrtd:output.obj
 0001:0000f000       ??$read_va_arg@PEAUansi_string@?1??type_case_Z@?$output_processor@DV?$stream_output_adapter@D@__crt_stdio_output@@V?$standard_base@DV?$stream_output_adapter@D@__crt_stdio_output@@@2@@__crt_stdio_output@@AEAA_NXZ@@__crt_stdio_output@@YAPEAUansi_string@?1??type_case_Z@?$output_processor@DV?$stream_output_adapter@D@__crt_stdio_output@@V?$standard_base@DV?$stream_output_adapter@D@__crt_stdio_output@@@2@@0@AEAA_NXZ@AEAPEAD@Z 0000000140010000 f i libucrtd:output.obj
 0001:0000f000       ??$read_va_arg@PEAUansi_string@?1??type_case_Z@?$output_processor@DV?$string_output_adapter@D@__crt_stdio_output@@V?$format_validation_base@DV?$string_output_adapter@D@__crt_stdio_output@@@2@@__crt_stdio_output@@AEAA_NXZ@@__crt_stdio_output@@YAPEAUansi_string@?1??type_case_Z@?$output_processor@DV?$string_output_adapter@D@__crt_stdio_output@@V?$format_validation_base@DV?$string_output_adapter@D@__crt_stdio_output@@@2@@0@AEAA_NXZ@AEAPEAD@Z 0000000140010000 f i libucrtd:output.obj
 0001:0000f000       ??$read_va_arg@PEAUansi_string@?1??type_case_Z@?$output_processor@_WV?$string_output_adapter@_W@__crt_stdio_output@@V?$format_validation_base@_WV?$string_output_adapter@_W@__crt_stdio_output@@@2@@__crt_stdio_output@@AEAA_NXZ@@__crt_stdio_output@@YAPEAUansi_string@?1??type_case_Z@?$output_processor@_WV?$string_output_adapter@_W@__crt_stdio_output@@V?$format_validation_base@_WV?$string_output_adapter@_W@__crt_stdio_output@@@2@@0@AEAA_NXZ@AEAPEAD@Z 0000000140010000 f i libucrtd:output.obj
 0001:0000f000       ??$read_va_arg@PEAX@__crt_stdio_output@@YAPEAXAEAPEAD@Z 0000000140010000 f i libucrtd:output.obj
 0001:0000f000       ??$read_va_arg@U_CRT_DOUBLE@@@__crt_stdio_output@@YA?AU_CRT_DOUBLE@@AEAPEAD@Z 0000000140010000 f i libucrtd:output.obj
 0001:0000f000       ??$read_va_arg@_J@__crt_stdio_output@@YA_JAEAPEAD@Z 0000000140010000 f i libucrtd:output.obj
 0001:0000f000       ??$read_va_arg@_K@__crt_stdio_output@@YA_KAEAPEAD@Z 0000000140010000 f i libucrtd:output.obj
 0001:0000f070       ??$scratch_count@D@formatting_buffer@__crt_stdio_output@@QEBA_KXZ 0000000140010070 f i libucrtd:output.obj
 0001:0000f090       ??$scratch_data@D@formatting_buffer@__crt_stdio_output@@QEAAPEADXZ 0000000140010090 f i libucrtd:output.obj
 0001:0000f100       ??$type_case_integer@$07@?$output_processor@DV?$stream_output_adapter@D@__crt_stdio_output@@V?$standard_base@DV?$stream_output_adapter@D@__crt_stdio_output@@@2@@__crt_stdio_output@@AEAA_N_N@Z 0000000140010100 f i libucrtd:output.obj
 0001:0000f580       ??$type_case_integer@$07@?$output_processor@DV?$string_output_adapter@D@__crt_stdio_output@@V?$format_validation_base@DV?$string_output_adapter@D@__crt_stdio_output@@@2@@__crt_stdio_output@@AEAA_N_N@Z 0000000140010580 f i libucrtd:output.obj
 0001:0000fa00       ??$type_case_integer@$07@?$output_processor@_WV?$string_output_adapter@_W@__crt_stdio_output@@V?$format_validation_base@_WV?$string_output_adapter@_W@__crt_stdio_output@@@2@@__crt_stdio_output@@AEAA_N_N@Z 0000000140010a00 f i libucrtd:output.obj
 0001:0000fe80       ??$type_case_integer@$09@?$output_processor@DV?$stream_output_adapter@D@__crt_stdio_output@@V?$standard_base@DV?$stream_output_adapter@D@__crt_stdio_output@@@2@@__crt_stdio_output@@AEAA_N_N@Z 0000000140010e80 f i libucrtd:output.obj
 0001:00010300       ??$type_case_integer@$09@?$output_processor@DV?$string_output_adapter@D@__crt_stdio_output@@V?$format_validation_base@DV?$string_output_adapter@D@__crt_stdio_output@@@2@@__crt_stdio_output@@AEAA_N_N@Z 0000000140011300 f i libucrtd:output.obj
 0001:00010780       ??$type_case_integer@$09@?$output_processor@_WV?$string_output_adapter@_W@__crt_stdio_output@@V?$format_validation_base@_WV?$string_output_adapter@_W@__crt_stdio_output@@@2@@__crt_stdio_output@@AEAA_N_N@Z 0000000140011780 f i libucrtd:output.obj
 0001:00010c00       ??$type_case_integer@$0BA@@?$output_processor@DV?$stream_output_adapter@D@__crt_stdio_output@@V?$standard_base@DV?$stream_output_adapter@D@__crt_stdio_output@@@2@@__crt_stdio_output@@AEAA_N_N@Z 0000000140011c00 f i libucrtd:output.obj
 0001:00011080       ??$type_case_integer@$0BA@@?$output_processor@DV?$string_output_adapter@D@__crt_stdio_output@@V?$format_validation_base@DV?$string_output_adapter@D@__crt_stdio_output@@@2@@__crt_stdio_output@@AEAA_N_N@Z 0000000140012080 f i libucrtd:output.obj
 0001:00011500       ??$type_case_integer@$0BA@@?$output_processor@_WV?$string_output_adapter@_W@__crt_stdio_output@@V?$format_validation_base@_WV?$string_output_adapter@_W@__crt_stdio_output@@@2@@__crt_stdio_output@@AEAA_N_N@Z 0000000140012500 f i libucrtd:output.obj
 0001:00011980       ??$type_case_integer_parse_into_buffer@I$07@?$output_processor@DV?$stream_output_adapter@D@__crt_stdio_output@@V?$standard_base@DV?$stream_output_adapter@D@__crt_stdio_output@@@2@@__crt_stdio_output@@AEAAXI_N@Z 0000000140012980 f i libucrtd:output.obj
 0001:00011980       ??$type_case_integer_parse_into_buffer@I$07@?$output_processor@DV?$string_output_adapter@D@__crt_stdio_output@@V?$format_validation_base@DV?$string_output_adapter@D@__crt_stdio_output@@@2@@__crt_stdio_output@@AEAAXI_N@Z 0000000140012980 f i libucrtd:output.obj
 0001:00011ab0       ??$type_case_integer_parse_into_buffer@I$07@?$output_processor@_WV?$string_output_adapter@_W@__crt_stdio_output@@V?$format_validation_base@_WV?$string_output_adapter@_W@__crt_stdio_output@@@2@@__crt_stdio_output@@AEAAXI_N@Z 0000000140012ab0 f i libucrtd:output.obj
 0001:00011bf0       ??$type_case_integer_parse_into_buffer@I$09@?$output_processor@DV?$stream_output_adapter@D@__crt_stdio_output@@V?$standard_base@DV?$stream_output_adapter@D@__crt_stdio_output@@@2@@__crt_stdio_output@@AEAAXI_N@Z 0000000140012bf0 f i libucrtd:output.obj
 0001:00011bf0       ??$type_case_integer_parse_into_buffer@I$09@?$output_processor@DV?$string_output_adapter@D@__crt_stdio_output@@V?$format_validation_base@DV?$string_output_adapter@D@__crt_stdio_output@@@2@@__crt_stdio_output@@AEAAXI_N@Z 0000000140012bf0 f i libucrtd:output.obj
 0001:00011d20       ??$type_case_integer_parse_into_buffer@I$09@?$output_processor@_WV?$string_output_adapter@_W@__crt_stdio_output@@V?$format_validation_base@_WV?$string_output_adapter@_W@__crt_stdio_output@@@2@@__crt_stdio_output@@AEAAXI_N@Z 0000000140012d20 f i libucrtd:output.obj
 0001:00011e60       ??$type_case_integer_parse_into_buffer@I$0BA@@?$output_processor@DV?$stream_output_adapter@D@__crt_stdio_output@@V?$standard_base@DV?$stream_output_adapter@D@__crt_stdio_output@@@2@@__crt_stdio_output@@AEAAXI_N@Z 0000000140012e60 f i libucrtd:output.obj
 0001:00011e60       ??$type_case_integer_parse_into_buffer@I$0BA@@?$output_processor@DV?$string_output_adapter@D@__crt_stdio_output@@V?$format_validation_base@DV?$string_output_adapter@D@__crt_stdio_output@@@2@@__crt_stdio_output@@AEAAXI_N@Z 0000000140012e60 f i libucrtd:output.obj
 0001:00011f90       ??$type_case_integer_parse_into_buffer@I$0BA@@?$output_processor@_WV?$string_output_adapter@_W@__crt_stdio_output@@V?$format_validation_base@_WV?$string_output_adapter@_W@__crt_stdio_output@@@2@@__crt_stdio_output@@AEAAXI_N@Z 0000000140012f90 f i libucrtd:output.obj
 0001:000120d0       ??$type_case_integer_parse_into_buffer@_K$07@?$output_processor@DV?$stream_output_adapter@D@__crt_stdio_output@@V?$standard_base@DV?$stream_output_adapter@D@__crt_stdio_output@@@2@@__crt_stdio_output@@AEAAX_K_N@Z 00000001400130d0 f i libucrtd:output.obj
 0001:000120d0       ??$type_case_integer_parse_into_buffer@_K$07@?$output_processor@DV?$string_output_adapter@D@__crt_stdio_output@@V?$format_validation_base@DV?$string_output_adapter@D@__crt_stdio_output@@@2@@__crt_stdio_output@@AEAAX_K_N@Z 00000001400130d0 f i libucrtd:output.obj
 0001:00012210       ??$type_case_integer_parse_into_buffer@_K$07@?$output_processor@_WV?$string_output_adapter@_W@__crt_stdio_output@@V?$format_validation_base@_WV?$string_output_adapter@_W@__crt_stdio_output@@@2@@__crt_stdio_output@@AEAAX_K_N@Z 0000000140013210 f i libucrtd:output.obj
 0001:00012350       ??$type_case_integer_parse_into_buffer@_K$09@?$output_processor@DV?$stream_output_adapter@D@__crt_stdio_output@@V?$standard_base@DV?$stream_output_adapter@D@__crt_stdio_output@@@2@@__crt_stdio_output@@AEAAX_K_N@Z 0000000140013350 f i libucrtd:output.obj
 0001:00012350       ??$type_case_integer_parse_into_buffer@_K$09@?$output_processor@DV?$string_output_adapter@D@__crt_stdio_output@@V?$format_validation_base@DV?$string_output_adapter@D@__crt_stdio_output@@@2@@__crt_stdio_output@@AEAAX_K_N@Z 0000000140013350 f i libucrtd:output.obj
 0001:00012490       ??$type_case_integer_parse_into_buffer@_K$09@?$output_processor@_WV?$string_output_adapter@_W@__crt_stdio_output@@V?$format_validation_base@_WV?$string_output_adapter@_W@__crt_stdio_output@@@2@@__crt_stdio_output@@AEAAX_K_N@Z 0000000140013490 f i libucrtd:output.obj
 0001:000125d0       ??$type_case_integer_parse_into_buffer@_K$0BA@@?$output_processor@DV?$stream_output_adapter@D@__crt_stdio_output@@V?$standard_base@DV?$stream_output_adapter@D@__crt_stdio_output@@@2@@__crt_stdio_output@@AEAAX_K_N@Z 00000001400135d0 f i libucrtd:output.obj
 0001:000125d0       ??$type_case_integer_parse_into_buffer@_K$0BA@@?$output_processor@DV?$string_output_adapter@D@__crt_stdio_output@@V?$format_validation_base@DV?$string_output_adapter@D@__crt_stdio_output@@@2@@__crt_stdio_output@@AEAAX_K_N@Z 00000001400135d0 f i libucrtd:output.obj
 0001:00012710       ??$type_case_integer_parse_into_buffer@_K$0BA@@?$output_processor@_WV?$string_output_adapter@_W@__crt_stdio_output@@V?$format_validation_base@_WV?$string_output_adapter@_W@__crt_stdio_output@@@2@@__crt_stdio_output@@AEAAX_K_N@Z 0000000140013710 f i libucrtd:output.obj
 0001:00012850       ??$write_multiple_characters@V?$stream_output_adapter@D@__crt_stdio_output@@D@__crt_stdio_output@@YAXAEBV?$stream_output_adapter@D@0@DHQEAHAEAV__crt_cached_ptd_host@@@Z 0000000140013850 f i libucrtd:output.obj
 0001:000128c0       ??$write_multiple_characters@V?$string_output_adapter@D@__crt_stdio_output@@D@__crt_stdio_output@@YAXAEBV?$string_output_adapter@D@0@DHQEAHAEAV__crt_cached_ptd_host@@@Z 00000001400138c0 f i libucrtd:output.obj
 0001:00012930       ??$write_multiple_characters@V?$string_output_adapter@_W@__crt_stdio_output@@D@__crt_stdio_output@@YAXAEBV?$string_output_adapter@_W@0@DHQEAHAEAV__crt_cached_ptd_host@@@Z 0000000140013930 f i libucrtd:output.obj
 0001:000129a0       ??0?$c_string_character_source@D@__crt_strtox@@QEAA@QEBDQEAPEBD@Z 00000001400139a0 f i libucrtd:output.obj
 0001:000129a0       ??0?$c_string_character_source@_W@__crt_strtox@@QEAA@QEB_WQEAPEB_W@Z 00000001400139a0 f i libucrtd:output.obj
 0001:000129f0       ??0?$common_data@D@__crt_stdio_output@@IEAA@AEAV__crt_cached_ptd_host@@@Z 00000001400139f0 f i libucrtd:output.obj
 0001:00012ab0       ??0?$common_data@_W@__crt_stdio_output@@IEAA@AEAV__crt_cached_ptd_host@@@Z 0000000140013ab0 f i libucrtd:output.obj
 0001:00012b70       ??0?$output_adapter_data@DV?$stream_output_adapter@D@__crt_stdio_output@@@__crt_stdio_output@@IEAA@AEBV?$stream_output_adapter@D@1@_KQEBDAEAV__crt_cached_ptd_host@@QEAD@Z 0000000140013b70 f i libucrtd:output.obj
 0001:00012b70       ??0?$output_adapter_data@DV?$string_output_adapter@D@__crt_stdio_output@@@__crt_stdio_output@@IEAA@AEBV?$string_output_adapter@D@1@_KQEBDAEAV__crt_cached_ptd_host@@QEAD@Z 0000000140013b70 f i libucrtd:output.obj
 0001:00012bf0       ??0?$output_adapter_data@_WV?$string_output_adapter@_W@__crt_stdio_output@@@__crt_stdio_output@@IEAA@AEBV?$string_output_adapter@_W@1@_KQEB_WAEAV__crt_cached_ptd_host@@QEAD@Z 0000000140013bf0 f i libucrtd:output.obj
 0001:00012c70       ??0?$output_processor@DV?$stream_output_adapter@D@__crt_stdio_output@@V?$standard_base@DV?$stream_output_adapter@D@__crt_stdio_output@@@2@@__crt_stdio_output@@QEAA@AEBV?$stream_output_adapter@D@1@_KQEBDAEAV__crt_cached_ptd_host@@QEAD@Z 0000000140013c70 f i libucrtd:output.obj
 0001:00012cc0       ??0?$output_processor@DV?$string_output_adapter@D@__crt_stdio_output@@V?$format_validation_base@DV?$string_output_adapter@D@__crt_stdio_output@@@2@@__crt_stdio_output@@QEAA@AEBV?$string_output_adapter@D@1@_KQEBDAEAV__crt_cached_ptd_host@@QEAD@Z 0000000140013cc0 f i libucrtd:output.obj
 0001:00012d10       ??0?$output_processor@_WV?$string_output_adapter@_W@__crt_stdio_output@@V?$format_validation_base@_WV?$string_output_adapter@_W@__crt_stdio_output@@@2@@__crt_stdio_output@@QEAA@AEBV?$string_output_adapter@_W@1@_KQEB_WAEAV__crt_cached_ptd_host@@QEAD@Z 0000000140013d10 f i libucrtd:output.obj
 0001:00012d60       ??0?$stream_output_adapter@D@__crt_stdio_output@@QEAA@QEAU_iobuf@@@Z 0000000140013d60 f i libucrtd:output.obj
 0001:00012da0       ??0formatting_buffer@__crt_stdio_output@@QEAA@XZ 0000000140013da0 f i libucrtd:output.obj
 0001:00012de0       ??0guard@?$cached@H@__crt_cached_ptd_host@@QEAA@AEAU12@@Z 0000000140013de0 f i libucrtd:output.obj
 0001:00012e20       ??1?$c_string_character_source@D@__crt_strtox@@QEAA@XZ 0000000140013e20 f i libucrtd:output.obj
 0001:00012e20       ??1?$c_string_character_source@_W@__crt_strtox@@QEAA@XZ 0000000140013e20 f i libucrtd:output.obj
 0001:00012e50       ??1?$common_data@D@__crt_stdio_output@@QEAA@XZ 0000000140013e50 f i libucrtd:output.obj
 0001:00012e50       ??1?$common_data@_W@__crt_stdio_output@@QEAA@XZ 0000000140013e50 f i libucrtd:output.obj
 0001:00012e70       ??1?$format_validation_base@DV?$string_output_adapter@D@__crt_stdio_output@@@__crt_stdio_output@@QEAA@XZ 0000000140013e70 f i libucrtd:output.obj
 0001:00012e70       ??1?$format_validation_base@_WV?$string_output_adapter@_W@__crt_stdio_output@@@__crt_stdio_output@@QEAA@XZ 0000000140013e70 f i libucrtd:output.obj
 0001:00012e70       ??1?$output_processor@DV?$stream_output_adapter@D@__crt_stdio_output@@V?$standard_base@DV?$stream_output_adapter@D@__crt_stdio_output@@@2@@__crt_stdio_output@@QEAA@XZ 0000000140013e70 f i libucrtd:output.obj
 0001:00012e90       ??1?$output_adapter_data@DV?$stream_output_adapter@D@__crt_stdio_output@@@__crt_stdio_output@@QEAA@XZ 0000000140013e90 f i libucrtd:output.obj
 0001:00012e90       ??1?$output_adapter_data@DV?$string_output_adapter@D@__crt_stdio_output@@@__crt_stdio_output@@QEAA@XZ 0000000140013e90 f i libucrtd:output.obj
 0001:00012e90       ??1?$output_adapter_data@_WV?$string_output_adapter@_W@__crt_stdio_output@@@__crt_stdio_output@@QEAA@XZ 0000000140013e90 f i libucrtd:output.obj
 0001:00012eb0       ??1?$output_processor@DV?$string_output_adapter@D@__crt_stdio_output@@V?$format_validation_base@DV?$string_output_adapter@D@__crt_stdio_output@@@2@@__crt_stdio_output@@QEAA@XZ 0000000140013eb0 f i libucrtd:output.obj
 0001:00012eb0       ??1?$output_processor@_WV?$string_output_adapter@_W@__crt_stdio_output@@V?$format_validation_base@_WV?$string_output_adapter@_W@__crt_stdio_output@@@2@@__crt_stdio_output@@QEAA@XZ 0000000140013eb0 f i libucrtd:output.obj
 0001:00012ed0       ??1?$standard_base@DV?$stream_output_adapter@D@__crt_stdio_output@@@__crt_stdio_output@@QEAA@XZ 0000000140013ed0 f i libucrtd:output.obj
 0001:00012ed0       ??1?$standard_base@DV?$string_output_adapter@D@__crt_stdio_output@@@__crt_stdio_output@@QEAA@XZ 0000000140013ed0 f i libucrtd:output.obj
 0001:00012ed0       ??1?$standard_base@_WV?$string_output_adapter@_W@__crt_stdio_output@@@__crt_stdio_output@@QEAA@XZ 0000000140013ed0 f i libucrtd:output.obj
 0001:00012ef0       ??1formatting_buffer@__crt_stdio_output@@QEAA@XZ 0000000140013ef0 f i libucrtd:output.obj
 0001:00012f20       ??1guard@?$cached@H@__crt_cached_ptd_host@@QEAA@XZ 0000000140013f20 f i libucrtd:output.obj
 0001:00012f50       ??4?$__crt_unique_heap_ptr@DU__crt_internal_free_policy@@@@QEAAAEAV0@$$QEAV0@@Z 0000000140013f50 f i libucrtd:output.obj
 0001:00012f90       ??A?$spectre_mitigated_lookup_table@Ustate_transition_pair@__crt_stdio_output@@$0IA@@__crt_stdio_output@@QEBAAEBUstate_transition_pair@1@_K@Z 0000000140013f90 f i libucrtd:output.obj
 0001:000130d0       ?adjust_hexit@?$output_processor@DV?$stream_output_adapter@D@__crt_stdio_output@@V?$standard_base@DV?$stream_output_adapter@D@__crt_stdio_output@@@2@@__crt_stdio_output@@CADH_N@Z 00000001400140d0 f i libucrtd:output.obj
 0001:000130d0       ?adjust_hexit@?$output_processor@DV?$string_output_adapter@D@__crt_stdio_output@@V?$format_validation_base@DV?$string_output_adapter@D@__crt_stdio_output@@@2@@__crt_stdio_output@@CADH_N@Z 00000001400140d0 f i libucrtd:output.obj
 0001:000130d0       ?adjust_hexit@?$output_processor@_WV?$string_output_adapter@_W@__crt_stdio_output@@V?$format_validation_base@_WV?$string_output_adapter@_W@__crt_stdio_output@@@2@@__crt_stdio_output@@CADH_N@Z 00000001400140d0 f i libucrtd:output.obj
 0001:00013120       ?advance_to_next_pass@?$standard_base@DV?$stream_output_adapter@D@__crt_stdio_output@@@__crt_stdio_output@@IEAA_NXZ 0000000140014120 f i libucrtd:output.obj
 0001:00013120       ?advance_to_next_pass@?$standard_base@DV?$string_output_adapter@D@__crt_stdio_output@@@__crt_stdio_output@@IEAA_NXZ 0000000140014120 f i libucrtd:output.obj
 0001:00013120       ?advance_to_next_pass@?$standard_base@_WV?$string_output_adapter@_W@__crt_stdio_output@@@__crt_stdio_output@@IEAA_NXZ 0000000140014120 f i libucrtd:output.obj
 0001:00013170       ?check@?$cached@H@__crt_cached_ptd_host@@QEBA_NH@Z 0000000140014170 f i libucrtd:output.obj
 0001:00013170       ?check@?$cached@K@__crt_cached_ptd_host@@QEBA_NK@Z 0000000140014170 f i libucrtd:chsize.obj
 0001:000131b0       ?create_guard@?$cached@H@__crt_cached_ptd_host@@QEAA?AVguard@12@XZ 00000001400141b0 f i libucrtd:output.obj
 0001:000131e0       ?crop_zeroes@__crt_stdio_output@@YAXPEADQEAU__crt_locale_pointers@@@Z 00000001400141e0 f i libucrtd:output.obj
 0001:00013330       ?disable@guard@?$cached@H@__crt_cached_ptd_host@@QEAAXXZ 0000000140014330 f i libucrtd:output.obj
 0001:00013340       ?enable@guard@?$cached@H@__crt_cached_ptd_host@@QEAAXXZ 0000000140014340 f i libucrtd:output.obj
 0001:00013350       ?find_next_state@?$output_processor@DV?$stream_output_adapter@D@__crt_stdio_output@@V?$standard_base@DV?$stream_output_adapter@D@__crt_stdio_output@@@2@@__crt_stdio_output@@AEBA?AW4state@2@DW432@@Z 0000000140014350 f i libucrtd:output.obj
 0001:000133f0       ?find_next_state@?$output_processor@DV?$string_output_adapter@D@__crt_stdio_output@@V?$format_validation_base@DV?$string_output_adapter@D@__crt_stdio_output@@@2@@__crt_stdio_output@@AEBA?AW4state@2@DW432@@Z 00000001400143f0 f i libucrtd:output.obj
 0001:00013490       ?find_next_state@?$output_processor@_WV?$string_output_adapter@_W@__crt_stdio_output@@V?$format_validation_base@_WV?$string_output_adapter@_W@__crt_stdio_output@@@2@@__crt_stdio_output@@AEBA?AW4state@2@_WW432@@Z 0000000140014490 f i libucrtd:output.obj
 0001:00013530       ?force_decimal_point@__crt_stdio_output@@YAXPEADQEAU__crt_locale_pointers@@@Z 0000000140014530 f i libucrtd:output.obj
 0001:00013630       ?get@?$c_string_character_source@D@__crt_strtox@@QEAADXZ 0000000140014630 f i libucrtd:output.obj
 0001:00013670       ?get@?$c_string_character_source@_W@__crt_strtox@@QEAA_WXZ 0000000140014670 f i libucrtd:output.obj
 0001:000136b0       ?get_locale@__crt_cached_ptd_host@@QEAAPEAU__crt_locale_pointers@@XZ 00000001400146b0 f i libucrtd:output.obj
 0001:000136e0       ?has_flag@?$output_processor@DV?$stream_output_adapter@D@__crt_stdio_output@@V?$standard_base@DV?$stream_output_adapter@D@__crt_stdio_output@@@2@@__crt_stdio_output@@AEBA_NI@Z 00000001400146e0 f i libucrtd:output.obj
 0001:000136e0       ?has_flag@?$output_processor@DV?$string_output_adapter@D@__crt_stdio_output@@V?$format_validation_base@DV?$string_output_adapter@D@__crt_stdio_output@@@2@@__crt_stdio_output@@AEBA_NI@Z 00000001400146e0 f i libucrtd:output.obj
 0001:000136e0       ?has_flag@?$output_processor@_WV?$string_output_adapter@_W@__crt_stdio_output@@V?$format_validation_base@_WV?$string_output_adapter@_W@__crt_stdio_output@@@2@@__crt_stdio_output@@AEBA_NI@Z 00000001400146e0 f i libucrtd:output.obj
 0001:00013720       ?maximum_signed_value@__crt_strtox@@YAJK@Z 0000000140014720 f i libucrtd:output.obj
 0001:00013730       ?minimum_signed_value@__crt_strtox@@YAJK@Z 0000000140014730 f i libucrtd:output.obj
 0001:00013740       ?narrow_null_string@?$output_processor@DV?$stream_output_adapter@D@__crt_stdio_output@@V?$standard_base@DV?$stream_output_adapter@D@__crt_stdio_output@@@2@@__crt_stdio_output@@CAPEADXZ 0000000140014740 f i libucrtd:output.obj
 0001:00013740       ?narrow_null_string@?$output_processor@DV?$string_output_adapter@D@__crt_stdio_output@@V?$format_validation_base@DV?$string_output_adapter@D@__crt_stdio_output@@@2@@__crt_stdio_output@@CAPEADXZ 0000000140014740 f i libucrtd:output.obj
 0001:00013740       ?narrow_null_string@?$output_processor@_WV?$string_output_adapter@_W@__crt_stdio_output@@V?$format_validation_base@_WV?$string_output_adapter@_W@__crt_stdio_output@@@2@@__crt_stdio_output@@CAPEADXZ 0000000140014740 f i libucrtd:output.obj
 0001:00013750       ?parse_digit@__crt_strtox@@YAID@Z 0000000140014750 f i libucrtd:output.obj
 0001:000137c0       ?parse_digit@__crt_strtox@@YAI_W@Z 00000001400147c0 f i libucrtd:output.obj
 0001:00013810       ?parse_int_from_format_string@?$output_processor@DV?$stream_output_adapter@D@__crt_stdio_output@@V?$standard_base@DV?$stream_output_adapter@D@__crt_stdio_output@@@2@@__crt_stdio_output@@AEAA_NQEAH@Z 0000000140014810 f i libucrtd:output.obj
 0001:00013810       ?parse_int_from_format_string@?$output_processor@DV?$string_output_adapter@D@__crt_stdio_output@@V?$format_validation_base@DV?$string_output_adapter@D@__crt_stdio_output@@@2@@__crt_stdio_output@@AEAA_NQEAH@Z 0000000140014810 f i libucrtd:output.obj
 0001:00013910       ?parse_int_from_format_string@?$output_processor@_WV?$string_output_adapter@_W@__crt_stdio_output@@V?$format_validation_base@_WV?$string_output_adapter@_W@__crt_stdio_output@@@2@@__crt_stdio_output@@AEAA_NQEAH@Z 0000000140014910 f i libucrtd:output.obj
 0001:00013a10       ?process@?$output_processor@DV?$stream_output_adapter@D@__crt_stdio_output@@V?$standard_base@DV?$stream_output_adapter@D@__crt_stdio_output@@@2@@__crt_stdio_output@@QEAAHXZ 0000000140014a10 f i libucrtd:output.obj
 0001:00013dd0       ?process@?$output_processor@DV?$string_output_adapter@D@__crt_stdio_output@@V?$format_validation_base@DV?$string_output_adapter@D@__crt_stdio_output@@@2@@__crt_stdio_output@@QEAAHXZ 0000000140014dd0 f i libucrtd:output.obj
 0001:00014190       ?process@?$output_processor@_WV?$string_output_adapter@_W@__crt_stdio_output@@V?$format_validation_base@_WV?$string_output_adapter@_W@__crt_stdio_output@@@2@@__crt_stdio_output@@QEAAHXZ 0000000140015190 f i libucrtd:output.obj
 0001:00014550       ?restore_state@?$c_string_character_source@D@__crt_strtox@@QEAA_NQEBD@Z 0000000140015550 f i libucrtd:output.obj
 0001:00014550       ?restore_state@?$c_string_character_source@_W@__crt_strtox@@QEAA_NQEB_W@Z 0000000140015550 f i libucrtd:output.obj
 0001:00014570       ?set_flag@?$output_processor@DV?$stream_output_adapter@D@__crt_stdio_output@@V?$standard_base@DV?$stream_output_adapter@D@__crt_stdio_output@@@2@@__crt_stdio_output@@AEAAXI@Z 0000000140015570 f i libucrtd:output.obj
 0001:00014570       ?set_flag@?$output_processor@DV?$string_output_adapter@D@__crt_stdio_output@@V?$format_validation_base@DV?$string_output_adapter@D@__crt_stdio_output@@@2@@__crt_stdio_output@@AEAAXI@Z 0000000140015570 f i libucrtd:output.obj
 0001:00014570       ?set_flag@?$output_processor@_WV?$string_output_adapter@_W@__crt_stdio_output@@V?$format_validation_base@_WV?$string_output_adapter@_W@__crt_stdio_output@@@2@@__crt_stdio_output@@AEAAXI@Z 0000000140015570 f i libucrtd:output.obj
 0001:00014590       ?should_format@?$standard_base@DV?$stream_output_adapter@D@__crt_stdio_output@@@__crt_stdio_output@@IEAA_NXZ 0000000140015590 f i libucrtd:output.obj
 0001:00014590       ?should_format@?$standard_base@DV?$string_output_adapter@D@__crt_stdio_output@@@__crt_stdio_output@@IEAA_NXZ 0000000140015590 f i libucrtd:output.obj
 0001:00014590       ?should_format@?$standard_base@_WV?$string_output_adapter@_W@__crt_stdio_output@@@__crt_stdio_output@@IEAA_NXZ 0000000140015590 f i libucrtd:output.obj
 0001:00014590       ?validate_and_update_state_at_beginning_of_format_character@?$standard_base@DV?$stream_output_adapter@D@__crt_stdio_output@@@__crt_stdio_output@@IEAA_NXZ 0000000140015590 f i libucrtd:output.obj
 0001:00014590       ?validate_and_update_state_at_beginning_of_format_character@?$standard_base@DV?$string_output_adapter@D@__crt_stdio_output@@@__crt_stdio_output@@IEAA_NXZ 0000000140015590 f i libucrtd:output.obj
 0001:00014590       ?validate_and_update_state_at_beginning_of_format_character@?$standard_base@_WV?$string_output_adapter@_W@__crt_stdio_output@@@__crt_stdio_output@@IEAA_NXZ 0000000140015590 f i libucrtd:output.obj
 0001:00014590       ?validate_and_update_state_at_end_of_format_string@?$standard_base@DV?$stream_output_adapter@D@__crt_stdio_output@@@__crt_stdio_output@@IEBA_NXZ 0000000140015590 f i libucrtd:output.obj
 0001:00014590       ?validate_state_for_type_case_a@?$standard_base@DV?$stream_output_adapter@D@__crt_stdio_output@@@__crt_stdio_output@@IEBA_NXZ 0000000140015590 f i libucrtd:output.obj
 0001:00014590       ?validate_state_for_type_case_a@?$standard_base@DV?$string_output_adapter@D@__crt_stdio_output@@@__crt_stdio_output@@IEBA_NXZ 0000000140015590 f i libucrtd:output.obj
 0001:00014590       ?validate_state_for_type_case_a@?$standard_base@_WV?$string_output_adapter@_W@__crt_stdio_output@@@__crt_stdio_output@@IEBA_NXZ 0000000140015590 f i libucrtd:output.obj
 0001:000145a0       ?should_skip_normal_state_processing@?$standard_base@DV?$stream_output_adapter@D@__crt_stdio_output@@@__crt_stdio_output@@IEAA_NXZ 00000001400155a0 f i libucrtd:output.obj
 0001:000145a0       ?should_skip_normal_state_processing@?$standard_base@DV?$string_output_adapter@D@__crt_stdio_output@@@__crt_stdio_output@@IEAA_NXZ 00000001400155a0 f i libucrtd:output.obj
 0001:000145a0       ?should_skip_normal_state_processing@?$standard_base@_WV?$string_output_adapter@_W@__crt_stdio_output@@@__crt_stdio_output@@IEAA_NXZ 00000001400155a0 f i libucrtd:output.obj
 0001:000145a0       ?should_skip_type_state_output@?$standard_base@DV?$stream_output_adapter@D@__crt_stdio_output@@@__crt_stdio_output@@IEBA_NXZ 00000001400155a0 f i libucrtd:output.obj
 0001:000145a0       ?should_skip_type_state_output@?$standard_base@DV?$string_output_adapter@D@__crt_stdio_output@@@__crt_stdio_output@@IEBA_NXZ 00000001400155a0 f i libucrtd:output.obj
 0001:000145a0       ?should_skip_type_state_output@?$standard_base@_WV?$string_output_adapter@_W@__crt_stdio_output@@@__crt_stdio_output@@IEBA_NXZ 00000001400155a0 f i libucrtd:output.obj
 0001:000145b0       ?state_case_dot@?$output_processor@DV?$stream_output_adapter@D@__crt_stdio_output@@V?$standard_base@DV?$stream_output_adapter@D@__crt_stdio_output@@@2@@__crt_stdio_output@@AEAA_NXZ 00000001400155b0 f i libucrtd:output.obj
 0001:000145b0       ?state_case_dot@?$output_processor@DV?$string_output_adapter@D@__crt_stdio_output@@V?$format_validation_base@DV?$string_output_adapter@D@__crt_stdio_output@@@2@@__crt_stdio_output@@AEAA_NXZ 00000001400155b0 f i libucrtd:output.obj
 0001:000145b0       ?state_case_dot@?$output_processor@_WV?$string_output_adapter@_W@__crt_stdio_output@@V?$format_validation_base@_WV?$string_output_adapter@_W@__crt_stdio_output@@@2@@__crt_stdio_output@@AEAA_NXZ 00000001400155b0 f i libucrtd:output.obj
 0001:000145d0       ?state_case_flag@?$output_processor@DV?$stream_output_adapter@D@__crt_stdio_output@@V?$standard_base@DV?$stream_output_adapter@D@__crt_stdio_output@@@2@@__crt_stdio_output@@AEAA_NXZ 00000001400155d0 f i libucrtd:output.obj
 0001:000145d0       ?state_case_flag@?$output_processor@DV?$string_output_adapter@D@__crt_stdio_output@@V?$format_validation_base@DV?$string_output_adapter@D@__crt_stdio_output@@@2@@__crt_stdio_output@@AEAA_NXZ 00000001400155d0 f i libucrtd:output.obj
 0001:00014670       ?state_case_flag@?$output_processor@_WV?$string_output_adapter@_W@__crt_stdio_output@@V?$format_validation_base@_WV?$string_output_adapter@_W@__crt_stdio_output@@@2@@__crt_stdio_output@@AEAA_NXZ 0000000140015670 f i libucrtd:output.obj
 0001:00014710       ?state_case_normal@?$output_processor@DV?$stream_output_adapter@D@__crt_stdio_output@@V?$standard_base@DV?$stream_output_adapter@D@__crt_stdio_output@@@2@@__crt_stdio_output@@AEAA_NXZ 0000000140015710 f i libucrtd:output.obj
 0001:00014810       ?state_case_normal@?$output_processor@DV?$string_output_adapter@D@__crt_stdio_output@@V?$format_validation_base@DV?$string_output_adapter@D@__crt_stdio_output@@@2@@__crt_stdio_output@@AEAA_NXZ 0000000140015810 f i libucrtd:output.obj
 0001:00014910       ?state_case_normal@?$output_processor@_WV?$string_output_adapter@_W@__crt_stdio_output@@V?$format_validation_base@_WV?$string_output_adapter@_W@__crt_stdio_output@@@2@@__crt_stdio_output@@AEAA_NXZ 0000000140015910 f i libucrtd:output.obj
 0001:00014a10       ?state_case_normal_common@?$output_processor@DV?$stream_output_adapter@D@__crt_stdio_output@@V?$standard_base@DV?$stream_output_adapter@D@__crt_stdio_output@@@2@@__crt_stdio_output@@AEAA_NXZ 0000000140015a10 f i libucrtd:output.obj
 0001:00014a70       ?state_case_normal_common@?$output_processor@DV?$string_output_adapter@D@__crt_stdio_output@@V?$format_validation_base@DV?$string_output_adapter@D@__crt_stdio_output@@@2@@__crt_stdio_output@@AEAA_NXZ 0000000140015a70 f i libucrtd:output.obj
 0001:00014ad0       ?state_case_normal_common@?$output_processor@_WV?$string_output_adapter@_W@__crt_stdio_output@@V?$format_validation_base@_WV?$string_output_adapter@_W@__crt_stdio_output@@@2@@__crt_stdio_output@@AEAA_NXZ 0000000140015ad0 f i libucrtd:output.obj
 0001:00014b30       ?state_case_normal_tchar@?$output_processor@DV?$stream_output_adapter@D@__crt_stdio_output@@V?$standard_base@DV?$stream_output_adapter@D@__crt_stdio_output@@@2@@__crt_stdio_output@@AEAA_ND@Z 0000000140015b30 f i libucrtd:output.obj
 0001:00014cc0       ?state_case_normal_tchar@?$output_processor@DV?$string_output_adapter@D@__crt_stdio_output@@V?$format_validation_base@DV?$string_output_adapter@D@__crt_stdio_output@@@2@@__crt_stdio_output@@AEAA_ND@Z 0000000140015cc0 f i libucrtd:output.obj
 0001:00014e50       ?state_case_normal_tchar@?$output_processor@_WV?$string_output_adapter@_W@__crt_stdio_output@@V?$format_validation_base@_WV?$string_output_adapter@_W@__crt_stdio_output@@@2@@__crt_stdio_output@@AEAA_N_W@Z 0000000140015e50 f i libucrtd:output.obj
 0001:00014e70       ?state_case_percent@?$output_processor@DV?$stream_output_adapter@D@__crt_stdio_output@@V?$standard_base@DV?$stream_output_adapter@D@__crt_stdio_output@@@2@@__crt_stdio_output@@AEAA_NXZ 0000000140015e70 f i libucrtd:output.obj
 0001:00014e70       ?state_case_percent@?$output_processor@DV?$string_output_adapter@D@__crt_stdio_output@@V?$format_validation_base@DV?$string_output_adapter@D@__crt_stdio_output@@@2@@__crt_stdio_output@@AEAA_NXZ 0000000140015e70 f i libucrtd:output.obj
 0001:00014e70       ?state_case_percent@?$output_processor@_WV?$string_output_adapter@_W@__crt_stdio_output@@V?$format_validation_base@_WV?$string_output_adapter@_W@__crt_stdio_output@@@2@@__crt_stdio_output@@AEAA_NXZ 0000000140015e70 f i libucrtd:output.obj
 0001:00014ec0       ?state_case_precision@?$output_processor@DV?$stream_output_adapter@D@__crt_stdio_output@@V?$standard_base@DV?$stream_output_adapter@D@__crt_stdio_output@@@2@@__crt_stdio_output@@AEAA_NXZ 0000000140015ec0 f i libucrtd:output.obj
 0001:00014ec0       ?state_case_precision@?$output_processor@DV?$string_output_adapter@D@__crt_stdio_output@@V?$format_validation_base@DV?$string_output_adapter@D@__crt_stdio_output@@@2@@__crt_stdio_output@@AEAA_NXZ 0000000140015ec0 f i libucrtd:output.obj
 0001:00014f40       ?state_case_precision@?$output_processor@_WV?$string_output_adapter@_W@__crt_stdio_output@@V?$format_validation_base@_WV?$string_output_adapter@_W@__crt_stdio_output@@@2@@__crt_stdio_output@@AEAA_NXZ 0000000140015f40 f i libucrtd:output.obj
 0001:00014fc0       ?state_case_size@?$output_processor@DV?$stream_output_adapter@D@__crt_stdio_output@@V?$standard_base@DV?$stream_output_adapter@D@__crt_stdio_output@@@2@@__crt_stdio_output@@AEAA_NXZ 0000000140015fc0 f i libucrtd:output.obj
 0001:00015480       ?state_case_size@?$output_processor@DV?$string_output_adapter@D@__crt_stdio_output@@V?$format_validation_base@DV?$string_output_adapter@D@__crt_stdio_output@@@2@@__crt_stdio_output@@AEAA_NXZ 0000000140016480 f i libucrtd:output.obj
 0001:00015940       ?state_case_size@?$output_processor@_WV?$string_output_adapter@_W@__crt_stdio_output@@V?$format_validation_base@_WV?$string_output_adapter@_W@__crt_stdio_output@@@2@@__crt_stdio_output@@AEAA_NXZ 0000000140016940 f i libucrtd:output.obj
 0001:00015e00       ?state_case_type@?$output_processor@DV?$stream_output_adapter@D@__crt_stdio_output@@V?$standard_base@DV?$stream_output_adapter@D@__crt_stdio_output@@@2@@__crt_stdio_output@@AEAA_NXZ 0000000140016e00 f i libucrtd:output.obj
 0001:000162c0       ?state_case_type@?$output_processor@DV?$string_output_adapter@D@__crt_stdio_output@@V?$format_validation_base@DV?$string_output_adapter@D@__crt_stdio_output@@@2@@__crt_stdio_output@@AEAA_NXZ 00000001400172c0 f i libucrtd:output.obj
 0001:00016780       ?state_case_type@?$output_processor@_WV?$string_output_adapter@_W@__crt_stdio_output@@V?$format_validation_base@_WV?$string_output_adapter@_W@__crt_stdio_output@@@2@@__crt_stdio_output@@AEAA_NXZ 0000000140017780 f i libucrtd:output.obj
 0001:00016d10       ?state_case_width@?$output_processor@DV?$stream_output_adapter@D@__crt_stdio_output@@V?$standard_base@DV?$stream_output_adapter@D@__crt_stdio_output@@@2@@__crt_stdio_output@@AEAA_NXZ 0000000140017d10 f i libucrtd:output.obj
 0001:00016d10       ?state_case_width@?$output_processor@DV?$string_output_adapter@D@__crt_stdio_output@@V?$format_validation_base@DV?$string_output_adapter@D@__crt_stdio_output@@@2@@__crt_stdio_output@@AEAA_NXZ 0000000140017d10 f i libucrtd:output.obj
 0001:00016da0       ?state_case_width@?$output_processor@_WV?$string_output_adapter@_W@__crt_stdio_output@@V?$format_validation_base@_WV?$string_output_adapter@_W@__crt_stdio_output@@@2@@__crt_stdio_output@@AEAA_NXZ 0000000140017da0 f i libucrtd:output.obj
 0001:00016e30       ?state_count@?$format_validation_base@DV?$string_output_adapter@D@__crt_stdio_output@@@__crt_stdio_output@@KAIXZ 0000000140017e30 f i libucrtd:output.obj
 0001:00016e30       ?state_count@?$format_validation_base@_WV?$string_output_adapter@_W@__crt_stdio_output@@@__crt_stdio_output@@KAIXZ 0000000140017e30 f i libucrtd:output.obj
 0001:00016e40       ?state_count@?$standard_base@DV?$stream_output_adapter@D@__crt_stdio_output@@@__crt_stdio_output@@KAIXZ 0000000140017e40 f i libucrtd:output.obj
 0001:00016e50       ?state_transition_table@?$format_validation_base@DV?$string_output_adapter@D@__crt_stdio_output@@@__crt_stdio_output@@KAAEBV?$spectre_mitigated_lookup_table@Ustate_transition_pair@__crt_stdio_output@@$0IA@@2@XZ 0000000140017e50 f i libucrtd:output.obj
 0001:00016e50       ?state_transition_table@?$format_validation_base@_WV?$string_output_adapter@_W@__crt_stdio_output@@@__crt_stdio_output@@KAAEBV?$spectre_mitigated_lookup_table@Ustate_transition_pair@__crt_stdio_output@@$0IA@@2@XZ 0000000140017e50 f i libucrtd:output.obj
 0001:00016e60       ?state_transition_table@?$standard_base@DV?$stream_output_adapter@D@__crt_stdio_output@@@__crt_stdio_output@@KAAEBV?$spectre_mitigated_lookup_table@Ustate_transition_pair@__crt_stdio_output@@$0IA@@2@XZ 0000000140017e60 f i libucrtd:output.obj
 0001:00016e70       ?tchar_string@?$common_data@D@__crt_stdio_output@@IEAAAEAPEADD@Z 0000000140017e70 f i libucrtd:output.obj
 0001:00016e90       ?tchar_string@?$common_data@D@__crt_stdio_output@@IEAAAEAPEADXZ 0000000140017e90 f i libucrtd:output.obj
 0001:00016eb0       ?tchar_string@?$common_data@_W@__crt_stdio_output@@IEAAAEAPEA_WXZ 0000000140017eb0 f i libucrtd:output.obj
 0001:00016ed0       ?tchar_string@?$common_data@_W@__crt_stdio_output@@IEAAAEAPEA_W_W@Z 0000000140017ed0 f i libucrtd:output.obj
 0001:00016ef0       ?to_integer_size@__crt_stdio_output@@YA_KW4length_modifier@1@@Z 0000000140017ef0 f i libucrtd:output.obj
 0001:00016fa0       ?type_case_X@?$output_processor@DV?$stream_output_adapter@D@__crt_stdio_output@@V?$standard_base@DV?$stream_output_adapter@D@__crt_stdio_output@@@2@@__crt_stdio_output@@AEAA_NXZ 0000000140017fa0 f i libucrtd:output.obj
 0001:00016fc0       ?type_case_X@?$output_processor@DV?$string_output_adapter@D@__crt_stdio_output@@V?$format_validation_base@DV?$string_output_adapter@D@__crt_stdio_output@@@2@@__crt_stdio_output@@AEAA_NXZ 0000000140017fc0 f i libucrtd:output.obj
 0001:00016fe0       ?type_case_X@?$output_processor@_WV?$string_output_adapter@_W@__crt_stdio_output@@V?$format_validation_base@_WV?$string_output_adapter@_W@__crt_stdio_output@@@2@@__crt_stdio_output@@AEAA_NXZ 0000000140017fe0 f i libucrtd:output.obj
 0001:00017000       ?type_case_Z@?$output_processor@DV?$stream_output_adapter@D@__crt_stdio_output@@V?$standard_base@DV?$stream_output_adapter@D@__crt_stdio_output@@@2@@__crt_stdio_output@@AEAA_NXZ 0000000140018000 f i libucrtd:output.obj
 0001:00017000       ?type_case_Z@?$output_processor@DV?$string_output_adapter@D@__crt_stdio_output@@V?$format_validation_base@DV?$string_output_adapter@D@__crt_stdio_output@@@2@@__crt_stdio_output@@AEAA_NXZ 0000000140018000 f i libucrtd:output.obj
 0001:00017120       ?type_case_Z@?$output_processor@_WV?$string_output_adapter@_W@__crt_stdio_output@@V?$format_validation_base@_WV?$string_output_adapter@_W@__crt_stdio_output@@@2@@__crt_stdio_output@@AEAA_NXZ 0000000140018120 f i libucrtd:output.obj
 0001:00017240       ?type_case_a@?$output_processor@DV?$stream_output_adapter@D@__crt_stdio_output@@V?$standard_base@DV?$stream_output_adapter@D@__crt_stdio_output@@@2@@__crt_stdio_output@@AEAA_NXZ 0000000140018240 f i libucrtd:output.obj
 0001:00017240       ?type_case_a@?$output_processor@DV?$string_output_adapter@D@__crt_stdio_output@@V?$format_validation_base@DV?$string_output_adapter@D@__crt_stdio_output@@@2@@__crt_stdio_output@@AEAA_NXZ 0000000140018240 f i libucrtd:output.obj
 0001:000176a0       ?type_case_a@?$output_processor@_WV?$string_output_adapter@_W@__crt_stdio_output@@V?$format_validation_base@_WV?$string_output_adapter@_W@__crt_stdio_output@@@2@@__crt_stdio_output@@AEAA_NXZ 00000001400186a0 f i libucrtd:output.obj
 0001:00017b10       ?type_case_c@?$output_processor@DV?$stream_output_adapter@D@__crt_stdio_output@@V?$standard_base@DV?$stream_output_adapter@D@__crt_stdio_output@@@2@@__crt_stdio_output@@AEAA_NXZ 0000000140018b10 f i libucrtd:output.obj
 0001:00017b10       ?type_case_c@?$output_processor@DV?$string_output_adapter@D@__crt_stdio_output@@V?$format_validation_base@DV?$string_output_adapter@D@__crt_stdio_output@@@2@@__crt_stdio_output@@AEAA_NXZ 0000000140018b10 f i libucrtd:output.obj
 0001:00017b30       ?type_case_c@?$output_processor@_WV?$string_output_adapter@_W@__crt_stdio_output@@V?$format_validation_base@_WV?$string_output_adapter@_W@__crt_stdio_output@@@2@@__crt_stdio_output@@AEAA_NXZ 0000000140018b30 f i libucrtd:output.obj
 0001:00017b50       ?type_case_c_tchar@?$output_processor@DV?$stream_output_adapter@D@__crt_stdio_output@@V?$standard_base@DV?$stream_output_adapter@D@__crt_stdio_output@@@2@@__crt_stdio_output@@AEAA_ND@Z 0000000140018b50 f i libucrtd:output.obj
 0001:00017b50       ?type_case_c_tchar@?$output_processor@DV?$string_output_adapter@D@__crt_stdio_output@@V?$format_validation_base@DV?$string_output_adapter@D@__crt_stdio_output@@@2@@__crt_stdio_output@@AEAA_ND@Z 0000000140018b50 f i libucrtd:output.obj
 0001:00017cc0       ?type_case_c_tchar@?$output_processor@_WV?$string_output_adapter@_W@__crt_stdio_output@@V?$format_validation_base@_WV?$string_output_adapter@_W@__crt_stdio_output@@@2@@__crt_stdio_output@@AEAA_N_W@Z 0000000140018cc0 f i libucrtd:output.obj
 0001:00017e20       ?type_case_d@?$output_processor@DV?$stream_output_adapter@D@__crt_stdio_output@@V?$standard_base@DV?$stream_output_adapter@D@__crt_stdio_output@@@2@@__crt_stdio_output@@AEAA_NXZ 0000000140018e20 f i libucrtd:output.obj
 0001:00017e50       ?type_case_d@?$output_processor@DV?$string_output_adapter@D@__crt_stdio_output@@V?$format_validation_base@DV?$string_output_adapter@D@__crt_stdio_output@@@2@@__crt_stdio_output@@AEAA_NXZ 0000000140018e50 f i libucrtd:output.obj
 0001:00017e80       ?type_case_d@?$output_processor@_WV?$string_output_adapter@_W@__crt_stdio_output@@V?$format_validation_base@_WV?$string_output_adapter@_W@__crt_stdio_output@@@2@@__crt_stdio_output@@AEAA_NXZ 0000000140018e80 f i libucrtd:output.obj
 0001:00017eb0       ?type_case_n@?$output_processor@DV?$stream_output_adapter@D@__crt_stdio_output@@V?$standard_base@DV?$stream_output_adapter@D@__crt_stdio_output@@@2@@__crt_stdio_output@@AEAA_NXZ 0000000140018eb0 f i libucrtd:output.obj
 0001:00018140       ?type_case_n@?$output_processor@DV?$string_output_adapter@D@__crt_stdio_output@@V?$format_validation_base@DV?$string_output_adapter@D@__crt_stdio_output@@@2@@__crt_stdio_output@@AEAA_NXZ 0000000140019140 f i libucrtd:output.obj
 0001:000183d0       ?type_case_n@?$output_processor@_WV?$string_output_adapter@_W@__crt_stdio_output@@V?$format_validation_base@_WV?$string_output_adapter@_W@__crt_stdio_output@@@2@@__crt_stdio_output@@AEAA_NXZ 00000001400193d0 f i libucrtd:output.obj
 0001:00018660       ?type_case_o@?$output_processor@DV?$stream_output_adapter@D@__crt_stdio_output@@V?$standard_base@DV?$stream_output_adapter@D@__crt_stdio_output@@@2@@__crt_stdio_output@@AEAA_NXZ 0000000140019660 f i libucrtd:output.obj
 0001:000186a0       ?type_case_o@?$output_processor@DV?$string_output_adapter@D@__crt_stdio_output@@V?$format_validation_base@DV?$string_output_adapter@D@__crt_stdio_output@@@2@@__crt_stdio_output@@AEAA_NXZ 00000001400196a0 f i libucrtd:output.obj
 0001:000186e0       ?type_case_o@?$output_processor@_WV?$string_output_adapter@_W@__crt_stdio_output@@V?$format_validation_base@_WV?$string_output_adapter@_W@__crt_stdio_output@@@2@@__crt_stdio_output@@AEAA_NXZ 00000001400196e0 f i libucrtd:output.obj
 0001:00018720       ?type_case_p@?$output_processor@DV?$stream_output_adapter@D@__crt_stdio_output@@V?$standard_base@DV?$stream_output_adapter@D@__crt_stdio_output@@@2@@__crt_stdio_output@@AEAA_NXZ 0000000140019720 f i libucrtd:output.obj
 0001:00018760       ?type_case_p@?$output_processor@DV?$string_output_adapter@D@__crt_stdio_output@@V?$format_validation_base@DV?$string_output_adapter@D@__crt_stdio_output@@@2@@__crt_stdio_output@@AEAA_NXZ 0000000140019760 f i libucrtd:output.obj
 0001:000187a0       ?type_case_p@?$output_processor@_WV?$string_output_adapter@_W@__crt_stdio_output@@V?$format_validation_base@_WV?$string_output_adapter@_W@__crt_stdio_output@@@2@@__crt_stdio_output@@AEAA_NXZ 00000001400197a0 f i libucrtd:output.obj
 0001:000187e0       ?type_case_s@?$output_processor@DV?$stream_output_adapter@D@__crt_stdio_output@@V?$standard_base@DV?$stream_output_adapter@D@__crt_stdio_output@@@2@@__crt_stdio_output@@AEAA_NXZ 00000001400197e0 f i libucrtd:output.obj
 0001:000187e0       ?type_case_s@?$output_processor@DV?$string_output_adapter@D@__crt_stdio_output@@V?$format_validation_base@DV?$string_output_adapter@D@__crt_stdio_output@@@2@@__crt_stdio_output@@AEAA_NXZ 00000001400197e0 f i libucrtd:output.obj
 0001:00018900       ?type_case_s@?$output_processor@_WV?$string_output_adapter@_W@__crt_stdio_output@@V?$format_validation_base@_WV?$string_output_adapter@_W@__crt_stdio_output@@@2@@__crt_stdio_output@@AEAA_NXZ 0000000140019900 f i libucrtd:output.obj
 0001:00018a20       ?type_case_s_compute_narrow_string_length@?$output_processor@DV?$stream_output_adapter@D@__crt_stdio_output@@V?$standard_base@DV?$stream_output_adapter@D@__crt_stdio_output@@@2@@__crt_stdio_output@@AEAAHHD@Z 0000000140019a20 f i libucrtd:output.obj
 0001:00018a20       ?type_case_s_compute_narrow_string_length@?$output_processor@DV?$string_output_adapter@D@__crt_stdio_output@@V?$format_validation_base@DV?$string_output_adapter@D@__crt_stdio_output@@@2@@__crt_stdio_output@@AEAAHHD@Z 0000000140019a20 f i libucrtd:output.obj
 0001:00018a50       ?type_case_s_compute_narrow_string_length@?$output_processor@_WV?$string_output_adapter@_W@__crt_stdio_output@@V?$format_validation_base@_WV?$string_output_adapter@_W@__crt_stdio_output@@@2@@__crt_stdio_output@@AEAAHH_W@Z 0000000140019a50 f i libucrtd:output.obj
 0001:00018af0       ?type_case_u@?$output_processor@DV?$stream_output_adapter@D@__crt_stdio_output@@V?$standard_base@DV?$stream_output_adapter@D@__crt_stdio_output@@@2@@__crt_stdio_output@@AEAA_NXZ 0000000140019af0 f i libucrtd:output.obj
 0001:00018b10       ?type_case_u@?$output_processor@DV?$string_output_adapter@D@__crt_stdio_output@@V?$format_validation_base@DV?$string_output_adapter@D@__crt_stdio_output@@@2@@__crt_stdio_output@@AEAA_NXZ 0000000140019b10 f i libucrtd:output.obj
 0001:00018b30       ?type_case_u@?$output_processor@_WV?$string_output_adapter@_W@__crt_stdio_output@@V?$format_validation_base@_WV?$string_output_adapter@_W@__crt_stdio_output@@@2@@__crt_stdio_output@@AEAA_NXZ 0000000140019b30 f i libucrtd:output.obj
 0001:00018b50       ?type_case_x@?$output_processor@DV?$stream_output_adapter@D@__crt_stdio_output@@V?$standard_base@DV?$stream_output_adapter@D@__crt_stdio_output@@@2@@__crt_stdio_output@@AEAA_NXZ 0000000140019b50 f i libucrtd:output.obj
 0001:00018b70       ?type_case_x@?$output_processor@DV?$string_output_adapter@D@__crt_stdio_output@@V?$format_validation_base@DV?$string_output_adapter@D@__crt_stdio_output@@@2@@__crt_stdio_output@@AEAA_NXZ 0000000140019b70 f i libucrtd:output.obj
 0001:00018b90       ?type_case_x@?$output_processor@_WV?$string_output_adapter@_W@__crt_stdio_output@@V?$format_validation_base@_WV?$string_output_adapter@_W@__crt_stdio_output@@@2@@__crt_stdio_output@@AEAA_NXZ 0000000140019b90 f i libucrtd:output.obj
 0001:00018bb0       ?unget@?$c_string_character_source@D@__crt_strtox@@QEAAXD@Z 0000000140019bb0 f i libucrtd:output.obj
 0001:00018c90       ?unget@?$c_string_character_source@_W@__crt_strtox@@QEAAX_W@Z 0000000140019c90 f i libucrtd:output.obj
 0001:00018d70       ?unset_flag@?$output_processor@DV?$stream_output_adapter@D@__crt_stdio_output@@V?$standard_base@DV?$stream_output_adapter@D@__crt_stdio_output@@@2@@__crt_stdio_output@@AEAAXI@Z 0000000140019d70 f i libucrtd:output.obj
 0001:00018d70       ?unset_flag@?$output_processor@DV?$string_output_adapter@D@__crt_stdio_output@@V?$format_validation_base@DV?$string_output_adapter@D@__crt_stdio_output@@@2@@__crt_stdio_output@@AEAAXI@Z 0000000140019d70 f i libucrtd:output.obj
 0001:00018d70       ?unset_flag@?$output_processor@_WV?$string_output_adapter@_W@__crt_stdio_output@@V?$format_validation_base@_WV?$string_output_adapter@_W@__crt_stdio_output@@@2@@__crt_stdio_output@@AEAAXI@Z 0000000140019d70 f i libucrtd:output.obj
 0001:00018da0       ?update_field_width@?$standard_base@DV?$stream_output_adapter@D@__crt_stdio_output@@@__crt_stdio_output@@IEAA_NXZ 0000000140019da0 f i libucrtd:output.obj
 0001:00018da0       ?update_field_width@?$standard_base@DV?$string_output_adapter@D@__crt_stdio_output@@@__crt_stdio_output@@IEAA_NXZ 0000000140019da0 f i libucrtd:output.obj
 0001:00018da0       ?update_field_width@?$standard_base@_WV?$string_output_adapter@_W@__crt_stdio_output@@@__crt_stdio_output@@IEAA_NXZ 0000000140019da0 f i libucrtd:output.obj
 0001:00018dd0       ?update_locale@__crt_cached_ptd_host@@AEAAXXZ 0000000140019dd0 f i libucrtd:output.obj
 0001:00018e00       ?update_locale_slow@__crt_cached_ptd_host@@AEAAXXZ 0000000140019e00 f i libucrtd:output.obj
 0001:00018eb0       ?update_precision@?$standard_base@DV?$stream_output_adapter@D@__crt_stdio_output@@@__crt_stdio_output@@IEAA_NXZ 0000000140019eb0 f i libucrtd:output.obj
 0001:00018eb0       ?update_precision@?$standard_base@DV?$string_output_adapter@D@__crt_stdio_output@@@__crt_stdio_output@@IEAA_NXZ 0000000140019eb0 f i libucrtd:output.obj
 0001:00018eb0       ?update_precision@?$standard_base@_WV?$string_output_adapter@_W@__crt_stdio_output@@@__crt_stdio_output@@IEAA_NXZ 0000000140019eb0 f i libucrtd:output.obj
 0001:00018ee0       ?validate@?$c_string_character_source@D@__crt_strtox@@QEBA_NXZ 0000000140019ee0 f i libucrtd:output.obj
 0001:00018fa0       ?validate@?$c_string_character_source@_W@__crt_strtox@@QEBA_NXZ 0000000140019fa0 f i libucrtd:output.obj
 0001:00019060       ?validate@?$stream_output_adapter@D@__crt_stdio_output@@QEBA_NAEAV__crt_cached_ptd_host@@@Z 000000014001a060 f i libucrtd:output.obj
 0001:00019160       ?validate@?$string_output_adapter@D@__crt_stdio_output@@QEBA_NAEAV__crt_cached_ptd_host@@@Z 000000014001a160 f i libucrtd:output.obj
 0001:00019240       ?validate@?$string_output_adapter@_W@__crt_stdio_output@@QEBA_NAEAV__crt_cached_ptd_host@@@Z 000000014001a240 f i libucrtd:output.obj
 0001:00019320       ?validate_and_update_state_at_end_of_format_string@?$format_validation_base@DV?$string_output_adapter@D@__crt_stdio_output@@@__crt_stdio_output@@IEAA_NXZ 000000014001a320 f i libucrtd:output.obj
 0001:00019410       ?validate_and_update_state_at_end_of_format_string@?$format_validation_base@_WV?$string_output_adapter@_W@__crt_stdio_output@@@__crt_stdio_output@@IEAA_NXZ 000000014001a410 f i libucrtd:output.obj
 0001:00019500       ?validate_stream_is_ansi_if_required@?$__acrt_stdio_char_traits@D@@SA_NQEAU_iobuf@@@Z 000000014001a500 f i libucrtd:output.obj
 0001:00019690       ?wide_character_to_digit@__crt_strtox@@YAH_W@Z 000000014001a690 f i libucrtd:output.obj
 0001:00019a00       ?wide_null_string@?$output_processor@DV?$stream_output_adapter@D@__crt_stdio_output@@V?$standard_base@DV?$stream_output_adapter@D@__crt_stdio_output@@@2@@__crt_stdio_output@@CAPEA_WXZ 000000014001aa00 f i libucrtd:output.obj
 0001:00019a00       ?wide_null_string@?$output_processor@DV?$string_output_adapter@D@__crt_stdio_output@@V?$format_validation_base@DV?$string_output_adapter@D@__crt_stdio_output@@@2@@__crt_stdio_output@@CAPEA_WXZ 000000014001aa00 f i libucrtd:output.obj
 0001:00019a00       ?wide_null_string@?$output_processor@_WV?$string_output_adapter@_W@__crt_stdio_output@@V?$format_validation_base@_WV?$string_output_adapter@_W@__crt_stdio_output@@@2@@__crt_stdio_output@@CAPEA_WXZ 000000014001aa00 f i libucrtd:output.obj
 0001:00019a10       ?write_character@?$output_adapter_common@DV?$stream_output_adapter@D@__crt_stdio_output@@@__crt_stdio_output@@QEBAXDQEAHAEAV__crt_cached_ptd_host@@@Z 000000014001aa10 f i libucrtd:output.obj
 0001:00019a70       ?write_character@?$string_output_adapter@D@__crt_stdio_output@@QEBA_NDQEAHAEAV__crt_cached_ptd_host@@@Z 000000014001aa70 f i libucrtd:output.obj
 0001:00019b40       ?write_character@?$string_output_adapter@_W@__crt_stdio_output@@QEBA_N_WQEAHAEAV__crt_cached_ptd_host@@@Z 000000014001ab40 f i libucrtd:output.obj
 0001:00019c10       ?write_character_without_count_update@?$stream_output_adapter@D@__crt_stdio_output@@QEBA_NDAEAV__crt_cached_ptd_host@@@Z 000000014001ac10 f i libucrtd:output.obj
 0001:00019ca0       ?write_stored_string_tchar@?$output_processor@DV?$stream_output_adapter@D@__crt_stdio_output@@V?$standard_base@DV?$stream_output_adapter@D@__crt_stdio_output@@@2@@__crt_stdio_output@@AEAA_ND@Z 000000014001aca0 f i libucrtd:output.obj
 0001:00019e50       ?write_stored_string_tchar@?$output_processor@DV?$string_output_adapter@D@__crt_stdio_output@@V?$format_validation_base@DV?$string_output_adapter@D@__crt_stdio_output@@@2@@__crt_stdio_output@@AEAA_ND@Z 000000014001ae50 f i libucrtd:output.obj
 0001:0001a000       ?write_stored_string_tchar@?$output_processor@_WV?$string_output_adapter@_W@__crt_stdio_output@@V?$format_validation_base@_WV?$string_output_adapter@_W@__crt_stdio_output@@@2@@__crt_stdio_output@@AEAA_N_W@Z 000000014001b000 f i libucrtd:output.obj
 0001:0001a160       ?write_string@?$stream_output_adapter@D@__crt_stdio_output@@QEBAXQEBDHQEAHAEAV__crt_cached_ptd_host@@@Z 000000014001b160 f i libucrtd:output.obj
 0001:0001a1e0       ?write_string@?$string_output_adapter@D@__crt_stdio_output@@QEBAXQEBDHQEAHAEAV__crt_cached_ptd_host@@@Z 000000014001b1e0 f i libucrtd:output.obj
 0001:0001a350       ?write_string@?$string_output_adapter@_W@__crt_stdio_output@@QEBAXQEB_WHQEAHAEAV__crt_cached_ptd_host@@@Z 000000014001b350 f i libucrtd:output.obj
 0001:0001a4c0       ?write_string_impl@?$output_adapter_common@DV?$stream_output_adapter@D@__crt_stdio_output@@@__crt_stdio_output@@IEBAXQEBDHQEAHAEAV__crt_cached_ptd_host@@@Z 000000014001b4c0 f i libucrtd:output.obj
 0001:0001a5e0       __acrt_disable_global_locale_sync 000000014001b5e0 f i libucrtd:output.obj
 0001:0001a610       __acrt_isleadbyte_l_noupdate 000000014001b610 f i libucrtd:output.obj
 0001:0001a640       __acrt_locale_get_ctype_array_value 000000014001b640 f i libucrtd:output.obj
 0001:0001a680       __ascii_iswalpha           000000014001b680 f i libucrtd:output.obj
 0001:0001a6c0       __ascii_toupper            000000014001b6c0 f i libucrtd:output.obj
 0001:0001a6e0       __ascii_towupper           000000014001b6e0 f i libucrtd:output.obj
 0001:0001a700       __stdio_common_vfprintf    000000014001b700 f   libucrtd:output.obj
 0001:0001a780       __stdio_common_vsnprintf_s 000000014001b780 f   libucrtd:output.obj
 0001:0001a810       __stdio_common_vsnwprintf_s 000000014001b810 f   libucrtd:output.obj
 0001:0001a8a0       __stdio_common_vsprintf_s  000000014001b8a0 f   libucrtd:output.obj
 0001:0001a930       _ctype_fast_check_internal 000000014001b930 f i libucrtd:output.obj
 0001:0001a960       _isdigit_fast_internal     000000014001b960 f i libucrtd:output.obj
 0001:0001a990       _tolower_fast_internal     000000014001b990 f i libucrtd:output.obj
 0001:0001a9c0       free                       000000014001b9c0 f   libucrtd:free.obj
 0001:0001a9f0       malloc                     000000014001b9f0 f   libucrtd:malloc.obj
 0001:0001aa90       _seh_filter_exe            000000014001ba90 f   libucrtd:exception_filter.obj
 0001:0001af30       __acrt_report_runtime_error 000000014001bf30 f   libucrtd:report_runtime_error.obj
 0001:0001b1b0       _invoke_watson_if_error    000000014001c1b0 f i libucrtd:report_runtime_error.obj
 0001:0001b200       _query_app_type            000000014001c200 f   libucrtd:report_runtime_error.obj
 0001:0001b210       _set_app_type              000000014001c210 f   libucrtd:report_runtime_error.obj
 0001:0001b220       ??$__crt_fast_decode_pointer@P6AHPEAU_exception@@@Z@@YAP6AHPEAU_exception@@@ZQ6AH0@Z@Z 000000014001c220 f i libucrtd:matherr.obj
 0001:0001b220       ??$__crt_fast_decode_pointer@P6AH_K@Z@@YAP6AH_K@ZQ6AH0@Z@Z 000000014001c220 f i libucrtd:new_handler.obj
 0001:0001b220       ??$__crt_fast_decode_pointer@P6AXH@Z@@YAP6AXH@ZQ6AXH@Z@Z 000000014001c220 f i libucrtd:signal.obj
 0001:0001b220       ??$__crt_fast_decode_pointer@P6AXPEAXK0@Z@@YAP6AXPEAXK0@ZQ6AX0K0@Z@Z 000000014001c220 f i libucrtd:exit.obj
 0001:0001b220       ??$__crt_fast_decode_pointer@P6AXPEB_W00I_K@Z@@YAP6AXPEB_W00I_K@ZQ6AX000I1@Z@Z 000000014001c220 f i libucrtd:invalid_parameter.obj
 0001:0001b220       ??$__crt_fast_decode_pointer@P6AXXZ@@YAP6AXXZQ6AXXZ@Z 000000014001c220 f i libucrtd:onexit.obj
 0001:0001b220       ??$__crt_fast_decode_pointer@PEAP6AXXZ@@YAPEAP6AXXZQEAP6AXXZ@Z 000000014001c220 f i libucrtd:onexit.obj
 0001:0001b220       ??$__crt_fast_decode_pointer@PEAX@@YAPEAXQEAX@Z 000000014001c220 f i libucrtd:winapi_thunks.obj
 0001:0001b260       ??$__crt_fast_encode_pointer@P6AHPEAU_exception@@@Z@@YAP6AHPEAU_exception@@@ZQ6AH0@Z@Z 000000014001c260 f i libucrtd:matherr.obj
 0001:0001b260       ??$__crt_fast_encode_pointer@P6AHXZ@@YAP6AHXZQ6AHXZ@Z 000000014001c260 f i libucrtd:onexit.obj
 0001:0001b260       ??$__crt_fast_encode_pointer@P6AXH@Z@@YAP6AXH@ZQ6AXH@Z@Z 000000014001c260 f i libucrtd:signal.obj
 0001:0001b260       ??$__crt_fast_encode_pointer@P6AXPEAXK0@Z@@YAP6AXPEAXK0@ZQ6AX0K0@Z@Z 000000014001c260 f i libucrtd:exit.obj
 0001:0001b260       ??$__crt_fast_encode_pointer@P6AXXZ@@YAP6AXXZQ6AXXZ@Z 000000014001c260 f i libucrtd:onexit.obj
 0001:0001b260       ??$__crt_fast_encode_pointer@PEAP6AXXZ@@YAPEAP6AXXZQEAP6AXXZ@Z 000000014001c260 f i libucrtd:onexit.obj
 0001:0001b260       ??$__crt_fast_encode_pointer@PEAX@@YAPEAXQEAX@Z 000000014001c260 f i libucrtd:initialization.obj
 0001:0001b2a0       ?__crt_rotate_pointer_value@@YA_K_KH@Z 000000014001c2a0 f i libucrtd:matherr.obj
 0001:0001b2c0       ?initialize@?$dual_state_global@P6AHPEAU_exception@@@Z@__crt_state_management@@QEAAXQ6AHPEAU_exception@@@Z@Z 000000014001c2c0 f i libucrtd:matherr.obj
 0001:0001b2c0       ?initialize@?$dual_state_global@P6AH_K@Z@__crt_state_management@@QEAAXQ6AH_K@Z@Z 000000014001c2c0 f i libucrtd:new_handler.obj
 0001:0001b2c0       ?initialize@?$dual_state_global@P6AXH@Z@__crt_state_management@@QEAAXQ6AXH@Z@Z 000000014001c2c0 f i libucrtd:signal.obj
 0001:0001b2c0       ?initialize@?$dual_state_global@PEAPEAD@__crt_state_management@@QEAAXQEAPEAD@Z 000000014001c2c0 f i libucrtd:environment_initialization.obj
 0001:0001b2c0       ?initialize@?$dual_state_global@PEAU__crt_locale_data@@@__crt_state_management@@QEAAXQEAU__crt_locale_data@@@Z 000000014001c2c0 f i libucrtd:initialization.obj
 0001:0001b2c0       ?initialize@?$dual_state_global@PEAU__crt_multibyte_data@@@__crt_state_management@@QEAAXQEAU__crt_multibyte_data@@@Z 000000014001c2c0 f i libucrtd:mbctype.obj
 0001:0001b310       ?value@?$dual_state_global@P6AHPEAU_exception@@@Z@__crt_state_management@@QEAAAEAP6AHPEAU_exception@@@ZXZ 000000014001c310 f i libucrtd:matherr.obj
 0001:0001b310       ?value@?$dual_state_global@P6AH_K@Z@__crt_state_management@@QEAAAEAP6AH_K@ZXZ 000000014001c310 f i libucrtd:new_handler.obj
 0001:0001b310       ?value@?$dual_state_global@P6AXH@Z@__crt_state_management@@QEAAAEAP6AXH@ZXZ 000000014001c310 f i libucrtd:signal.obj
 0001:0001b310       ?value@?$dual_state_global@PEAE@__crt_state_management@@QEAAAEAPEAEXZ 000000014001c310 f i libucrtd:mbctype.obj
 0001:0001b310       ?value@?$dual_state_global@PEAPEAD@__crt_state_management@@QEAAAEAPEAPEADXZ 000000014001c310 f i libucrtd:environment_initialization.obj
 0001:0001b310       ?value@?$dual_state_global@PEAPEA_W@__crt_state_management@@QEAAAEAPEAPEA_WXZ 000000014001c310 f i libucrtd:environment_initialization.obj
 0001:0001b310       ?value@?$dual_state_global@PEAU__crt_locale_data@@@__crt_state_management@@QEAAAEAPEAU__crt_locale_data@@XZ 000000014001c310 f i libucrtd:wsetlocale.obj
 0001:0001b310       ?value@?$dual_state_global@PEAU__crt_multibyte_data@@@__crt_state_management@@QEAAAEAPEAU__crt_multibyte_data@@XZ 000000014001c310 f i libucrtd:locale_update.obj
 0001:0001b330       __acrt_has_user_matherr    000000014001c330 f   libucrtd:matherr.obj
 0001:0001b370       __acrt_initialize_user_matherr 000000014001c370 f   libucrtd:matherr.obj
 0001:0001b390       __acrt_invoke_user_matherr 000000014001c390 f   libucrtd:matherr.obj
 0001:0001b400       __setusermatherr           000000014001c400 f   libucrtd:matherr.obj
 0001:0001b7d0       ??$get_module_file_name@$$TAEAY0BAF@DH@?$__crt_char_traits@D@@SAK$$QEA$$TAEAY0BAF@D$$QEAH@Z 000000014001c7d0 f i libucrtd:argv_parsing.obj
 0001:0001b7d0       ??$get_module_file_name@AEAPEAUHINSTANCE__@@AEAY0BAF@DK@?$__crt_char_traits@D@@SAKAEAPEAUHINSTANCE__@@AEAY0BAF@D$$QEAK@Z 000000014001c7d0 f i libucrtd:dbgrpt.obj
 0001:0001bce0       ??$set_program_name@PEAD@?$__crt_char_traits@D@@SAX$$QEAPEAD@Z 000000014001cce0 f i libucrtd:argv_parsing.obj
 0001:0001be10       __acrt_allocate_buffer_for_argv 000000014001ce10 f   libucrtd:argv_parsing.obj
 0001:0001bf30       _configure_narrow_argv     000000014001cf30 f   libucrtd:argv_parsing.obj
 0001:0001bf50       _set_pgmptr                000000014001cf50 f i libucrtd:argv_parsing.obj
 0001:0001c430       ??$get_environment_from_os@$$V@?$__crt_char_traits@D@@SAPEADXZ 000000014001d430 f i libucrtd:environment_initialization.obj
 0001:0001c5c0       ??$set_variable_in_environment_nolock@PEADH@?$__crt_char_traits@D@@SAH$$QEAPEAD$$QEAH@Z 000000014001d5c0 f i libucrtd:environment_initialization.obj
 0001:0001c5f0       ??$tcscpy_s@AEAPEADAEB_KAEAPEAD@?$__crt_char_traits@D@@SAHAEAPEADAEB_K0@Z 000000014001d5f0 f i libucrtd:setenv.obj
 0001:0001c5f0       ??$tcscpy_s@AEBQEADAEB_KAEBQEAD@?$__crt_char_traits@D@@SAHAEBQEADAEB_K0@Z 000000014001d5f0 f i libucrtd:setenv.obj
 0001:0001c5f0       ??$tcscpy_s@PEADAEB_KAEAPEAD@?$__crt_char_traits@D@@SAH$$QEAPEADAEB_KAEAPEAD@Z 000000014001d5f0 f i libucrtd:environment_initialization.obj
 0001:0001c630       ??$tcslen@AEAPEAD@?$__crt_char_traits@D@@SA_KAEAPEAD@Z 000000014001d630 f i libucrtd:environment_initialization.obj
 0001:0001c630       ??$tcslen@AEBQEAD@?$__crt_char_traits@D@@SA_KAEBQEAD@Z 000000014001d630 f i libucrtd:setenv.obj
 0001:0001c630       ??$tcslen@AEBQEBD@?$__crt_char_traits@D@@SA_KAEBQEBD@Z 000000014001d630 f i libucrtd:dbgrpt.obj
 0001:0001c650       ??$uninitialize@A6AXAEAPEAPEAD@_E@?$dual_state_global@PEAPEAD@__crt_state_management@@QEAAXA6AXAEAPEAPEAD@_E@Z 000000014001d650 f i libucrtd:environment_initialization.obj
 0001:0001c6d0       ??$uninitialize@A6AXAEAPEAPEA_W@_E@?$dual_state_global@PEAPEA_W@__crt_state_management@@QEAAXA6AXAEAPEAPEA_W@_E@Z 000000014001d6d0 f i libucrtd:environment_initialization.obj
 0001:0001c7d0       ?__crt_compute_required_transform_buffer_count@@YA_KIQEB_W@Z 000000014001d7d0 f i libucrtd:environment_initialization.obj
 0001:0001c820       ?__crt_transform_string@@YA_KIQEB_WQEAD_K@Z 000000014001d820 f i libucrtd:environment_initialization.obj
 0001:0001c8f0       __dcrt_get_or_create_narrow_environment_nolock 000000014001d8f0 f   libucrtd:environment_initialization.obj
 0001:0001c900       __dcrt_uninitialize_environments_nolock 000000014001d900 f   libucrtd:environment_initialization.obj
 0001:0001c950       _get_initial_narrow_environment 000000014001d950 f   libucrtd:environment_initialization.obj
 0001:0001c960       _initialize_narrow_environment 000000014001d960 f   libucrtd:environment_initialization.obj
 0001:0001c970       _initterm                  000000014001d970 f   libucrtd:initterm.obj
 0001:0001c9e0       _initterm_e                000000014001d9e0 f   libucrtd:initterm.obj
 0001:0001ca60       ??$?B$$A6AXH@Z@__crt_fast_encoded_nullptr_t@@QEBAP6AXH@ZXZ 000000014001da60 f i libucrtd:signal.obj
 0001:0001ca60       ??$?B$$A6AXPEAXK0@Z@__crt_fast_encoded_nullptr_t@@QEBAP6AXPEAXK0@ZXZ 000000014001da60 f i libucrtd:exit.obj
 0001:0001ca60       ??$?B$$A6AXXZ@__crt_fast_encoded_nullptr_t@@QEBAP6AXXZXZ 000000014001da60 f i libucrtd:onexit.obj
 0001:0001ca60       ??$?BP6AXXZ@__crt_fast_encoded_nullptr_t@@QEBAPEAP6AXXZXZ 000000014001da60 f i libucrtd:onexit.obj
 0001:0001ca60       ??$?BX@__crt_fast_encoded_nullptr_t@@QEBAPEAXXZ 000000014001da60 f i libucrtd:initialization.obj
 0001:0001cb20       ??$__crt_get_proc_address@P6AXI@Z@@YAP6AXI@ZQEAUHINSTANCE__@@QEBD@Z 000000014001db20 f i libucrtd:exit.obj
 0001:0001cbc0       ??1?$__crt_unique_handle_t@U__crt_hmodule_traits@@@@QEAA@XZ 000000014001dbc0 f i libucrtd:exit.obj
 0001:0001cd40       ?__acrt_select_exit_lock@@YA?AW4__acrt_lock_id@@XZ 000000014001dd40 f i libucrtd:exit.obj
 0001:0001cd50       ?__crt_fast_encode_pointer@@YA?AU__crt_fast_encoded_nullptr_t@@$$T@Z 000000014001dd50 f i libucrtd:exit.obj
 0001:0001cd90       ?close@?$__crt_unique_handle_t@U__crt_hmodule_traits@@@@QEAAXXZ 000000014001dd90 f i libucrtd:exit.obj
 0001:0001cdd0       ?close@__crt_hmodule_traits@@SA_NPEAUHINSTANCE__@@@Z 000000014001ddd0 f i libucrtd:exit.obj
 0001:0001d0c0       __acrt_initialize_thread_local_exit_callback 000000014001e0c0 f   libucrtd:exit.obj
 0001:0001d0e0       _c_exit                    000000014001e0e0 f   libucrtd:exit.obj
 0001:0001d100       _cexit                     000000014001e100 f   libucrtd:exit.obj
 0001:0001d120       _exit                      000000014001e120 f   libucrtd:exit.obj
 0001:0001d140       _register_thread_local_exe_atexit_callback 000000014001e140 f   libucrtd:exit.obj
 0001:0001d190       exit                       000000014001e190 f   libucrtd:exit.obj
 0001:0001d1b0       ?value@?$dual_state_global@H@__crt_state_management@@QEAAAEAHXZ 000000014001e1b0 f i libucrtd:setmode.obj
 0001:0001d1b0       ?value@?$dual_state_global@J@__crt_state_management@@QEAAAEAJXZ 000000014001e1b0 f i libucrtd:new_mode.obj
 0001:0001d1d0       _get_fmode                 000000014001e1d0 f   libucrtd:setmode.obj
 0001:0001d2a0       _set_fmode                 000000014001e2a0 f   libucrtd:setmode.obj
 0001:0001d380       _setmode_nolock            000000014001e380 f   libucrtd:setmode.obj
 0001:0001d640       __acrt_initialize_command_line 000000014001e640 f   libucrtd:argv_data.obj
 0001:0001d670       __acrt_uninitialize_command_line 000000014001e670 f   libucrtd:argv_data.obj
 0001:0001d680       __p___argc                 000000014001e680 f   libucrtd:argv_data.obj
 0001:0001d690       __p___argv                 000000014001e690 f   libucrtd:argv_data.obj
 0001:0001d820       __acrt_set_locale_changed  000000014001e820 f   libucrtd:wsetlocale.obj
 0001:0001d830       __acrt_uninitialize_locale 000000014001e830 f   libucrtd:wsetlocale.obj
 0001:0001d860       __ascii_tolower            000000014001e860 f i libucrtd:wsetlocale.obj
 0001:0001d880       __ascii_towlower           000000014001e880 f i libucrtd:wsetlocale.obj
 0001:0001d8a0       _configthreadlocale        000000014001e8a0 f   libucrtd:wsetlocale.obj
 0001:0001da00       _query_new_mode            000000014001ea00 f   libucrtd:new_mode.obj
 0001:0001da20       _set_new_mode              000000014001ea20 f   libucrtd:new_mode.obj
 0001:0001daf0       __p__commode               000000014001eaf0 f   libucrtd:ncommode.obj
 0001:0001e1d0       _crt_atexit                000000014001f1d0 f   libucrtd:onexit.obj
 0001:0001e1f0       _execute_onexit_table      000000014001f1f0 f   libucrtd:onexit.obj
 0001:0001e230       _initialize_onexit_table   000000014001f230 f   libucrtd:onexit.obj
 0001:0001e2b0       _register_onexit_function  000000014001f2b0 f   libucrtd:onexit.obj
 0001:0001e5b0       __acrt_initialize          000000014001f5b0 f   libucrtd:initialization.obj
 0001:0001e5e0       __acrt_uninitialize        000000014001f5e0 f   libucrtd:initialization.obj
 0001:0001e610       terminate                  000000014001f610 f   libucrtd:terminate.obj
 0001:0001e660       ??0_LocaleUpdate@@QEAA@QEAU__crt_locale_pointers@@@Z 000000014001f660 f i libucrtd:debug_heap.obj
 0001:0001e780       ??1_LocaleUpdate@@QEAA@XZ  000000014001f780 f i libucrtd:debug_heap.obj
 0001:0001e7b0       ?GetLocaleT@_LocaleUpdate@@QEAAPEAU__crt_locale_pointers@@XZ 000000014001f7b0 f i libucrtd:debug_heap.obj
 0001:00020b60       _CrtCheckMemory            0000000140021b60 f   libucrtd:debug_heap.obj
 0001:00020cf0       _CrtDumpMemoryLeaks        0000000140021cf0 f   libucrtd:debug_heap.obj
 0001:00020db0       _CrtIsValidHeapPointer     0000000140021db0 f   libucrtd:debug_heap.obj
 0001:00020e00       _CrtIsValidPointer         0000000140021e00 f   libucrtd:debug_heap.obj
 0001:00020e40       _CrtMemCheckpoint          0000000140021e40 f   libucrtd:debug_heap.obj
 0001:000210c0       _CrtMemDumpAllObjectsSince 00000001400220c0 f   libucrtd:debug_heap.obj
 0001:00021120       _CrtSetDbgFlag             0000000140022120 f   libucrtd:debug_heap.obj
 0001:00021280       _CrtSetDumpClient          0000000140022280 f   libucrtd:debug_heap.obj
 0001:000212b0       __acrt_get_locale_data_prefix 00000001400222b0 f i libucrtd:debug_heap.obj
 0001:000212d0       _calloc_dbg                00000001400222d0 f   libucrtd:debug_heap.obj
 0001:00021370       _chvalidchk_l              0000000140022370 f i libucrtd:debug_heap.obj
 0001:000213a0       _free_dbg                  00000001400223a0 f   libucrtd:debug_heap.obj
 0001:00021410       _invoke_watson_if_oneof    0000000140022410 f i libucrtd:debug_heap.obj
 0001:00021470       _ischartype_l              0000000140022470 f i libucrtd:debug_heap.obj
 0001:00021500       _malloc_dbg                0000000140022500 f   libucrtd:debug_heap.obj
 0001:00021540       _msize_dbg                 0000000140022540 f   libucrtd:debug_heap.obj
 0001:000216e0       _realloc_dbg               00000001400226e0 f   libucrtd:debug_heap.obj
 0001:00021750       _recalloc_dbg              0000000140022750 f   libucrtd:debug_heap.obj
 0001:00021d30       strcpy_s                   0000000140022d30 f   libucrtd:strcpy_s.obj
 0001:00021d70       strcmp                     0000000140022d70 f   libucrtd:strcmp.obj
 0001:00021df0       strlen                     0000000140022df0 f   libucrtd:strlen.obj
 0001:00021ea0       abort                      0000000140022ea0 f   libucrtd:abort.obj
 0001:00021f20       ??$initialize_from_array@$$BY00Q6AXPEB_W00I_K@Z@?$dual_state_global@P6AXPEB_W00I_K@Z@__crt_state_management@@QEAAXAEAY00Q6AXPEB_W00I_K@Z@Z 0000000140022f20 f i libucrtd:invalid_parameter.obj
 0001:00021f80       ?check_synchronize_global_state_index@__crt_cached_ptd_host@@AEAA_KXZ 0000000140022f80 f i libucrtd:invalid_parameter.obj
 0001:00021fe0       ?get_current_global_state_index@__crt_cached_ptd_host@@QEAA_KXZ 0000000140022fe0 f i libucrtd:invalid_parameter.obj
 0001:00022000       ?get_raw_ptd_noexit@__crt_cached_ptd_host@@QEAAPEAU__acrt_ptd@@XZ 0000000140023000 f i libucrtd:invalid_parameter.obj
 0001:00022020       ?try_synchronize_per_thread_data@__crt_cached_ptd_host@@AEAAPEAU__acrt_ptd@@XZ 0000000140023020 f i libucrtd:invalid_parameter.obj
 0001:00022050       ?value@?$dual_state_global@P6AXPEB_W00I_K@Z@__crt_state_management@@QEAAAEAP6AXPEB_W00I_K@ZAEAV__crt_cached_ptd_host@@@Z 0000000140023050 f i libucrtd:invalid_parameter.obj
 0001:00022080       __acrt_call_reportfault    0000000140023080 f   libucrtd:invalid_parameter.obj
 0001:000221b0       __acrt_initialize_invalid_parameter_handler 00000001400231b0 f   libucrtd:invalid_parameter.obj
 0001:000221e0       _invalid_parameter         00000001400231e0 f   libucrtd:invalid_parameter.obj
 0001:00022250       _invalid_parameter_internal 0000000140023250 f   libucrtd:invalid_parameter.obj
 0001:000223a0       _invalid_parameter_noinfo  00000001400233a0 f   libucrtd:invalid_parameter.obj
 0001:000223d0       _invoke_watson             00000001400233d0 f   libucrtd:invalid_parameter.obj
 0001:000231e0       ??$get_module_file_name@AEAPEAUHINSTANCE__@@AEAY0BAF@_WK@?$__crt_char_traits@_W@@SAKAEAPEAUHINSTANCE__@@AEAY0BAF@_W$$QEAK@Z 00000001400241e0 f i libucrtd:dbgrpt.obj
 0001:00023220       ??$tcscpy_s@AEAY0BAF@D_KPEBD@?$__crt_char_traits@D@@SAHAEAY0BAF@D$$QEA_K$$QEAPEBD@Z 0000000140024220 f i libucrtd:dbgrpt.obj
 0001:00023260       ??$tcscpy_s@AEAY0BAF@_W_KPEB_W@?$__crt_char_traits@_W@@SAHAEAY0BAF@_W$$QEA_K$$QEAPEB_W@Z 0000000140024260 f i libucrtd:dbgrpt.obj
 0001:000232a0       ??$tcslen@AEAY0BAF@D@?$__crt_char_traits@D@@SA_KAEAY0BAF@D@Z 00000001400242a0 f i libucrtd:dbgrpt.obj
 0001:000232c0       ??$tcslen@AEAY0BAF@_W@?$__crt_char_traits@_W@@SA_KAEAY0BAF@_W@Z 00000001400242c0 f i libucrtd:dbgrpt.obj
 0001:000232e0       ??$tcslen@AEBQEB_W@?$__crt_char_traits@_W@@SA_KAEBQEB_W@Z 00000001400242e0 f i libucrtd:dbgrpt.obj
 0001:00023340       _CrtDbgReport              0000000140024340 f   libucrtd:dbgrpt.obj
 0001:000233c0       _CrtDbgReportW             00000001400243c0 f   libucrtd:dbgrpt.obj
 0001:00023440       __acrt_MessageWindowA      0000000140024440 f   libucrtd:dbgrpt.obj
 0001:00023490       __acrt_MessageWindowW      0000000140024490 f   libucrtd:dbgrpt.obj
 0001:000234e0       _snwprintf_s               00000001400244e0 f i libucrtd:dbgrpt.obj
 0001:00023550       _vsnwprintf_s_l            0000000140024550 f i libucrtd:dbgrpt.obj
 0001:000235e0       strncmp                    00000001400245e0 f   libucrtd:strncmp.obj
 0001:00023660       wcsncmp                    0000000140024660 f   libucrtd:wcsncmp.obj
 0001:000236f0       ?get_doserrno@__crt_cached_ptd_host@@QEAAAEAU?$cached@K@1@XZ 00000001400246f0 f i libucrtd:errno.obj
 0001:00023700       __acrt_errno_from_os_error 0000000140024700 f   libucrtd:errno.obj
 0001:00023790       __acrt_errno_map_os_error  0000000140024790 f   libucrtd:errno.obj
 0001:000237c0       __acrt_errno_map_os_error_ptd 00000001400247c0 f   libucrtd:errno.obj
 0001:00023820       __doserrno                 0000000140024820 f   libucrtd:errno.obj
 0001:00023850       _errno                     0000000140024850 f   libucrtd:errno.obj
 0001:00023f60       GetCurrentThreadEffectiveToken 0000000140024f60 f i libucrtd:winapi_thunks.obj
 0001:00023f70       __acrt_AppPolicyGetProcessTerminationMethodInternal 0000000140024f70 f   libucrtd:winapi_thunks.obj
 0001:00023fd0       __acrt_AppPolicyGetShowDeveloperDiagnosticInternal 0000000140024fd0 f   libucrtd:winapi_thunks.obj
 0001:00024030       __acrt_AppPolicyGetWindowingModelInternal 0000000140025030 f   libucrtd:winapi_thunks.obj
 0001:00024090       __acrt_AreFileApisANSI     0000000140025090 f   libucrtd:winapi_thunks.obj
 0001:000240e0       __acrt_CompareStringEx     00000001400250e0 f   libucrtd:winapi_thunks.obj
 0001:00024200       __acrt_FlsAlloc            0000000140025200 f   libucrtd:winapi_thunks.obj
 0001:00024220       __acrt_FlsFree             0000000140025220 f   libucrtd:winapi_thunks.obj
 0001:00024240       __acrt_FlsGetValue         0000000140025240 f   libucrtd:winapi_thunks.obj
 0001:00024260       __acrt_FlsSetValue         0000000140025260 f   libucrtd:winapi_thunks.obj
 0001:00024290       __acrt_InitializeCriticalSectionEx 0000000140025290 f   libucrtd:winapi_thunks.obj
 0001:00024310       __acrt_LCMapStringEx       0000000140025310 f   libucrtd:winapi_thunks.obj
 0001:00024420       __acrt_LocaleNameToLCID    0000000140025420 f   libucrtd:winapi_thunks.obj
 0001:00024490       __acrt_MessageBoxW         0000000140025490 f   libucrtd:winapi_thunks.obj
 0001:00024510       __acrt_can_show_message_box 0000000140025510 f   libucrtd:winapi_thunks.obj
 0001:00024550       __acrt_get_parent_window   0000000140025550 f   libucrtd:winapi_thunks.obj
 0001:000245f0       __acrt_initialize_winapi_thunks 00000001400255f0 f   libucrtd:winapi_thunks.obj
 0001:00024670       __acrt_is_interactive      0000000140025670 f   libucrtd:winapi_thunks.obj
 0001:00024780       __acrt_uninitialize_winapi_thunks 0000000140025780 f   libucrtd:winapi_thunks.obj
 0001:00024820       _fcloseall                 0000000140025820 f   libucrtd:closeall.obj
 0001:00024e90       __acrt_stdio_flush_nolock  0000000140025e90 f   libucrtd:fflush.obj
 0001:00024fb0       _fflush_nolock             0000000140025fb0 f   libucrtd:fflush.obj
 0001:00024ff0       _flushall                  0000000140025ff0 f   libucrtd:fflush.obj
 0001:00025000       __acrt_stdio_free_buffer_nolock 0000000140026000 f   libucrtd:_freebuf.obj
 0001:00025480       __acrt_initialize_lowio    0000000140026480 f   libucrtd:ioinit.obj
 0001:000254d0       __acrt_uninitialize_lowio  00000001400264d0 f   libucrtd:ioinit.obj
 0001:00025550       _fileno                    0000000140026550 f   libucrtd:fileno.obj
 0001:000258d0       _close_internal            00000001400268d0 f   libucrtd:close.obj
 0001:00025b90       _close_nolock              0000000140026b90 f   libucrtd:close.obj
 0001:00025bd0       _close_nolock_internal     0000000140026bd0 f   libucrtd:close.obj
 0001:00025c40       ??0__crt_stdio_stream@@QEAA@XZ 0000000140026c40 f i libucrtd:stream.obj
 0001:00025c60       ?__acrt_stdio_allocate_stream@@YA?AV__crt_stdio_stream@@XZ 0000000140026c60 f   libucrtd:stream.obj
 0001:00025d20       ?__acrt_stdio_free_stream@@YAXV__crt_stdio_stream@@@Z 0000000140026d20 f   libucrtd:stream.obj
 0001:00025dc0       ?deallocate@__crt_stdio_stream@@QEAAXXZ 0000000140026dc0 f i libucrtd:stream.obj
 0001:00025f90       ?lock@__crt_stdio_stream@@QEBAXXZ 0000000140026f90 f i libucrtd:stream.obj
 0001:00025fb0       ?try_allocate@__crt_stdio_stream@@QEAA_NXZ 0000000140026fb0 f i libucrtd:stream.obj
 0001:00026960       __acrt_getptd              0000000140027960 f   libucrtd:per_thread_data.obj
 0001:00026990       __acrt_getptd_head         0000000140027990 f   libucrtd:per_thread_data.obj
 0001:000269c0       __acrt_getptd_noexit       00000001400279c0 f   libucrtd:per_thread_data.obj
 0001:000269d0       __acrt_getptd_noexit_explicit 00000001400279d0 f   libucrtd:per_thread_data.obj
 0001:00026a00       __acrt_initialize_ptd      0000000140027a00 f   libucrtd:per_thread_data.obj
 0001:00026a40       __acrt_uninitialize_ptd    0000000140027a40 f   libucrtd:per_thread_data.obj
 0001:00026a70       ??$__acrt_stdio_parse_mode@D@@YA?AU__acrt_stdio_stream_mode@@QEBD@Z 0000000140027a70 f i libucrtd:openfile.obj
 0001:000277d0       ??$tcsncmp@AEAPEBDAEAY02$$CBD_K@?$__crt_char_traits@D@@SAHAEAPEBDAEAY02$$CBD$$QEA_K@Z 00000001400287d0 f i libucrtd:openfile.obj
 0001:00027810       ??$tcsnicmp@AEAPEBDAEAY04$$CBD_K@?$__crt_char_traits@D@@SAHAEAPEBDAEAY04$$CBD$$QEA_K@Z 0000000140028810 f i libucrtd:openfile.obj
 0001:00027810       ??$tcsnicmp@AEAPEBDAEAY06$$CBD_K@?$__crt_char_traits@D@@SAHAEAPEBDAEAY06$$CBD$$QEA_K@Z 0000000140028810 f i libucrtd:openfile.obj
 0001:00027810       ??$tcsnicmp@AEAPEBDAEAY07$$CBD_K@?$__crt_char_traits@D@@SAHAEAPEBDAEAY07$$CBD$$QEA_K@Z 0000000140028810 f i libucrtd:openfile.obj
 0001:00027850       ??$tsopen_s@PEAHAEBQEBDAEBHAEBHH@?$__crt_char_traits@D@@SAH$$QEAPEAHAEBQEBDAEBH2$$QEAH@Z 0000000140028850 f i libucrtd:openfile.obj
 0001:000278a0       ?__acrt_stdio_parse_mode_D@@YA_NAEAU__acrt_stdio_stream_mode@@@Z 00000001400288a0 f i libucrtd:openfile.obj
 0001:000278d0       ?__acrt_stdio_parse_mode_N@@YA_NAEAU__acrt_stdio_stream_mode@@@Z 00000001400288d0 f i libucrtd:openfile.obj
 0001:000278f0       ?__acrt_stdio_parse_mode_R@@YA_NAEAU__acrt_stdio_stream_mode@@AEA_N@Z 00000001400288f0 f i libucrtd:openfile.obj
 0001:00027930       ?__acrt_stdio_parse_mode_S@@YA_NAEAU__acrt_stdio_stream_mode@@AEA_N@Z 0000000140028930 f i libucrtd:openfile.obj
 0001:00027970       ?__acrt_stdio_parse_mode_T@@YA_NAEAU__acrt_stdio_stream_mode@@@Z 0000000140028970 f i libucrtd:openfile.obj
 0001:000279a0       ?__acrt_stdio_parse_mode_b@@YA_NAEAU__acrt_stdio_stream_mode@@@Z 00000001400289a0 f i libucrtd:openfile.obj
 0001:000279d0       ?__acrt_stdio_parse_mode_c@@YA_NAEAU__acrt_stdio_stream_mode@@AEA_N@Z 00000001400289d0 f i libucrtd:openfile.obj
 0001:00027a10       ?__acrt_stdio_parse_mode_n@@YA_NAEAU__acrt_stdio_stream_mode@@AEA_N@Z 0000000140028a10 f i libucrtd:openfile.obj
 0001:00027a50       ?__acrt_stdio_parse_mode_plus@@YA_NAEAU__acrt_stdio_stream_mode@@AEA_N@Z 0000000140028a50 f i libucrtd:openfile.obj
 0001:00027ad0       ?__acrt_stdio_parse_mode_t@@YA_NAEAU__acrt_stdio_stream_mode@@@Z 0000000140028ad0 f i libucrtd:openfile.obj
 0001:00027b00       ?__acrt_stdio_parse_mode_x@@YA_NAEAU__acrt_stdio_stream_mode@@@Z 0000000140028b00 f i libucrtd:openfile.obj
 0001:00027b30       _openfile                  0000000140028b30 f   libucrtd:openfile.obj
 0001:00028a40       _read                      0000000140029a40 f   libucrtd:read.obj
 0001:00028d90       _read_nolock               0000000140029d90 f   libucrtd:read.obj
 0001:00029ff0       __acrt_stdio_refill_and_read_narrow_nolock 000000014002aff0 f   libucrtd:_filbuf.obj
 0001:0002a560       _lseeki64                  000000014002b560 f   libucrtd:lseek.obj
 0001:0002a5c0       _lseeki64_internal         000000014002b5c0 f   libucrtd:lseek.obj
 0001:0002a600       _lseeki64_nolock           000000014002b600 f   libucrtd:lseek.obj
 0001:0002a660       _lseeki64_nolock_internal  000000014002b660 f   libucrtd:lseek.obj
 0001:0002beb0       _isleadbyte_fast_internal  000000014002ceb0 f i libucrtd:write.obj
 0001:0002bee0       _write                     000000014002cee0 f   libucrtd:write.obj
 0001:0002bf40       _write_internal            000000014002cf40 f   libucrtd:write.obj
 0001:0002c2e0       _write_nolock              000000014002d2e0 f   libucrtd:write.obj
 0001:0002cfd0       __acrt_stdio_flush_and_write_narrow_nolock 000000014002dfd0 f   libucrtd:_flsbuf.obj
 0001:0002d010       ?has_temporary_buffer@__crt_stdio_stream@@QEBA_NXZ 000000014002e010 f i libucrtd:_sftbuf.obj
 0001:0002d030       __acrt_should_use_temporary_buffer 000000014002e030 f   libucrtd:_sftbuf.obj
 0001:0002d080       __acrt_stdio_begin_temporary_buffering_nolock 000000014002e080 f   libucrtd:_sftbuf.obj
 0001:0002d2e0       __acrt_stdio_end_temporary_buffering_nolock 000000014002e2e0 f   libucrtd:_sftbuf.obj
 0001:0002d380       __sys_errlist              000000014002e380 f   libucrtd:syserr.obj
 0001:0002d390       __sys_nerr                 000000014002e390 f   libucrtd:syserr.obj
 0001:0002d3a0       __acrt_lowio_create_handle_array 000000014002e3a0 f   libucrtd:osfinfo.obj
 0001:0002d560       __acrt_lowio_destroy_handle_array 000000014002e560 f   libucrtd:osfinfo.obj
 0001:0002d5e0       __acrt_lowio_ensure_fh_exists 000000014002e5e0 f   libucrtd:osfinfo.obj
 0001:0002d740       __acrt_lowio_lock_fh       000000014002e740 f   libucrtd:osfinfo.obj
 0001:0002d780       __acrt_lowio_set_os_handle 000000014002e780 f   libucrtd:osfinfo.obj
 0001:0002d890       __acrt_lowio_unlock_fh     000000014002e890 f   libucrtd:osfinfo.obj
 0001:0002d8d0       _alloc_osfhnd              000000014002e8d0 f   libucrtd:osfinfo.obj
 0001:0002dae0       _free_osfhnd               000000014002eae0 f   libucrtd:osfinfo.obj
 0001:0002dc10       _get_osfhandle             000000014002ec10 f   libucrtd:osfinfo.obj
 0001:0002de10       _CrtGetDebugFillThreshold  000000014002ee10 f   libucrtd:debug_fill_threshold.obj
 0001:0002f180       ??1?$__crt_simd_cleanup_guard@$00@@QEAA@XZ 0000000140030180 f i libucrtd:strnlen.obj
 0001:0002f190       ?compare_equals@?$__crt_simd_traits@$00E@@SA?AT__m256i@@T2@0@Z 0000000140030190 f i libucrtd:strnlen.obj
 0001:0002f1d0       ?compare_equals@?$__crt_simd_traits@$00G@@SA?AT__m256i@@T2@0@Z 00000001400301d0 f i libucrtd:strnlen.obj
 0001:0002f210       ?compare_equals@?$__crt_simd_traits@$0A@E@@SA?AT__m128i@@T2@0@Z 0000000140030210 f i libucrtd:strnlen.obj
 0001:0002f240       ?compare_equals@?$__crt_simd_traits@$0A@G@@SA?AT__m128i@@T2@0@Z 0000000140030240 f i libucrtd:strnlen.obj
 0001:0002f270       ?compute_byte_mask@?$__crt_simd_pack_traits@$00@@SAHT__m256i@@@Z 0000000140030270 f i libucrtd:strnlen.obj
 0001:0002f290       ?compute_byte_mask@?$__crt_simd_pack_traits@$0A@@@SAHT__m128i@@@Z 0000000140030290 f i libucrtd:strnlen.obj
 0001:0002f2b0       ?get_zero_pack@?$__crt_simd_pack_traits@$00@@SA?AT__m256i@@XZ 00000001400302b0 f i libucrtd:strnlen.obj
 0001:0002f2e0       ?get_zero_pack@?$__crt_simd_pack_traits@$0A@@@SA?AT__m128i@@XZ 00000001400302e0 f i libucrtd:strnlen.obj
 0001:0002f300       strnlen                    0000000140030300 f   libucrtd:strnlen.obj
 0001:0002f330       wcslen                     0000000140030330 f   libucrtd:strnlen.obj
 0001:0002f350       wcsnlen                    0000000140030350 f   libucrtd:strnlen.obj
 0001:0002f380       ?value_explicit@?$dual_state_global@PEAU__crt_locale_data@@@__crt_state_management@@QEAAAEAPEAU__crt_locale_data@@_K@Z 0000000140030380 f i libucrtd:locale_update.obj
 0001:0002f380       ?value_explicit@?$dual_state_global@PEAU__crt_multibyte_data@@@__crt_state_management@@QEAAAEAPEAU__crt_multibyte_data@@_K@Z 0000000140030380 f i libucrtd:locale_update.obj
 0001:0002f3a0       __acrt_should_sync_with_global_locale 00000001400303a0 f i libucrtd:locale_update.obj
 0001:0002f3e0       __acrt_update_locale_info  00000001400303e0 f   libucrtd:locale_update.obj
 0001:0002f430       __acrt_update_locale_info_explicit 0000000140030430 f   libucrtd:locale_update.obj
 0001:0002f490       __acrt_update_multibyte_info 0000000140030490 f   libucrtd:locale_update.obj
 0001:0002f4e0       __acrt_update_multibyte_info_explicit 00000001400304e0 f   libucrtd:locale_update.obj
 0001:0002f540       ?__acrt_fp_classify@@YA?AW4__acrt_fp_class@@AEBN@Z 0000000140030540 f i libucrtd:cvt.obj
 0001:0002f640       ?__acrt_fp_is_negative@@YA_NAEBN@Z 0000000140030640 f i libucrtd:cvt.obj
 0001:00030f60       ?strrchr@@YAPEADQEADH@Z    0000000140031f60 f i libucrtd:cvt.obj
 0001:00030f80       __acrt_fp_format           0000000140031f80 f   libucrtd:cvt.obj
 0001:00031640       ?value_or@?$cached@H@__crt_cached_ptd_host@@QEBAHH@Z 0000000140032640 f i libucrtd:wctomb.obj
 0001:00031670       _wctomb_internal           0000000140032670 f   libucrtd:wctomb.obj
 0001:00031bd0       _mbtowc_internal           0000000140032bd0 f   libucrtd:mbtowc.obj
 0001:00031f60       _get_printf_count_output   0000000140032f60 f   libucrtd:printf_count_output.obj
 0001:00031f90       _fputc_nolock_internal     0000000140032f90 f   libucrtd:fputc.obj
 0001:00032050       _set_error_mode            0000000140033050 f   libucrtd:set_error_mode.obj
 0001:000327e0       wcscat_s                   00000001400337e0 f   libucrtd:wcscat_s.obj
 0001:00032d10       wcscpy_s                   0000000140033d10 f   libucrtd:wcscpy_s.obj
 0001:000333f0       wcsncpy_s                  00000001400343f0 f   libucrtd:wcsncpy_s.obj
 0001:00033570       ??$message_box@$$TAEBQEB_WAEBQEB_WK@?$__crt_char_traits@_W@@SAH$$QEA$$TAEBQEB_W1$$QEAK@Z 0000000140034570 f i libucrtd:crtmbox.obj
 0001:00033570       ??$message_box@PEAUHWND__@@AEBQEB_WAEBQEB_WAEBI@?$__crt_char_traits@_W@@SAH$$QEAPEAUHWND__@@AEBQEB_W1AEBI@Z 0000000140034570 f i libucrtd:crtmbox.obj
 0001:000335c0       ??$output_debug_string@AEBQEB_W@?$__crt_char_traits@_W@@SAXAEBQEB_W@Z 00000001400345c0 f i libucrtd:crtmbox.obj
 0001:000335e0       __acrt_show_wide_message_box 00000001400345e0 f   libucrtd:crtmbox.obj
 0001:00033640       ??$__acrt_convert_wcs_mbs_cp@D_WV<lambda_7c9dea7b4ca7285d2cdb541a38da6275>@@U__crt_win32_buffer_internal_dynamic_resizing@@@@YAHQEBDAEAV?$__crt_win32_buffer@_WU__crt_win32_buffer_internal_dynamic_resizing@@@@AEBV<lambda_7c9dea7b4ca7285d2cdb541a38da6275>@@I@Z 0000000140034640 f i libucrtd:argv_wildcards.obj
 0001:000337f0       ??$__acrt_convert_wcs_mbs_cp@_WDV<lambda_d8593a27d1aa8c02be35c86a17d324c4>@@U__crt_win32_buffer_internal_dynamic_resizing@@@@YAHQEB_WAEAV?$__crt_win32_buffer@DU__crt_win32_buffer_internal_dynamic_resizing@@@@AEBV<lambda_d8593a27d1aa8c02be35c86a17d324c4>@@I@Z 00000001400347f0 f i libucrtd:argv_wildcards.obj
 0001:000339a0       ??$__acrt_mbs_to_wcs_cp@U__crt_win32_buffer_internal_dynamic_resizing@@@@YAHQEBDAEAV?$__crt_win32_buffer@_WU__crt_win32_buffer_internal_dynamic_resizing@@@@I@Z 00000001400349a0 f i libucrtd:argv_wildcards.obj
 0001:000339f0       ??$__acrt_wcs_to_mbs_cp@U__crt_win32_buffer_internal_dynamic_resizing@@@@YAHQEB_WAEAV?$__crt_win32_buffer@DU__crt_win32_buffer_internal_dynamic_resizing@@@@I@Z 00000001400349f0 f i libucrtd:argv_wildcards.obj
 0001:00034430       ??$tcsncpy_s@AEAPEAD_KAEAPEADAEB_K@?$__crt_char_traits@D@@SAHAEAPEAD$$QEA_K0AEB_K@Z 0000000140035430 f i libucrtd:argv_wildcards.obj
 0001:00034430       ??$tcsncpy_s@PEADAEB_KAEBQEBDAEB_K@?$__crt_char_traits@D@@SAH$$QEAPEADAEB_KAEBQEBD1@Z 0000000140035430 f i libucrtd:argv_wildcards.obj
 0001:00034430       ??$tcsncpy_s@PEAD_KAEBQEBDAEB_K@?$__crt_char_traits@D@@SAH$$QEAPEAD$$QEA_KAEBQEBDAEB_K@Z 0000000140035430 f i libucrtd:argv_wildcards.obj
 0001:00034480       ??$tcspbrk@AEAPEADAEAY02$$CBD@?$__crt_char_traits@D@@SAPEADAEAPEADAEAY02$$CBD@Z 0000000140035480 f i libucrtd:argv_wildcards.obj
 0001:000344b0       ??0?$__crt_win32_buffer@DU__crt_win32_buffer_internal_dynamic_resizing@@@@QEAA@XZ 00000001400354b0 f i libucrtd:argv_wildcards.obj
 0001:000344b0       ??0?$__crt_win32_buffer@_WU__crt_win32_buffer_internal_dynamic_resizing@@@@QEAA@XZ 00000001400354b0 f i libucrtd:argv_wildcards.obj
 0001:00034550       ??1?$__crt_unique_handle_t@U__crt_findfile_traits@@@@QEAA@XZ 0000000140035550 f i libucrtd:argv_wildcards.obj
 0001:00034570       ??1?$__crt_win32_buffer@DU__crt_win32_buffer_internal_dynamic_resizing@@@@QEAA@XZ 0000000140035570 f i libucrtd:argv_wildcards.obj
 0001:00034570       ??1?$__crt_win32_buffer@_WU__crt_win32_buffer_internal_dynamic_resizing@@@@QEAA@XZ 0000000140035570 f i libucrtd:argv_wildcards.obj
 0001:00034620       ??R<lambda_7c9dea7b4ca7285d2cdb541a38da6275>@@QEBAHIQEBDQEA_W_K@Z 0000000140035620 f i libucrtd:argv_wildcards.obj
 0001:00034700       ??R<lambda_d8593a27d1aa8c02be35c86a17d324c4>@@QEBAHIQEB_WQEAD_K@Z 0000000140035700 f i libucrtd:argv_wildcards.obj
 0001:00034700       ??R<lambda_f788ae46380686e8b737efdd8c720d07>@@QEBAHIQEB_WQEAD_K@Z 0000000140035700 f i libucrtd:getmodulefilenamea.obj
 0001:00034760       ?__acrt_get_utf8_acp_compatibility_codepage@@YAIXZ 0000000140035760 f i libucrtd:argv_wildcards.obj
 0001:00034800       ?_deallocate@?$__crt_win32_buffer@DU__crt_win32_buffer_internal_dynamic_resizing@@@@AEAAXXZ 0000000140035800 f i libucrtd:argv_wildcards.obj
 0001:00034800       ?_deallocate@?$__crt_win32_buffer@_WU__crt_win32_buffer_internal_dynamic_resizing@@@@AEAAXXZ 0000000140035800 f i libucrtd:argv_wildcards.obj
 0001:00034850       ?allocate@?$__crt_win32_buffer@DU__crt_win32_buffer_internal_dynamic_resizing@@@@QEAAH_K@Z 0000000140035850 f i libucrtd:argv_wildcards.obj
 0001:000348d0       ?allocate@?$__crt_win32_buffer@_WU__crt_win32_buffer_internal_dynamic_resizing@@@@QEAAH_K@Z 00000001400358d0 f i libucrtd:argv_wildcards.obj
 0001:00034960       ?allocate@__crt_win32_buffer_internal_dynamic_resizing@@SAHQEAPEAX_KAEBV__crt_win32_buffer_empty_debug_info@@@Z 0000000140035960 f i libucrtd:argv_wildcards.obj
 0001:00034a30       ?capacity@?$__crt_win32_buffer@DU__crt_win32_buffer_internal_dynamic_resizing@@@@QEBA_KXZ 0000000140035a30 f i libucrtd:argv_wildcards.obj
 0001:00034a30       ?capacity@?$__crt_win32_buffer@DU__crt_win32_buffer_no_resizing@@@@QEBA_KXZ 0000000140035a30 f i libucrtd:getmodulefilenamea.obj
 0001:00034a30       ?capacity@?$__crt_win32_buffer@_WU__crt_win32_buffer_internal_dynamic_resizing@@@@QEBA_KXZ 0000000140035a30 f i libucrtd:argv_wildcards.obj
 0001:00034a40       ?close@?$__crt_unique_handle_t@U__crt_findfile_traits@@@@QEAAXXZ 0000000140035a40 f i libucrtd:argv_wildcards.obj
 0001:00034a80       ?close@__crt_findfile_traits@@SA_NPEAX@Z 0000000140035a80 f i libucrtd:argv_wildcards.obj
 0001:00034ac0       ?data@?$__crt_win32_buffer@DU__crt_win32_buffer_internal_dynamic_resizing@@@@QEAAPEADXZ 0000000140035ac0 f i libucrtd:argv_wildcards.obj
 0001:00034ac0       ?data@?$__crt_win32_buffer@DU__crt_win32_buffer_no_resizing@@@@QEAAPEADXZ 0000000140035ac0 f i libucrtd:getmodulefilenamea.obj
 0001:00034ac0       ?data@?$__crt_win32_buffer@_WU__crt_win32_buffer_internal_dynamic_resizing@@@@QEAAPEA_WXZ 0000000140035ac0 f i libucrtd:argv_wildcards.obj
 0001:00034ad0       ?deallocate@__crt_win32_buffer_internal_dynamic_resizing@@SAXQEAXAEBV__crt_win32_buffer_empty_debug_info@@@Z 0000000140035ad0 f i libucrtd:argv_wildcards.obj
 0001:00034dc0       ?set_to_nullptr@?$__crt_win32_buffer@DU__crt_win32_buffer_internal_dynamic_resizing@@@@QEAAXXZ 0000000140035dc0 f i libucrtd:argv_wildcards.obj
 0001:00034dc0       ?set_to_nullptr@?$__crt_win32_buffer@_WU__crt_win32_buffer_internal_dynamic_resizing@@@@QEAAXXZ 0000000140035dc0 f i libucrtd:argv_wildcards.obj
 0001:00034e00       ?size@?$__crt_win32_buffer@DU__crt_win32_buffer_internal_dynamic_resizing@@@@QEAAX_K@Z 0000000140035e00 f i libucrtd:argv_wildcards.obj
 0001:00034e00       ?size@?$__crt_win32_buffer@DU__crt_win32_buffer_no_resizing@@@@QEAAX_K@Z 0000000140035e00 f i libucrtd:getmodulefilenamea.obj
 0001:00034e00       ?size@?$__crt_win32_buffer@_WU__crt_win32_buffer_internal_dynamic_resizing@@@@QEAAX_K@Z 0000000140035e00 f i libucrtd:argv_wildcards.obj
 0001:00034e40       ?strpbrk@@YAPEADQEADQEBD@Z 0000000140035e40 f i libucrtd:argv_wildcards.obj
 0001:00034e70       __acrt_expand_narrow_argv_wildcards 0000000140035e70 f   libucrtd:argv_wildcards.obj
 0001:00034ea0       ??$__acrt_convert_wcs_mbs_cp@_WDV<lambda_f788ae46380686e8b737efdd8c720d07>@@U__crt_win32_buffer_no_resizing@@@@YAHQEB_WAEAV?$__crt_win32_buffer@DU__crt_win32_buffer_no_resizing@@@@AEBV<lambda_f788ae46380686e8b737efdd8c720d07>@@I@Z 0000000140035ea0 f i libucrtd:getmodulefilenamea.obj
 0001:00035050       ??$__acrt_wcs_to_mbs_cp@U__crt_win32_buffer_no_resizing@@@@YAHQEB_WAEAV?$__crt_win32_buffer@DU__crt_win32_buffer_no_resizing@@@@I@Z 0000000140036050 f i libucrtd:getmodulefilenamea.obj
 0001:000350a0       ??0?$__crt_win32_buffer@DU__crt_win32_buffer_no_resizing@@@@QEAA@QEAD_K@Z 00000001400360a0 f i libucrtd:getmodulefilenamea.obj
 0001:00035110       ??1?$__crt_win32_buffer@DU__crt_win32_buffer_no_resizing@@@@QEAA@XZ 0000000140036110 f i libucrtd:getmodulefilenamea.obj
 0001:00035140       ?_deallocate@?$__crt_win32_buffer@DU__crt_win32_buffer_no_resizing@@@@AEAAXXZ 0000000140036140 f i libucrtd:getmodulefilenamea.obj
 0001:00035190       ?allocate@?$__crt_win32_buffer@DU__crt_win32_buffer_no_resizing@@@@QEAAH_K@Z 0000000140036190 f i libucrtd:getmodulefilenamea.obj
 0001:00035210       ?allocate@__crt_win32_buffer_no_resizing@@SAHQEAPEAX_KAEBV__crt_win32_buffer_empty_debug_info@@@Z 0000000140036210 f i libucrtd:getmodulefilenamea.obj
 0001:00035240       ?deallocate@__crt_win32_buffer_no_resizing@@SAXQEAXAEBV__crt_win32_buffer_empty_debug_info@@@Z 0000000140036240 f i libucrtd:getmodulefilenamea.obj
 0001:00035250       ?set_to_nullptr@?$__crt_win32_buffer@DU__crt_win32_buffer_no_resizing@@@@QEAAXXZ 0000000140036250 f i libucrtd:getmodulefilenamea.obj
 0001:00035290       ?size@?$__crt_win32_buffer@DU__crt_win32_buffer_no_resizing@@@@QEBA_KXZ 0000000140036290 f i libucrtd:getmodulefilenamea.obj
 0001:000352a0       __acrt_GetModuleFileNameA  00000001400362a0 f   libucrtd:getmodulefilenamea.obj
 0001:00035420       ??$initialize_from_array@$$BY10BAA@E@?$dual_state_global@PEAE@__crt_state_management@@QEAAXAEAY10BAA@E@Z 0000000140036420 f i libucrtd:mbctype.obj
 0001:00035490       ??$initialize_from_array@$$BY10BAB@E@?$dual_state_global@PEAE@__crt_state_management@@QEAAXAEAY10BAB@E@Z 0000000140036490 f i libucrtd:mbctype.obj
 0001:00036030       __acrt_initialize_multibyte 0000000140037030 f   libucrtd:mbctype.obj
 0001:00036100       __acrt_update_thread_multibyte_data 0000000140037100 f   libucrtd:mbctype.obj
 0001:00036140       _setmbcp_nolock            0000000140037140 f   libucrtd:mbctype.obj
 0001:000366f0       _ismbblead                 00000001400376f0 f   libucrtd:ismbbyte.obj
 0001:000367c0       __acrt_MultiByteToWideChar 00000001400377c0 f   libucrtd:multibytetowidechar.obj
 0001:000368c0       __acrt_WideCharToMultiByte 00000001400378c0 f   libucrtd:widechartomultibyte.obj
 0001:00036b00       __dcrt_get_narrow_environment_from_os 0000000140037b00 f   libucrtd:get_environment_from_os.obj
 0001:000378a0       ??$get_or_create_environment_nolock@$$V@?$__crt_char_traits@D@@SAPEAPEADXZ 00000001400388a0 f i libucrtd:setenv.obj
 0001:000378b0       ??$set_environment_variable@AEBQEADQEAD@?$__crt_char_traits@D@@SAHAEBQEAD$$QEBQEAD@Z 00000001400388b0 f i libucrtd:setenv.obj
 0001:000378e0       ??$tcschr@AEBQEADD@?$__crt_char_traits@D@@SAPEADAEBQEAD$$QEAD@Z 00000001400388e0 f i libucrtd:setenv.obj
 0001:00037920       ??$tcsnicoll@AEBQEBDAEAPEADAEB_K@?$__crt_char_traits@D@@SAHAEBQEBDAEAPEADAEB_K@Z 0000000140038920 f i libucrtd:setenv.obj
 0001:00037960       ??$tcsnlen@PEADH@?$__crt_char_traits@D@@SA_K$$QEAPEAD$$QEAH@Z 0000000140038960 f i libucrtd:setenv.obj
 0001:000379b0       ?strchr@@YAPEADQEADH@Z     00000001400389b0 f i libucrtd:setenv.obj
 0001:000379d0       __dcrt_set_variable_in_narrow_environment_nolock 00000001400389d0 f   libucrtd:setenv.obj
 0001:000379f0       __acrt_initialize_locks    00000001400389f0 f   libucrtd:locks.obj
 0001:00037a60       __acrt_lock                0000000140038a60 f   libucrtd:locks.obj
 0001:00037a90       __acrt_uninitialize_locks  0000000140038a90 f   libucrtd:locks.obj
 0001:00037af0       __acrt_unlock              0000000140038af0 f   libucrtd:locks.obj
 0001:00037e00       __acrt_get_developer_information_policy 0000000140038e00 f   libucrtd:win_policies.obj
 0001:00037e20       __acrt_get_process_end_policy 0000000140038e20 f   libucrtd:win_policies.obj
 0001:00037e30       __acrt_get_windowing_model_policy 0000000140038e30 f   libucrtd:win_policies.obj
 0001:00037e50       __acrt_initialize_fmode    0000000140038e50 f   libucrtd:txtmode.obj
 0001:00037eb0       __acrt_locale_free_monetary 0000000140038eb0 f   libucrtd:initmon.obj
 0001:000380c0       __acrt_locale_free_numeric 00000001400390c0 f   libucrtd:initnum.obj
 0001:00038260       __acrt_locale_free_time    0000000140039260 f   libucrtd:inittime.obj
 0001:000383d0       _chvalidator_l             00000001400393d0 f   libucrtd:isctype.obj
 0001:00038480       _isctype_l                 0000000140039480 f   libucrtd:isctype.obj
 0001:000386b0       ??1?$__crt_scoped_stack_ptr@_W@@QEAA@XZ 00000001400396b0 f i libucrtd:getstringtypea.obj
 0001:000386d0       _MallocaComputeSize        00000001400396d0 f i libucrtd:getstringtypea.obj
 0001:00038710       _MarkAllocaS               0000000140039710 f i libucrtd:getstringtypea.obj
 0001:00038740       __acrt_GetStringTypeA      0000000140039740 f   libucrtd:getstringtypea.obj
 0001:000389a0       _freea_crt                 00000001400399a0 f i libucrtd:getstringtypea.obj
 0001:00038a40       __acrt_add_locale_ref      0000000140039a40 f   libucrtd:locale_refcounting.obj
 0001:00038ba0       __acrt_free_locale         0000000140039ba0 f   libucrtd:locale_refcounting.obj
 0001:00038f20       __acrt_locale_add_lc_time_reference 0000000140039f20 f   libucrtd:locale_refcounting.obj
 0001:00038f60       __acrt_locale_free_lc_time_if_unreferenced 0000000140039f60 f   libucrtd:locale_refcounting.obj
 0001:00038fc0       __acrt_locale_release_lc_time_reference 0000000140039fc0 f   libucrtd:locale_refcounting.obj
 0001:00039000       __acrt_release_locale_ref  000000014003a000 f   libucrtd:locale_refcounting.obj
 0001:00039170       __acrt_update_thread_locale_data 000000014003a170 f   libucrtd:locale_refcounting.obj
 0001:00039210       _updatetlocinfoEx_nolock   000000014003a210 f   libucrtd:locale_refcounting.obj
 0001:000392b0       __acrt_initialize_heap     000000014003a2b0 f   libucrtd:heap_handle.obj
 0001:000392e0       __acrt_uninitialize_heap   000000014003a2e0 f   libucrtd:heap_handle.obj
 0001:00039300       __acrt_execute_initializers 000000014003a300 f   libucrtd:shared_initialization.obj
 0001:00039400       __acrt_execute_uninitializers 000000014003a400 f   libucrtd:shared_initialization.obj
 0001:00039490       __acrt_initialize_new_handler 000000014003a490 f   libucrtd:new_handler.obj
 0001:000394b0       _callnewh                  000000014003a4b0 f   libucrtd:new_handler.obj
 0001:00039510       _query_new_handler         000000014003a510 f   libucrtd:new_handler.obj
 0001:00039720       __acrt_get_sigabrt_handler 000000014003a720 f   libucrtd:signal.obj
 0001:00039750       __acrt_initialize_signal_handlers 000000014003a750 f   libucrtd:signal.obj
 0001:000397b0       __fpecode                  000000014003a7b0 f   libucrtd:signal.obj
 0001:000397d0       raise                      000000014003a7d0 f   libucrtd:signal.obj
 0001:00039cd0       _free_base                 000000014003acd0 f   libucrtd:free_base.obj
 0001:00039d30       _realloc_base              000000014003ad30 f   libucrtd:realloc_base.obj
 0001:00039e50       _expand_base               000000014003ae50 f   libucrtd:expand.obj
 0001:00039fe0       _CrtDefaultAllocHook       000000014003afe0 f   libucrtd:debug_heap_hook.obj
 0001:0003a000       _VCrtDbgReportA            000000014003b000 f   libucrtd:dbgrptt.obj
 0001:0003aa40       _VCrtDbgReportW            000000014003ba40 f   libucrtd:dbgrptt.obj
 0001:0003b650       _snprintf_s                000000014003c650 f i libucrtd:dbgrptt.obj
 0001:0003b6c0       _vsnprintf_s               000000014003c6c0 f i libucrtd:dbgrptt.obj
 0001:0003b710       _vsnprintf_s_l             000000014003c710 f i libucrtd:dbgrptt.obj
 0001:0003b840       __acrt_DownlevelLocaleNameToLCID 000000014003c840 f   libucrtd:lcidtoname_downlevel.obj
 0001:0003ba20       _commit                    000000014003ca20 f   libucrtd:commit.obj
 0001:0003bc00       __ascii_wcsnicmp           000000014003cc00 f   libucrtd:wcsnicmp.obj
 0001:0003bcd0       __ascii_strnicmp           000000014003ccd0 f   libucrtd:strnicmp.obj
 0001:0003bda0       _strnicmp                  000000014003cda0 f   libucrtd:strnicmp.obj
 0001:0003bff0       _strnicmp_l                000000014003cff0 f   libucrtd:strnicmp.obj
 0001:0003c6b0       ??$tsopen_nolock@PEAHAEBQEAHAEBQEBDAEBHAEBHAEBHAEBH@?$__crt_char_traits@D@@SAH$$QEAPEAHAEBQEAHAEBQEBDAEBH333@Z 000000014003d6b0 f i libucrtd:open.obj
 0001:0003d400       _sopen_dispatch            000000014003e400 f   libucrtd:open.obj
 0001:0003d450       _sopen_nolock              000000014003e450 f   libucrtd:open.obj
 0001:0003d520       _sopen_s                   000000014003e520 f   libucrtd:open.obj
 0001:0003d570       _wsopen_nolock             000000014003e570 f   libucrtd:open.obj
 0001:0003dce0       _isatty                    000000014003ece0 f   libucrtd:isatty.obj
 0001:0003ddf0       __acrt_stdio_allocate_buffer_nolock 000000014003edf0 f   libucrtd:_getbuf.obj
 0001:0003dfe0       ?__mbrtowc_utf8@__crt_mbstring@@YA_KPEA_WPEBD_KPEAU_Mbstatet@@AEAV__crt_cached_ptd_host@@@Z 000000014003efe0 f   libucrtd:mbrtowc.obj
 0001:0003e060       ?__mbsrtowcs_utf8@__crt_mbstring@@YA_KPEA_WPEAPEBD_KPEAU_Mbstatet@@AEAV__crt_cached_ptd_host@@@Z 000000014003f060 f   libucrtd:mbrtowc.obj
 0001:0003e3b0       _putwch_nolock             000000014003f3b0 f   libucrtd:putwch.obj
 0001:0003e5b0       __acrt_fp_strflt_to_string 000000014003f5b0 f   libucrtd:_fptostr.obj
 0001:0003f170       ??0big_integer@__crt_strtox@@QEAA@AEBU01@@Z 0000000140040170 f i libucrtd:cfout.obj
 0001:0003f170       ??4big_integer@__crt_strtox@@QEAAAEAU01@AEBU01@@Z 0000000140040170 f i libucrtd:cfout.obj
 0001:0003f1d0       ??0big_integer@__crt_strtox@@QEAA@XZ 00000001400401d0 f i libucrtd:cfout.obj
 0001:0003f290       ??8__crt_strtox@@YA_NAEBUbig_integer@0@0@Z 0000000140040290 f i libucrtd:cfout.obj
 0001:0003f300       ??9__crt_strtox@@YA_NAEBUbig_integer@0@0@Z 0000000140040300 f i libucrtd:cfout.obj
 0001:0003f340       ?add_carry@__crt_strtox@@YAIAEAIII@Z 0000000140040340 f i libucrtd:cfout.obj
 0001:0003f390       ?add_multiply_carry@__crt_strtox@@YAIAEAIIII@Z 0000000140040390 f i libucrtd:cfout.obj
 0001:0003f3f0       ?bit_scan_reverse@__crt_strtox@@YAII@Z 00000001400403f0 f i libucrtd:cfout.obj
 0001:0003f430       ?count_sequential_high_zeroes@__crt_strtox@@YAII@Z 0000000140040430 f i libucrtd:cfout.obj
 0001:0003f470       ?divide@__crt_strtox@@YA_KAEAUbig_integer@1@AEBU21@@Z 0000000140040470 f i libucrtd:cfout.obj
 0001:0003fe40       ?is_zero@__crt_strtox@@YA_NAEBUbig_integer@1@@Z 0000000140040e40 f i libucrtd:cfout.obj
 0001:0003fe70       ?make_big_integer@__crt_strtox@@YA?AUbig_integer@1@_K@Z 0000000140040e70 f i libucrtd:cfout.obj
 0001:0003ff40       ?make_big_integer_power_of_two@__crt_strtox@@YA?AUbig_integer@1@I@Z 0000000140040f40 f i libucrtd:cfout.obj
 0001:00040010       ?multiply@__crt_strtox@@YA_NAEAUbig_integer@1@AEBU21@@Z 0000000140041010 f i libucrtd:cfout.obj
 0001:00040390       ?multiply@__crt_strtox@@YA_NAEAUbig_integer@1@I@Z 0000000140041390 f i libucrtd:cfout.obj
 0001:000404b0       ?multiply_64_32@__crt_strtox@@YA_K_KI@Z 00000001400414b0 f i libucrtd:cfout.obj
 0001:000404d0       ?multiply_by_power_of_ten@__crt_strtox@@YA_NAEAUbig_integer@1@I@Z 00000001400414d0 f i libucrtd:cfout.obj
 0001:00040680       ?multiply_core@__crt_strtox@@YAIQEAIII@Z 0000000140041680 f i libucrtd:cfout.obj
 0001:00040700       ?shift_left@__crt_strtox@@YA_NAEAUbig_integer@1@I@Z 0000000140041700 f i libucrtd:cfout.obj
 0001:000409e0       __acrt_fltout              00000001400419e0 f   libucrtd:cfout.obj
 0001:00040da0       fegetround                 0000000140041da0 f   libucrtd:fegetround.obj
 0001:00040dc0       ?__c32rtomb_utf8@__crt_mbstring@@YA_KPEAD_UPEAU_Mbstatet@@AEAV__crt_cached_ptd_host@@@Z 0000000140041dc0 f   libucrtd:c32rtomb.obj
 0001:00041060       __acrt_OutputDebugStringA  0000000140042060 f   libucrtd:outputdebugstringa.obj
 0001:000412b0       qsort                      00000001400422b0 f   libucrtd:qsort.obj
 0001:00042120       strncpy_s                  0000000140043120 f   libucrtd:strncpy_s.obj
 0001:00042290       strpbrk                    0000000140043290 f   libucrtd:strpbrk.obj
 0001:00042b80       _mbsdec                    0000000140043b80 f   libucrtd:mbsdec.obj
 0001:00042bb0       _mbsdec_l                  0000000140043bb0 f   libucrtd:mbsdec.obj
 0001:00043440       __acrt_LCMapStringA        0000000140044440 f   libucrtd:lcmapstringa.obj
 0001:00043520       _strnicoll                 0000000140044520 f   libucrtd:strnicol.obj
 0001:00043580       _strnicoll_l               0000000140044580 f   libucrtd:strnicol.obj
 0001:00043980       __acrt_SetEnvironmentVariableA 0000000140044980 f   libucrtd:setenvironmentvariablea.obj
 0001:00044680       _itoa_s                    0000000140045680 f   libucrtd:xtoa.obj
 0001:000446e0       _itow_s                    00000001400456e0 f   libucrtd:xtoa.obj
 0001:00044740       _malloc_base               0000000140045740 f   libucrtd:malloc_base.obj
 0001:000452f0       mbstowcs_s                 00000001400462f0 f   libucrtd:mbstowcs.obj
 0001:00046160       wcstombs_s                 0000000140047160 f   libucrtd:wcstombs.obj
 0001:00046850       strcat_s                   0000000140047850 f   libucrtd:strcat_s.obj
 0001:00046880       ??0__crt_seek_guard@@QEAA@H_J@Z 0000000140047880 f i libucrtd:chsize.obj
 0001:00046900       ??1__crt_seek_guard@@QEAA@XZ 0000000140047900 f i libucrtd:chsize.obj
 0001:00046930       _chsize_nolock             0000000140047930 f   libucrtd:chsize.obj
 0001:00046980       _chsize_nolock_internal    0000000140047980 f   libucrtd:chsize.obj
 0001:00046cf0       ?__mbrtoc32_utf8@__crt_mbstring@@YA_KPEA_UPEBD_KPEAU_Mbstatet@@AEAV__crt_cached_ptd_host@@@Z 0000000140047cf0 f   libucrtd:mbrtoc32.obj
 0001:00047230       __dcrt_lowio_ensure_console_output_initialized 0000000140048230 f   libucrtd:initcon.obj
 0001:00047260       __dcrt_terminate_console_output 0000000140048260 f   libucrtd:initcon.obj
 0001:00047290       __dcrt_write_console       0000000140048290 f   libucrtd:initcon.obj
 0001:000472d0       log10                      00000001400482d0 f   libucrtd:log10.obj
 0001:00047880       ceil                       0000000140048880 f   libucrtd:ceil.obj
 0001:00047a50       _controlfp_s               0000000140048a50 f   libucrtd:contrlfp.obj
 0001:00047b80       fegetenv                   0000000140048b80 f   libucrtd:fegetenv.obj
 0001:00047bb0       fesetenv                   0000000140048bb0 f   libucrtd:fesetenv.obj
 0001:00047c30       feholdexcept               0000000140048c30 f   libucrtd:feholdexcept.obj
 0001:00047ca0       ??$__acrt_fenv_shift_bits@W4__acrt_fenv_abstract_control@@@@YA?AW4__acrt_fenv_abstract_control@@W40@0I@Z 0000000140048ca0 f i libucrtd:_fenvutils.obj
 0001:00047ca0       ??$__acrt_fenv_shift_bits@W4__acrt_fenv_abstract_status@@@@YA?AW4__acrt_fenv_abstract_status@@W40@0I@Z 0000000140048ca0 f i libucrtd:_fenvutils.obj
 0001:00047cd0       ??$__acrt_fenv_translate_bit@W4__acrt_fenv_abstract_control@@W4__acrt_fenv_machine_sse_control@@@@YA?AW4__acrt_fenv_abstract_control@@W4__acrt_fenv_machine_sse_control@@0W40@1@Z 0000000140048cd0 f i libucrtd:_fenvutils.obj
 0001:00047d30       ??$__acrt_fenv_translate_bit@W4__acrt_fenv_abstract_status@@W4__acrt_fenv_machine_sse_status@@@@YA?AW4__acrt_fenv_abstract_status@@W4__acrt_fenv_machine_sse_status@@0W40@1@Z 0000000140048d30 f i libucrtd:_fenvutils.obj
 0001:00047d30       ??$__acrt_fenv_translate_bit@W4__acrt_fenv_machine_sse_status@@W4__acrt_fenv_abstract_status@@@@YA?AW4__acrt_fenv_machine_sse_status@@W4__acrt_fenv_abstract_status@@0W40@1@Z 0000000140048d30 f i libucrtd:_fenvutils.obj
 0001:00047d80       ??$__acrt_fenv_translate_bit@W4__acrt_fenv_machine_sse_control@@W4__acrt_fenv_abstract_control@@@@YA?AW4__acrt_fenv_machine_sse_control@@W4__acrt_fenv_abstract_control@@0W40@1@Z 0000000140048d80 f i libucrtd:_fenvutils.obj
 0001:00047de0       ??$__acrt_fenv_unshift_bits@W4__acrt_fenv_abstract_control@@@@YA?AW4__acrt_fenv_abstract_control@@W40@0I@Z 0000000140048de0 f i libucrtd:_fenvutils.obj
 0001:00047de0       ??$__acrt_fenv_unshift_bits@W4__acrt_fenv_abstract_status@@@@YA?AW4__acrt_fenv_abstract_status@@W40@0I@Z 0000000140048de0 f i libucrtd:_fenvutils.obj
 0001:000482d0       ??I@YA?AW4__acrt_fenv_abstract_control@@W40@0@Z 00000001400492d0 f i libucrtd:_fenvutils.obj
 0001:000482d0       ??I@YA?AW4__acrt_fenv_abstract_status@@W40@0@Z 00000001400492d0 f i libucrtd:_fenvutils.obj
 0001:000482d0       ??I@YA?AW4__acrt_fenv_machine_sse_status@@W40@0@Z 00000001400492d0 f i libucrtd:_fenvutils.obj
 0001:000482f0       ??I@YA?AW4__acrt_fenv_machine_sse_control@@W40@0@Z 00000001400492f0 f i libucrtd:_fenvutils.obj
 0001:00048310       ??U@YA?AW4__acrt_fenv_abstract_control@@W40@0@Z 0000000140049310 f i libucrtd:_fenvutils.obj
 0001:00048310       ??U@YA?AW4__acrt_fenv_abstract_status@@W40@0@Z 0000000140049310 f i libucrtd:_fenvutils.obj
 0001:00048330       ??U@YA?AW4__acrt_fenv_machine_sse_control@@W40@0@Z 0000000140049330 f i libucrtd:_fenvutils.obj
 0001:00048350       ??_5@YAAEAW4__acrt_fenv_abstract_control@@AEAW40@W40@@Z 0000000140049350 f i libucrtd:_fenvutils.obj
 0001:00048350       ??_5@YAAEAW4__acrt_fenv_abstract_status@@AEAW40@W40@@Z 0000000140049350 f i libucrtd:_fenvutils.obj
 0001:00048350       ??_5@YAAEAW4__acrt_fenv_machine_sse_status@@AEAW40@W40@@Z 0000000140049350 f i libucrtd:_fenvutils.obj
 0001:00048380       ??_5@YAAEAW4__acrt_fenv_machine_sse_control@@AEAW40@W40@@Z 0000000140049380 f i libucrtd:_fenvutils.obj
 0001:000483b0       ?__acrt_fenv_shift_abstract_sse_control@@YA?AW4__acrt_fenv_abstract_control@@W41@@Z 00000001400493b0 f i libucrtd:_fenvutils.obj
 0001:00048400       ?__acrt_fenv_shift_abstract_sse_status@@YA?AW4__acrt_fenv_abstract_status@@W41@@Z 0000000140049400 f i libucrtd:_fenvutils.obj
 0001:00048430       ?__acrt_fenv_unshift_abstract_sse_control@@YA?AW4__acrt_fenv_abstract_control@@W41@@Z 0000000140049430 f i libucrtd:_fenvutils.obj
 0001:00048480       ?__acrt_fenv_unshift_abstract_sse_status@@YA?AW4__acrt_fenv_abstract_status@@W41@@Z 0000000140049480 f i libucrtd:_fenvutils.obj
 0001:00048770       __acrt_fenv_get_common_round_control 0000000140049770 f   libucrtd:_fenvutils.obj
 0001:00048790       __acrt_fenv_get_control    0000000140049790 f   libucrtd:_fenvutils.obj
 0001:000487c0       __acrt_fenv_get_status     00000001400497c0 f   libucrtd:_fenvutils.obj
 0001:000487f0       __acrt_fenv_set_control    00000001400497f0 f   libucrtd:_fenvutils.obj
 0001:00048810       __acrt_fenv_set_status     0000000140049810 f   libucrtd:_fenvutils.obj
 0001:00048830       ?reset_and_return@__crt_mbstring@@YA_K_KPEAU_Mbstatet@@@Z 0000000140049830 f   libucrtd:common_utf8.obj
 0001:00048870       ?return_illegal_sequence@__crt_mbstring@@YA_KPEAU_Mbstatet@@AEAV__crt_cached_ptd_host@@@Z 0000000140049870 f   libucrtd:common_utf8.obj
 0001:000488d0       __strncnt                  00000001400498d0 f   libucrtd:strncnt.obj
 0001:00048fe0       __acrt_CompareStringA      0000000140049fe0 f   libucrtd:comparestringa.obj
 0001:00049080       ?__wcsrtombs_utf8@__crt_mbstring@@YA_KPEADPEAPEB_W_KPEAU_Mbstatet@@AEAV__crt_cached_ptd_host@@@Z 000000014004a080 f   libucrtd:wcrtomb.obj
 0001:00049300       __acrt_initialize_fma3     000000014004a300 f   libucrtd:fma3_available.obj
 0001:000493b0       _log10_special             000000014004a3b0 f   libucrtd:log_special.obj
 0001:000496f0       _handle_error              000000014004a6f0 f   libucrtd:libm_error.obj
 0001:00049880       _handle_nan                000000014004a880 f   libucrtd:libm_error.obj
 0001:00049ac0       _clearfp                   000000014004aac0 f   libucrtd:ieee.obj
 0001:00049ae0       _control87                 000000014004aae0 f   libucrtd:ieee.obj
 0001:00049d70       ?__c16rtomb_utf8@__crt_mbstring@@YA_KPEAD_SPEAU_Mbstatet@@AEAV__crt_cached_ptd_host@@@Z 000000014004ad70 f   libucrtd:c16rtomb.obj
 0001:00049fb0       _raise_exc                 000000014004afb0 f   libucrtd:fpexcept.obj
 0001:0004a010       _raise_exc_ex              000000014004b010 f   libucrtd:fpexcept.obj
 0001:0004a690       _set_errno_from_matherr    000000014004b690 f   libucrtd:fpexcept.obj
 0001:0004a6e0       _clrfp                     000000014004b6e0 f   libucrtd:fpctrl.obj
 0001:0004a710       _ctrlfp                    000000014004b710 f   libucrtd:fpctrl.obj
 0001:0004a7c0       _set_statfp                000000014004b7c0 f   libucrtd:fpctrl.obj
 0001:0004a800       _statfp                    000000014004b800 f   libucrtd:fpctrl.obj
 0001:0004a840       _get_fpsr                  000000014004b840 f   libucrtd:fpsr.obj
 0001:0004a850       _set_fpsr                  000000014004b850 f   libucrtd:fpsr.obj
 0001:0004a85a       _fclrf                     000000014004b85a f   libucrtd:fpsr.obj
 0001:0004a86e       _frnd                      000000014004b86e f   libucrtd:fpsr.obj
 0001:0004a890       _FindPESection             000000014004b890 f   LIBCMTD:pesect.obj
 0001:0004a940       _IsNonwritableInCurrentImage 000000014004b940 f   LIBCMTD:pesect.obj
 0001:0004a9d0       _ValidateImageBase         000000014004b9d0 f   LIBCMTD:pesect.obj
 0001:0004aa50       ??1type_info@@UEAA@XZ      000000014004ba50 f   LIBCMTD:std_type_info_static.obj
 0001:0004aa70       ??_Etype_info@@UEAAPEAXI@Z 000000014004ba70 f i LIBCMTD:std_type_info_static.obj
 0001:0004aa70       ??_Gtype_info@@UEAAPEAXI@Z 000000014004ba70 f i LIBCMTD:std_type_info_static.obj
 0001:0004aab0       ??3@YAXPEAX_K@Z            000000014004bab0 f   LIBCMTD:delete_scalar_size.obj
 0001:0004aad0       __GSHandlerCheck_SEH       000000014004bad0 f   LIBCMTD:gshandlerseh.obj
 0001:0004aba0       __chkstk                   000000014004bba0 f   LIBCMTD:chkstk.obj
 0001:0004aba0       _alloca_probe              000000014004bba0 f   LIBCMTD:chkstk.obj
 0001:0004abf0       __GSHandlerCheck_EH        000000014004bbf0 f   LIBCMTD:gshandlereh.obj
 0001:0004aca0       ??3@YAXPEAX@Z              000000014004bca0 f   LIBCMTD:delete_scalar.obj
 0001:0004acc0       __C_specific_handler_noexcept 000000014004bcc0 f   libvcruntimed:chandler_noexcept.obj
 0001:0004ad60       memcmp                     000000014004bd60 f   libvcruntimed:memcmp.obj
 0001:0004ae30       strrchr                    000000014004be30 f   libvcruntimed:strrchr.obj
 0001:0004b250       strchr                     000000014004c250 f   libvcruntimed:strchr.obj
 0001:0004b3f0       _guard_dispatch_icall_nop  000000014004c3f0 f   LIBCMTD:guard_dispatch.obj
 0001:0004b410       _guard_xfg_dispatch_icall_nop 000000014004c410 f   LIBCMTD:guard_xfg_dispatch.obj
 0002:00000000       __imp_QueryPerformanceCounter 000000014004d000     kernel32:KERNEL32.dll
 0002:00000008       __imp_GetCurrentProcessId  000000014004d008     kernel32:KERNEL32.dll
 0002:00000010       __imp_GetCurrentThreadId   000000014004d010     kernel32:KERNEL32.dll
 0002:00000018       __imp_GetSystemTimeAsFileTime 000000014004d018     kernel32:KERNEL32.dll
 0002:00000020       __imp_InitializeSListHead  000000014004d020     kernel32:KERNEL32.dll
 0002:00000028       __imp_RtlCaptureContext    000000014004d028     kernel32:KERNEL32.dll
 0002:00000030       __imp_RtlLookupFunctionEntry 000000014004d030     kernel32:KERNEL32.dll
 0002:00000038       __imp_RtlVirtualUnwind     000000014004d038     kernel32:KERNEL32.dll
 0002:00000040       __imp_IsDebuggerPresent    000000014004d040     kernel32:KERNEL32.dll
 0002:00000048       __imp_UnhandledExceptionFilter 000000014004d048     kernel32:KERNEL32.dll
 0002:00000050       __imp_SetUnhandledExceptionFilter 000000014004d050     kernel32:KERNEL32.dll
 0002:00000058       __imp_GetStartupInfoW      000000014004d058     kernel32:KERNEL32.dll
 0002:00000060       __imp_IsProcessorFeaturePresent 000000014004d060     kernel32:KERNEL32.dll
 0002:00000068       __imp_GetModuleHandleW     000000014004d068     kernel32:KERNEL32.dll
 0002:00000070       __imp_GetCurrentProcess    000000014004d070     kernel32:KERNEL32.dll
 0002:00000078       __imp_TerminateProcess     000000014004d078     kernel32:KERNEL32.dll
 0002:00000080       __imp_CreateFileW          000000014004d080     kernel32:KERNEL32.dll
 0002:00000088       __imp_RtlUnwindEx          000000014004d088     kernel32:KERNEL32.dll
 0002:00000090       __imp_GetLastError         000000014004d090     kernel32:KERNEL32.dll
 0002:00000098       __imp_SetLastError         000000014004d098     kernel32:KERNEL32.dll
 0002:000000a0       __imp_EnterCriticalSection 000000014004d0a0     kernel32:KERNEL32.dll
 0002:000000a8       __imp_LeaveCriticalSection 000000014004d0a8     kernel32:KERNEL32.dll
 0002:000000b0       __imp_DeleteCriticalSection 000000014004d0b0     kernel32:KERNEL32.dll
 0002:000000b8       __imp_InitializeCriticalSectionAndSpinCount 000000014004d0b8     kernel32:KERNEL32.dll
 0002:000000c0       __imp_TlsAlloc             000000014004d0c0     kernel32:KERNEL32.dll
 0002:000000c8       __imp_TlsGetValue          000000014004d0c8     kernel32:KERNEL32.dll
 0002:000000d0       __imp_TlsSetValue          000000014004d0d0     kernel32:KERNEL32.dll
 0002:000000d8       __imp_TlsFree              000000014004d0d8     kernel32:KERNEL32.dll
 0002:000000e0       __imp_FreeLibrary          000000014004d0e0     kernel32:KERNEL32.dll
 0002:000000e8       __imp_GetProcAddress       000000014004d0e8     kernel32:KERNEL32.dll
 0002:000000f0       __imp_LoadLibraryExW       000000014004d0f0     kernel32:KERNEL32.dll
 0002:000000f8       __imp_EncodePointer        000000014004d0f8     kernel32:KERNEL32.dll
 0002:00000100       __imp_RaiseException       000000014004d100     kernel32:KERNEL32.dll
 0002:00000108       __imp_RtlPcToFileHeader    000000014004d108     kernel32:KERNEL32.dll
 0002:00000110       __imp_ReadFile             000000014004d110     kernel32:KERNEL32.dll
 0002:00000118       __imp_GetStdHandle         000000014004d118     kernel32:KERNEL32.dll
 0002:00000120       __imp_WriteFile            000000014004d120     kernel32:KERNEL32.dll
 0002:00000128       __imp_GetModuleFileNameW   000000014004d128     kernel32:KERNEL32.dll
 0002:00000130       __imp_ExitProcess          000000014004d130     kernel32:KERNEL32.dll
 0002:00000138       __imp_GetModuleHandleExW   000000014004d138     kernel32:KERNEL32.dll
 0002:00000140       __imp_GetCommandLineA      000000014004d140     kernel32:KERNEL32.dll
 0002:00000148       __imp_GetCommandLineW      000000014004d148     kernel32:KERNEL32.dll
 0002:00000150       __imp_HeapAlloc            000000014004d150     kernel32:KERNEL32.dll
 0002:00000158       __imp_HeapSize             000000014004d158     kernel32:KERNEL32.dll
 0002:00000160       __imp_HeapValidate         000000014004d160     kernel32:KERNEL32.dll
 0002:00000168       __imp_GetSystemInfo        000000014004d168     kernel32:KERNEL32.dll
 0002:00000170       __imp_FlsAlloc             000000014004d170     kernel32:KERNEL32.dll
 0002:00000178       __imp_FlsGetValue          000000014004d178     kernel32:KERNEL32.dll
 0002:00000180       __imp_FlsSetValue          000000014004d180     kernel32:KERNEL32.dll
 0002:00000188       __imp_FlsFree              000000014004d188     kernel32:KERNEL32.dll
 0002:00000190       __imp_CompareStringW       000000014004d190     kernel32:KERNEL32.dll
 0002:00000198       __imp_LCMapStringW         000000014004d198     kernel32:KERNEL32.dll
 0002:000001a0       __imp_GetFileType          000000014004d1a0     kernel32:KERNEL32.dll
 0002:000001a8       __imp_CloseHandle          000000014004d1a8     kernel32:KERNEL32.dll
 0002:000001b0       __imp_GetConsoleMode       000000014004d1b0     kernel32:KERNEL32.dll
 0002:000001b8       __imp_ReadConsoleW         000000014004d1b8     kernel32:KERNEL32.dll
 0002:000001c0       __imp_SetFilePointerEx     000000014004d1c0     kernel32:KERNEL32.dll
 0002:000001c8       __imp_GetConsoleOutputCP   000000014004d1c8     kernel32:KERNEL32.dll
 0002:000001d0       __imp_GetFileSizeEx        000000014004d1d0     kernel32:KERNEL32.dll
 0002:000001d8       __imp_SetStdHandle         000000014004d1d8     kernel32:KERNEL32.dll
 0002:000001e0       __imp_OutputDebugStringW   000000014004d1e0     kernel32:KERNEL32.dll
 0002:000001e8       __imp_FindClose            000000014004d1e8     kernel32:KERNEL32.dll
 0002:000001f0       __imp_FindFirstFileExW     000000014004d1f0     kernel32:KERNEL32.dll
 0002:000001f8       __imp_FindNextFileW        000000014004d1f8     kernel32:KERNEL32.dll
 0002:00000200       __imp_IsValidCodePage      000000014004d200     kernel32:KERNEL32.dll
 0002:00000208       __imp_GetACP               000000014004d208     kernel32:KERNEL32.dll
 0002:00000210       __imp_GetOEMCP             000000014004d210     kernel32:KERNEL32.dll
 0002:00000218       __imp_GetCPInfo            000000014004d218     kernel32:KERNEL32.dll
 0002:00000220       __imp_MultiByteToWideChar  000000014004d220     kernel32:KERNEL32.dll
 0002:00000228       __imp_WideCharToMultiByte  000000014004d228     kernel32:KERNEL32.dll
 0002:00000230       __imp_GetEnvironmentStringsW 000000014004d230     kernel32:KERNEL32.dll
 0002:00000238       __imp_FreeEnvironmentStringsW 000000014004d238     kernel32:KERNEL32.dll
 0002:00000240       __imp_SetEnvironmentVariableW 000000014004d240     kernel32:KERNEL32.dll
 0002:00000248       __imp_GetStringTypeW       000000014004d248     kernel32:KERNEL32.dll
 0002:00000250       __imp_GetProcessHeap       000000014004d250     kernel32:KERNEL32.dll
 0002:00000258       __imp_HeapFree             000000014004d258     kernel32:KERNEL32.dll
 0002:00000260       __imp_HeapReAlloc          000000014004d260     kernel32:KERNEL32.dll
 0002:00000268       __imp_HeapQueryInformation 000000014004d268     kernel32:KERNEL32.dll
 0002:00000270       __imp_WriteConsoleW        000000014004d270     kernel32:KERNEL32.dll
 0002:00000278       __imp_FlushFileBuffers     000000014004d278     kernel32:KERNEL32.dll
 0002:00000280       __imp_SetEndOfFile         000000014004d280     kernel32:KERNEL32.dll
 0002:00000288       \177KERNEL32_NULL_THUNK_DATA 000000014004d288     kernel32:KERNEL32.dll
 0002:00000290       __guard_check_icall_fptr   000000014004d290     LIBCMTD:guard_support.obj
 0002:00000298       __guard_xfg_check_icall_fptr 000000014004d298     LIBCMTD:guard_support.obj
 0002:000002a0       __guard_dispatch_icall_fptr 000000014004d2a0     LIBCMTD:guard_support.obj
 0002:000002a8       __guard_xfg_dispatch_icall_fptr 000000014004d2a8     LIBCMTD:guard_support.obj
 0002:000002b0       __guard_xfg_table_dispatch_icall_fptr 000000014004d2b0     LIBCMTD:guard_support.obj
 0002:000002b8       __castguard_check_failure_os_handled_fptr 000000014004d2b8     LIBCMTD:guard_support.obj
 0002:000002c0       __guard_memcpy_fptr        000000014004d2c0     libvcruntimed:softmemtag.obj
 0002:000002c8       __xc_a                     000000014004d2c8     LIBCMTD:initializers.obj
 0002:000002d8       __xc_z                     000000014004d2d8     LIBCMTD:initializers.obj
 0002:000002e0       __xi_a                     000000014004d2e0     LIBCMTD:initializers.obj
 0002:000002f8       __acrt_stdio_initializer   000000014004d2f8     libucrtd:stdio_initializer.obj
 0002:00000300       __acrt_multibyte_initializer 000000014004d300     libucrtd:multibyte_initializer.obj
 0002:00000308       __acrt_fmode_initializer   000000014004d308     libucrtd:fmode_initializer.obj
 0002:00000310       __acrt_tran_fma3_initializer 000000014004d310     libucrtd:fma3_initializer.obj
 0002:00000318       __xi_z                     000000014004d318     LIBCMTD:initializers.obj
 0002:00000320       __xp_a                     000000014004d320     LIBCMTD:initializers.obj
 0002:00000328       __acrt_locale_terminator   000000014004d328     libucrtd:locale_initializer.obj
 0002:00000330       __dcrt_console_output_terminator 000000014004d330     libucrtd:console_output_initializer.obj
 0002:00000338       __acrt_stdio_terminator    000000014004d338     libucrtd:stdio_initializer.obj
 0002:00000340       __xp_z                     000000014004d340     LIBCMTD:initializers.obj
 0002:00000348       __xt_a                     000000014004d348     LIBCMTD:initializers.obj
 0002:00000350       __xt_z                     000000014004d350     LIBCMTD:initializers.obj
 0002:000003e8       _pDestructExceptionObject  000000014004d3e8     libvcruntimed:ehhelpers.obj
 0002:000003f0       ??_C@_0EK@HNOIOKGA@D?3?2a?2_work?21?2s?2src?2vctools?2crt?2@ 000000014004d3f0     libvcruntimed:per_thread_data.obj
 0002:00000b50       ??_C@_08EHJDFFNH@__based?$CI@ 000000014004db50     libvcruntimed:undname.obj
 0002:00000b60       ??_C@_07KOLFKCDI@__cdecl@  000000014004db60     libvcruntimed:undname.obj
 0002:00000b68       ??_C@_08GHMPAG@__pascal@   000000014004db68     libvcruntimed:undname.obj
 0002:00000b78       ??_C@_09IFJBGAPI@__stdcall@ 000000014004db78     libvcruntimed:undname.obj
 0002:00000b88       ??_C@_0L@NPHFGOKO@__thiscall@ 000000014004db88     libvcruntimed:undname.obj
 0002:00000b98       ??_C@_0L@JMKHOMEK@__fastcall@ 000000014004db98     libvcruntimed:undname.obj
 0002:00000ba8       ??_C@_0N@BCKKPABJ@__vectorcall@ 000000014004dba8     libvcruntimed:undname.obj
 0002:00000bb8       ??_C@_09HIJEGCPM@__clrcall@ 000000014004dbb8     libvcruntimed:undname.obj
 0002:00000bc4       ??_C@_06GHPCKEAG@__eabi@   000000014004dbc4     libvcruntimed:undname.obj
 0002:00000bd0       ??_C@_09IOPIDJLG@__swift_1@ 000000014004dbd0     libvcruntimed:undname.obj
 0002:00000be0       ??_C@_09KFNFGKHF@__swift_2@ 000000014004dbe0     libvcruntimed:undname.obj
 0002:00000bf0       ??_C@_09LMMOFLDE@__swift_3@ 000000014004dbf0     libvcruntimed:undname.obj
 0002:00000c00       ??_C@_07JOMMBBKO@__ptr64@  000000014004dc00     libvcruntimed:undname.obj
 0002:00000c08       ??_C@_0L@PILCLIHE@__restrict@ 000000014004dc08     libvcruntimed:undname.obj
 0002:00000c18       ??_C@_0M@GFIIJFMG@__unaligned@ 000000014004dc18     libvcruntimed:undname.obj
 0002:00000c28       ??_C@_09DHDLOLLB@restrict?$CI@ 000000014004dc28     libvcruntimed:undname.obj
 0002:00000c32       ??_C@_00CNPNBAHC@@         000000014004dc32     libvcruntimed:undname.obj
 0002:00000c34       ??_C@_04NIHEBCM@?5new@     000000014004dc34     libvcruntimed:undname.obj
 0002:00000c40       ??_C@_07FPCDHGMM@?5delete@ 000000014004dc40     libvcruntimed:undname.obj
 0002:00000c48       ??_C@_01NEMOKFLO@?$DN@     000000014004dc48     libvcruntimed:undname.obj
 0002:00000c4c       ??_C@_02GPIOPFAK@?$DO?$DO@ 000000014004dc4c     libvcruntimed:undname.obj
 0002:00000c50       ??_C@_02FODMEDOG@?$DM?$DM@ 000000014004dc50     libvcruntimed:undname.obj
 0002:00000c54       ??_C@_01DCLJPIOD@?$CB@     000000014004dc54     libvcruntimed:undname.obj
 0002:00000c58       ??_C@_02EGOFBIJA@?$DN?$DN@ 000000014004dc58     libvcruntimed:undname.obj
 0002:00000c5c       ??_C@_02FDNJECIE@?$CB?$DN@ 000000014004dc5c     libvcruntimed:undname.obj
 0002:00000c60       ??_C@_02GPECMEKF@?$FL?$FN@ 000000014004dc60     libvcruntimed:undname.obj
 0002:00000c68       ??_C@_08LHJFAFGD@operator@ 000000014004dc68     libvcruntimed:undname.obj
 0002:00000c74       ??_C@_02HBOOOICD@?9?$DO@   000000014004dc74     libvcruntimed:undname.obj
 0002:00000c78       ??_C@_01NBENCBCI@?$CK@     000000014004dc78     libvcruntimed:undname.obj
 0002:00000c7c       ??_C@_02ECNGHCIF@?$CL?$CL@ 000000014004dc7c     libvcruntimed:undname.obj
 0002:00000c80       ??_C@_02BAABKJLB@?9?9@     000000014004dc80     libvcruntimed:undname.obj
 0002:00000c84       ??_C@_01JOAMLHOP@?9@       000000014004dc84     libvcruntimed:undname.obj
 0002:00000c88       ??_C@_01MIFGBAGJ@?$CL@     000000014004dc88     libvcruntimed:undname.obj
 0002:00000c8c       ??_C@_01HNPIGOCE@?$CG@     000000014004dc8c     libvcruntimed:undname.obj
 0002:00000c90       ??_C@_03MNHNFDLC@?9?$DO?$CK@ 000000014004dc90     libvcruntimed:undname.obj
 0002:00000c94       ??_C@_01KMDKNFGN@?1@       000000014004dc94     libvcruntimed:undname.obj
 0002:00000c98       ??_C@_01FGNFDNOH@?$CF@     000000014004dc98     libvcruntimed:undname.obj
 0002:00000c9c       ??_C@_01MNNFJEPP@?$DM@     000000014004dc9c     libvcruntimed:undname.obj
 0002:00000ca0       ??_C@_02EHCHHCKH@?$DM?$DN@ 000000014004dca0     libvcruntimed:undname.obj
 0002:00000ca4       ??_C@_01PPODPGHN@?$DO@     000000014004dca4     libvcruntimed:undname.obj
 0002:00000ca8       ??_C@_02EEKDKGMJ@?$DO?$DN@ 000000014004dca8     libvcruntimed:undname.obj
 0002:00000cac       ??_C@_01IHBHIGKO@?0@       000000014004dcac     libvcruntimed:undname.obj
 0002:00000cb0       ??_C@_02HCKGKOFO@?$CI?$CJ@ 000000014004dcb0     libvcruntimed:undname.obj
 0002:00000cb4       ??_C@_01PJKLJHI@?$HO@      000000014004dcb4     libvcruntimed:undname.obj
 0002:00000cb8       ??_C@_01JKBOJNNK@?$FO@     000000014004dcb8     libvcruntimed:undname.obj
 0002:00000cbc       ??_C@_01DNKMNLPK@?$HM@     000000014004dcbc     libvcruntimed:undname.obj
 0002:00000cc0       ??_C@_02PPKAJPJL@?$CG?$CG@ 000000014004dcc0     libvcruntimed:undname.obj
 0002:00000cc4       ??_C@_02NONPIBCD@?$HM?$HM@ 000000014004dcc4     libvcruntimed:undname.obj
 0002:00000cc8       ??_C@_02FPIMKNGF@?$CK?$DN@ 000000014004dcc8     libvcruntimed:undname.obj
 0002:00000ccc       ??_C@_02FOEOMHFC@?$CL?$DN@ 000000014004dccc     libvcruntimed:undname.obj
 0002:00000cd0       ??_C@_02FKMDLLOA@?9?$DN@   000000014004dcd0     libvcruntimed:undname.obj
 0002:00000cd4       ??_C@_02FJEHGPIO@?1?$DN@   000000014004dcd4     libvcruntimed:undname.obj
 0002:00000cd8       ??_C@_02FENAOKFI@?$CF?$DN@ 000000014004dcd8     libvcruntimed:undname.obj
 0002:00000cdc       ??_C@_03IKFCCPFF@?$DO?$DO?$DN@ 000000014004dcdc     libvcruntimed:undname.obj
 0002:00000ce0       ??_C@_03CDNPDDLA@?$DM?$DM?$DN@ 000000014004dce0     libvcruntimed:undname.obj
 0002:00000ce4       ??_C@_02FGJGFEAB@?$CG?$DN@ 000000014004dce4     libvcruntimed:undname.obj
 0002:00000ce8       ??_C@_02DHLNPPGH@?$HM?$DN@ 000000014004dce8     libvcruntimed:undname.obj
 0002:00000cec       ??_C@_02MHEGNOJ@?$FO?$DN@  000000014004dcec     libvcruntimed:undname.obj
 0002:00000cf0       ??_C@_09IFPLHPGF@?$GAvftable?8@ 000000014004dcf0     libvcruntimed:undname.obj
 0002:00000d00       ??_C@_09BLBHBJP@?$GAvbtable?8@ 000000014004dd00     libvcruntimed:undname.obj
 0002:00000d10       ??_C@_07FEEIOKP@?$GAvcall?8@ 000000014004dd10     libvcruntimed:undname.obj
 0002:00000d18       ??_C@_08LLFFHHDJ@?$GAtypeof?8@ 000000014004dd18     libvcruntimed:undname.obj
 0002:00000d28       ??_C@_0BF@KDPPACIK@?$GAlocal?5static?5guard?8@ 000000014004dd28     libvcruntimed:undname.obj
 0002:00000d40       ??_C@_08OBABFOLI@?$GAstring?8@ 000000014004dd40     libvcruntimed:undname.obj
 0002:00000d50       ??_C@_0BD@JDLKDPAB@?$GAvbase?5destructor?8@ 000000014004dd50     libvcruntimed:undname.obj
 0002:00000d68       ??_C@_0BN@DEGPLNFK@?$GAvector?5deleting?5destructor?8@ 000000014004dd68     libvcruntimed:undname.obj
 0002:00000d88       ??_C@_0BO@OBMKPJIG@?$GAdefault?5constructor?5closure?8@ 000000014004dd88     libvcruntimed:undname.obj
 0002:00000da8       ??_C@_0BN@IMDCHIKM@?$GAscalar?5deleting?5destructor?8@ 000000014004dda8     libvcruntimed:undname.obj
 0002:00000dc8       ??_C@_0BO@PFGOCPJJ@?$GAvector?5constructor?5iterator?8@ 000000014004ddc8     libvcruntimed:undname.obj
 0002:00000de8       ??_C@_0BN@LFPFMEDL@?$GAvector?5destructor?5iterator?8@ 000000014004dde8     libvcruntimed:undname.obj
 0002:00000e08       ??_C@_0CE@IKBNEHA@?$GAvector?5vbase?5constructor?5itera@ 000000014004de08     libvcruntimed:undname.obj
 0002:00000e30       ??_C@_0BL@NILFHHPC@?$GAvirtual?5displacement?5map?8@ 000000014004de30     libvcruntimed:undname.obj
 0002:00000e50       ??_C@_0CB@JONCMFFK@?$GAeh?5vector?5constructor?5iterator@ 000000014004de50     libvcruntimed:undname.obj
 0002:00000e78       ??_C@_0CA@GCEOPDGL@?$GAeh?5vector?5destructor?5iterator?8@ 000000014004de78     libvcruntimed:undname.obj
 0002:00000e98       ??_C@_0CH@OOJPLCPH@?$GAeh?5vector?5vbase?5constructor?5it@ 000000014004de98     libvcruntimed:undname.obj
 0002:00000ec0       ??_C@_0BL@LLKPOHJI@?$GAcopy?5constructor?5closure?8@ 000000014004dec0     libvcruntimed:undname.obj
 0002:00000ee0       ??_C@_0BA@KBCDOMBN@?$GAudt?5returning?8@ 000000014004dee0     libvcruntimed:undname.obj
 0002:00000ef0       ??_C@_03KLGMFNMG@?$GAEH@   000000014004def0     libvcruntimed:undname.obj
 0002:00000ef4       ??_C@_05KHLCHHI@?$GARTTI@  000000014004def4     libvcruntimed:undname.obj
 0002:00000f00       ??_C@_0BA@KKLDJDLB@?$GAlocal?5vftable?8@ 000000014004df00     libvcruntimed:undname.obj
 0002:00000f10       ??_C@_0CE@IIHCMGGL@?$GAlocal?5vftable?5constructor?5clos@ 000000014004df10     libvcruntimed:undname.obj
 0002:00000f34       ??_C@_06FHBGPFGH@?5new?$FL?$FN@ 000000014004df34     libvcruntimed:undname.obj
 0002:00000f40       ??_C@_09LBNFPBCA@?5delete?$FL?$FN@ 000000014004df40     libvcruntimed:undname.obj
 0002:00000f50       ??_C@_0P@HJKNJFNN@?$GAomni?5callsig?8@ 000000014004df50     libvcruntimed:undname.obj
 0002:00000f60       ??_C@_0BL@CNOONJFP@?$GAplacement?5delete?5closure?8@ 000000014004df60     libvcruntimed:undname.obj
 0002:00000f80       ??_C@_0BN@CKNJLHMB@?$GAplacement?5delete?$FL?$FN?5closure?8@ 000000014004df80     libvcruntimed:undname.obj
 0002:00000fa0       ??_C@_0CG@CFDHKGGD@?$GAmanaged?5vector?5constructor?5ite@ 000000014004dfa0     libvcruntimed:undname.obj
 0002:00000fc8       ??_C@_0CF@IMGKMJNO@?$GAmanaged?5vector?5destructor?5iter@ 000000014004dfc8     libvcruntimed:undname.obj
 0002:00000ff0       ??_C@_0CG@HLDDJMAG@?$GAeh?5vector?5copy?5constructor?5ite@ 000000014004dff0     libvcruntimed:undname.obj
 0002:00001018       ??_C@_0CM@FCBBDIGB@?$GAeh?5vector?5vbase?5copy?5construct@ 000000014004e018     libvcruntimed:undname.obj
 0002:00001048       ??_C@_0BL@CLIPGLGB@?$GAdynamic?5initializer?5for?5?8@ 000000014004e048     libvcruntimed:undname.obj
 0002:00001068       ??_C@_0CB@PDBIFEP@?$GAdynamic?5atexit?5destructor?5for?5@ 000000014004e068     libvcruntimed:undname.obj
 0002:00001090       ??_C@_0CD@CGAJBKEJ@?$GAvector?5copy?5constructor?5iterat@ 000000014004e090     libvcruntimed:undname.obj
 0002:000010b8       ??_C@_0CJ@GJELGAMM@?$GAvector?5vbase?5copy?5constructor?5@ 000000014004e0b8     libvcruntimed:undname.obj
 0002:000010e8       ??_C@_0CL@FGIJHLCE@?$GAmanaged?5vector?5copy?5constructo@ 000000014004e0e8     libvcruntimed:undname.obj
 0002:00001118       ??_C@_0BM@PMGGMLDN@?$GAlocal?5static?5thread?5guard?8@ 000000014004e118     libvcruntimed:undname.obj
 0002:00001138       ??_C@_0N@BDNMDMOL@operator?5?$CC?$CC?5@ 000000014004e138     libvcruntimed:undname.obj
 0002:00001148       ??_C@_0BC@GGEBGALA@operator?5co_await@ 000000014004e148     libvcruntimed:undname.obj
 0002:00001160       ??_C@_0M@GAAIMMOH@operator?$DM?$DN?$DO@ 000000014004e160     libvcruntimed:undname.obj
 0002:00001170       ??_C@_0BC@DAFEJGAK@?5Type?5Descriptor?8@ 000000014004e170     libvcruntimed:undname.obj
 0002:00001188       ??_C@_0BM@LDKODKLH@?5Base?5Class?5Descriptor?5at?5?$CI@ 000000014004e188     libvcruntimed:undname.obj
 0002:000011a8       ??_C@_0BD@LGICGFMM@?5Base?5Class?5Array?8@ 000000014004e1a8     libvcruntimed:undname.obj
 0002:000011c0       ??_C@_0BN@MECKDCOJ@?5Class?5Hierarchy?5Descriptor?8@ 000000014004e1c0     libvcruntimed:undname.obj
 0002:000011e0       ??_C@_0BK@CFCOFLF@?5Complete?5Object?5Locator?8@ 000000014004e1e0     libvcruntimed:undname.obj
 0002:00001200       ??_C@_0BG@JNJLAMPM@?$GAanonymous?5namespace?8@ 000000014004e200     libvcruntimed:undname.obj
 0002:00001218       ??_C@_02DKCKIIND@?$CFs@    000000014004e218     libvcruntimed:undname.obj
 0002:0000121c       ??_C@_11LOCGONAA@@         000000014004e21c     libvcruntimed:undname.obj
 0002:00001238       ??_C@_1DM@KHCHBNEB@?$AAa?$AAp?$AAi?$AA?9?$AAm?$AAs?$AA?9?$AAw?$AAi?$AAn?$AA?9?$AAc?$AAo?$AAr?$AAe@ 000000014004e238     libvcruntimed:winapi_downlevel.obj
 0002:00001278       ??_C@_1DK@LPPGFMPP@?$AAa?$AAp?$AAi?$AA?9?$AAm?$AAs?$AA?9?$AAw?$AAi?$AAn?$AA?9?$AAc?$AAo?$AAr?$AAe@ 000000014004e278     libvcruntimed:winapi_downlevel.obj
 0002:000012b8       ??_C@_1BC@GDMECMAK@?$AAk?$AAe?$AAr?$AAn?$AAe?$AAl?$AA3?$AA2@ 000000014004e2b8     libvcruntimed:winapi_downlevel.obj
 0002:000012d0       ??_C@_17CNPHIMPH@?$AA?$CF?$AAl?$AAs@ 000000014004e2d0     libvcruntimed:winapi_downlevel.obj
 0002:000012d8       ??_C@_1BA@PFFKHIOG@?$AAa?$AAp?$AAi?$AA?9?$AAm?$AAs?$AA?9@ 000000014004e2d8     libvcruntimed:winapi_downlevel.obj
 0002:000012f0       ??_C@_1EM@LBIFGLGH@?$AAc?$AAa?$AAc?$AAh?$AAe?$AAd?$AA_?$AAh?$AAa?$AAn?$AAd?$AAl?$AAe?$AA?5?$AA?$DN@ 000000014004e2f0     libvcruntimed:winapi_downlevel.obj
 0002:00001340       ??_C@_1JG@EAIBPIGC@?$AAD?$AA?3?$AA?2?$AAa?$AA?2?$AA_?$AAw?$AAo?$AAr?$AAk?$AA?2?$AA1?$AA?2?$AAs?$AA?2@ 000000014004e340     libvcruntimed:winapi_downlevel.obj
 0002:000013d8       ??_C@_1DI@MAHEDLDB@?$AAc?$AAa?$AAc?$AAh?$AAe?$AAd?$AA_?$AAh?$AAa?$AAn?$AAd?$AAl?$AAe?$AA?5?$AA?$DN@ 000000014004e3d8     libvcruntimed:winapi_downlevel.obj
 0002:00001410       ??_C@_1FC@IBNCGNKL@?$AAc?$AAa?$AAc?$AAh?$AAe?$AAd?$AA_?$AAf?$AAp?$AA?5?$AA?$DN?$AA?$DN?$AA?5?$AAi?$AAn@ 000000014004e410     libvcruntimed:winapi_downlevel.obj
 0002:00001468       ??_C@_1CI@GDJBAGLP@?$AAc?$AAa?$AAc?$AAh?$AAe?$AAd?$AA_?$AAf?$AAp?$AA?5?$AA?$DN?$AA?$DN?$AA?5?$AAn?$AAe@ 000000014004e468     libvcruntimed:winapi_downlevel.obj
 0002:00001498       ??_C@_08KNHFBNJ@FlsAlloc@  000000014004e498     libvcruntimed:winapi_downlevel.obj
 0002:000014b0       ??_C@_07PEJMOBNF@FlsFree@  000000014004e4b0     libvcruntimed:winapi_downlevel.obj
 0002:000014c0       ??_C@_0M@GDNOONDI@FlsGetValue@ 000000014004e4c0     libvcruntimed:winapi_downlevel.obj
 0002:000014d8       ??_C@_0M@JCPCPOEF@FlsSetValue@ 000000014004e4d8     libvcruntimed:winapi_downlevel.obj
 0002:000014f0       ??_C@_0BM@HCFOFFN@InitializeCriticalSectionEx@ 000000014004e4f0     libvcruntimed:winapi_downlevel.obj
 0002:000015b0       ??_7exception@std@@6B@     000000014004e5b0     libvcruntimed:frame.obj
 0002:000015c0       ??_C@_0BC@EOODALEL@Unknown?5exception@ 000000014004e5c0     libvcruntimed:frame.obj
 0002:000015e0       ??_7bad_exception@std@@6B@ 000000014004e5e0     libvcruntimed:frame.obj
 0002:000015f0       ??_C@_0O@DPKOEFFH@bad?5exception@ 000000014004e5f0     libvcruntimed:frame.obj
 0002:00001600       ??_C@_1FK@OACNEHHA@?$AAt?$AAo?$AA?9?$AA?$DO?$AA_?$AAW?$AAh?$AAa?$AAt?$AA?5?$AA?$DN?$AA?$DN?$AA?5?$AAn?$AAu@ 000000014004e600     libvcruntimed:std_exception.obj
 0002:00001660       ??_C@_1IE@BLOAAGCK@?$AAD?$AA?3?$AA?2?$AAa?$AA?2?$AA_?$AAw?$AAo?$AAr?$AAk?$AA?2?$AA1?$AA?2?$AAs?$AA?2@ 000000014004e660     libvcruntimed:std_exception.obj
 0002:000016e8       ??_C@_0CP@GDJHIDC@minkernel?2crts?2ucrt?2src?2appcrt?2@ 000000014004e6e8     libucrtd:_file.obj
 0002:00001718       ??_C@_1DC@OGOLMDEL@?$AAp?$AAu?$AAb?$AAl?$AAi?$AAc?$AA_?$AAs?$AAt?$AAr?$AAe?$AAa?$AAm?$AA?5?$AA?$CB@ 000000014004e718     libucrtd:_file.obj
 0002:00001750       ??_C@_1BO@MHPFFFJJ@?$AAs?$AAt?$AAr?$AAe?$AAa?$AAm?$AA?4?$AAv?$AAa?$AAl?$AAi?$AAd?$AA?$CI?$AA?$CJ@ 000000014004e750     libucrtd:fclose.obj
 0002:00001770       ??_C@_1GA@DKNOMDCL@?$AAm?$AAi?$AAn?$AAk?$AAe?$AAr?$AAn?$AAe?$AAl?$AA?2?$AAc?$AAr?$AAt?$AAs?$AA?2@ 000000014004e770     libucrtd:fclose.obj
 0002:000017d0       ??_C@_1DA@IHIKPHIN@?$AA_?$AAf?$AAc?$AAl?$AAo?$AAs?$AAe?$AA_?$AAn?$AAo?$AAl?$AAo?$AAc?$AAk?$AA_@ 000000014004e7d0     libucrtd:fclose.obj
 0002:00001800       ??_C@_1CC@LPELGHFC@?$AA_?$AAf?$AAc?$AAl?$AAo?$AAs?$AAe?$AA_?$AAi?$AAn?$AAt?$AAe?$AAr?$AAn?$AAa@ 000000014004e800     libucrtd:fclose.obj
 0002:00001830       ??_C@_1GC@CMLBJHAF@?$AAm?$AAi?$AAn?$AAk?$AAe?$AAr?$AAn?$AAe?$AAl?$AA?2?$AAc?$AAr?$AAt?$AAs?$AA?2@ 000000014004e830     libucrtd:feoferr.obj
 0002:00001898       ??_C@_1O@MOPHEPGP@?$AAf?$AAe?$AAr?$AAr?$AAo?$AAr@ 000000014004e898     libucrtd:feoferr.obj
 0002:000018a8       ??_C@_1CK@LLOEFJJG@?$AAf?$AAi?$AAl?$AAe?$AA_?$AAn?$AAa?$AAm?$AAe?$AA?5?$AA?$CB?$AA?$DN?$AA?5?$AAn?$AAu@ 000000014004e8a8     libucrtd:fopen.obj
 0002:000018e0       ??_C@_1FO@JKHHBFCN@?$AAm?$AAi?$AAn?$AAk?$AAe?$AAr?$AAn?$AAe?$AAl?$AA?2?$AAc?$AAr?$AAt?$AAs?$AA?2@ 000000014004e8e0     libucrtd:fopen.obj
 0002:00001940       ??_C@_1BM@HBDCPLIA@?$AAc?$AAo?$AAm?$AAm?$AAo?$AAn?$AA_?$AAf?$AAs?$AAo?$AAp?$AAe?$AAn@ 000000014004e940     libucrtd:fopen.obj
 0002:00001960       ??_C@_1CA@HJKPLBCC@?$AAm?$AAo?$AAd?$AAe?$AA?5?$AA?$CB?$AA?$DN?$AA?5?$AAn?$AAu?$AAl?$AAl?$AAp?$AAt?$AAr@ 000000014004e960     libucrtd:fopen.obj
 0002:00001980       ??_C@_1BG@HEFEIBLN@?$AA?$CK?$AAm?$AAo?$AAd?$AAe?$AA?5?$AA?$CB?$AA?$DN?$AA?5?$AA0@ 000000014004e980     libucrtd:fopen.obj
 0002:00001998       ??_C@_1CE@JMFACANE@?$AAr?$AAe?$AAs?$AAu?$AAl?$AAt?$AA?5?$AA?$CB?$AA?$DN?$AA?5?$AAn?$AAu?$AAl?$AAl?$AAp@ 000000014004e998     libucrtd:fopen.obj
 0002:000019c0       ??_C@_1CE@JLIJLEKO@?$AAs?$AAt?$AAr?$AAe?$AAa?$AAm?$AA?5?$AA?$CB?$AA?$DN?$AA?5?$AAn?$AAu?$AAl?$AAl?$AAp@ 000000014004e9c0     libucrtd:fread.obj
 0002:000019f0       ??_C@_1FO@CIJKACCM@?$AAm?$AAi?$AAn?$AAk?$AAe?$AAr?$AAn?$AAe?$AAl?$AA?2?$AAc?$AAr?$AAt?$AAs?$AA?2@ 000000014004e9f0     libucrtd:fread.obj
 0002:00001a50       ??_C@_1BA@CMLCEIGG@?$AAf?$AAr?$AAe?$AAa?$AAd?$AA_?$AAs@ 000000014004ea50     libucrtd:fread.obj
 0002:00001a60       ??_C@_1CE@MCCHPLBM@?$AAb?$AAu?$AAf?$AAf?$AAe?$AAr?$AA?5?$AA?$CB?$AA?$DN?$AA?5?$AAn?$AAu?$AAl?$AAl?$AAp@ 000000014004ea60     libucrtd:fread.obj
 0002:00001a88       ??_C@_1CA@IDPOGFL@?$AA_?$AAf?$AAr?$AAe?$AAa?$AAd?$AA_?$AAn?$AAo?$AAl?$AAo?$AAc?$AAk?$AA_?$AAs@ 000000014004ea88     libucrtd:fread.obj
 0002:00001ab0       ??_C@_1FG@KLKDPCLL@?$AAe?$AAl?$AAe?$AAm?$AAe?$AAn?$AAt?$AA_?$AAc?$AAo?$AAu?$AAn?$AAt?$AA?5?$AA?$DM@ 000000014004eab0     libucrtd:fread.obj
 0002:00001b10       ??_C@_1LG@DCNDJCHK@?$AA?$CI?$AA?$CC?$AAI?$AAn?$AAc?$AAo?$AAn?$AAs?$AAi?$AAs?$AAt?$AAe?$AAn?$AAt?$AA?5@ 000000014004eb10     libucrtd:fread.obj
 0002:00001bc8       ??_C@_1DA@DKEFLDMG@?$AA?$CI?$AA?$CC?$AAb?$AAu?$AAf?$AAf?$AAe?$AAr?$AA?5?$AAt?$AAo?$AAo?$AA?5?$AAs?$AAm@ 000000014004ebc8     libucrtd:fread.obj
 0002:00001c20       ??_C@_1FO@KMPAKEKH@?$AAm?$AAi?$AAn?$AAk?$AAe?$AAr?$AAn?$AAe?$AAl?$AA?2?$AAc?$AAr?$AAt?$AAs?$AA?2@ 000000014004ec20     libucrtd:fseek.obj
 0002:00001c80       ??_C@_1BK@HEPGDNON@?$AAc?$AAo?$AAm?$AAm?$AAo?$AAn?$AA_?$AAf?$AAs?$AAe?$AAe?$AAk@ 000000014004ec80     libucrtd:fseek.obj
 0002:00001ca0       ??_C@_1HO@BJGCGJL@?$AAw?$AAh?$AAe?$AAn?$AAc?$AAe?$AA?5?$AA?$DN?$AA?$DN?$AA?5?$AAS?$AAE?$AAE?$AAK?$AA_@ 000000014004eca0     libucrtd:fseek.obj
 0002:00001d20       ??_C@_1CO@LBNDLIPC@?$AAs?$AAt?$AAr?$AAe?$AAa?$AAm?$AA?4?$AAp?$AAu?$AAb?$AAl?$AAi?$AAc?$AA_?$AAs@ 000000014004ed20     libucrtd:ftell.obj
 0002:00001d50       ??_C@_1FO@JHBALIAM@?$AAm?$AAi?$AAn?$AAk?$AAe?$AAr?$AAn?$AAe?$AAl?$AA?2?$AAc?$AAr?$AAt?$AAs?$AA?2@ 000000014004ed50     libucrtd:ftell.obj
 0002:00001db0       ??_C@_1CI@MOKEPKDC@?$AAc?$AAo?$AAm?$AAm?$AAo?$AAn?$AA_?$AAf?$AAt?$AAe?$AAl?$AAl?$AA_?$AAn?$AAo@ 000000014004edb0     libucrtd:ftell.obj
 0002:00001de0       ??_C@_1GM@EDHJGDLB@?$AA?$CI?$AAb?$AAu?$AAf?$AAf?$AAe?$AAr?$AA_?$AAl?$AAa?$AAs?$AAt?$AA?5?$AA?9?$AA?5@ 000000014004ede0     libucrtd:ftell.obj
 0002:00001e50       ??_C@_1BK@CMPCEPOF@?$AAc?$AAo?$AAm?$AAm?$AAo?$AAn?$AA_?$AAf?$AAt?$AAe?$AAl?$AAl@ 000000014004ee50     libucrtd:ftell.obj
 0002:00001ea0       ??_C@_1GA@JFCHAOOC@?$AAm?$AAi?$AAn?$AAk?$AAe?$AAr?$AAn?$AAe?$AAl?$AA?2?$AAc?$AAr?$AAt?$AAs?$AA?2@ 000000014004eea0     libucrtd:fwrite.obj
 0002:00001f00       ??_C@_1CC@CDKOAKMA@?$AA_?$AAf?$AAw?$AAr?$AAi?$AAt?$AAe?$AA_?$AAi?$AAn?$AAt?$AAe?$AAr?$AAn?$AAa@ 000000014004ef00     libucrtd:fwrite.obj
 0002:00001f28       ??_C@_1DA@MJMBENOF@?$AA_?$AAf?$AAw?$AAr?$AAi?$AAt?$AAe?$AA_?$AAn?$AAo?$AAl?$AAo?$AAc?$AAk?$AA_@ 000000014004ef28     libucrtd:fwrite.obj
 0002:00001f60       ??_C@_1JG@PCJFJNAC@?$AA?$CI?$AA?$CC?$AAF?$AAl?$AAu?$AAs?$AAh?$AA?5?$AAb?$AAe?$AAt?$AAw?$AAe?$AAe?$AAn@ 000000014004ef60     libucrtd:fwrite.obj
 0002:00001ff8       ??_C@_02LMMGGCAJ@?3?5@     000000014004eff8     libucrtd:perror.obj
 0002:00001ffc       ??_C@_01EEMJAFIK@?6@       000000014004effc     libucrtd:perror.obj
 0002:00002000       ?standard_lookup_table_spectre@__crt_stdio_output@@3V?$spectre_mitigated_lookup_table@Ustate_transition_pair@__crt_stdio_output@@$0IA@@1@B 000000014004f000     libucrtd:output.obj
 0002:00002100       ?format_validation_lookup_table_spectre@__crt_stdio_output@@3V?$spectre_mitigated_lookup_table@Ustate_transition_pair@__crt_stdio_output@@$0IA@@1@B 000000014004f100     libucrtd:output.obj
 0002:00002320       ??_C@_1BDG@MKBKGHOH@?$AA?$CI?$AA?5?$AA?$CI?$AA_?$AAS?$AAt?$AAr?$AAe?$AAa?$AAm?$AA?4?$AAi?$AAs?$AA_?$AAs@ 000000014004f320     libucrtd:output.obj
 0002:00002460       ??_C@_1GC@LCDLABEA@?$AAm?$AAi?$AAn?$AAk?$AAe?$AAr?$AAn?$AAe?$AAl?$AA?2?$AAc?$AAr?$AAt?$AAs?$AA?2@ 000000014004f460     libucrtd:output.obj
 0002:000024d0       ??_C@_1II@DIIMCJOK@?$AA_?$AA_?$AAa?$AAc?$AAr?$AAt?$AA_?$AAs?$AAt?$AAd?$AAi?$AAo?$AA_?$AAc?$AAh@ 000000014004f4d0     libucrtd:output.obj
 0002:00002560       ??_C@_1GE@DPGDJKLM@?$AAm?$AAi?$AAn?$AAk?$AAe?$AAr?$AAn?$AAe?$AAl?$AA?2?$AAc?$AAr?$AAt?$AAs?$AA?2@ 000000014004f560     libucrtd:output.obj
 0002:000025d0       ??_C@_1GA@MOBAPGIO@?$AAm?$AAi?$AAn?$AAk?$AAe?$AAr?$AAn?$AAe?$AAl?$AA?2?$AAc?$AAr?$AAt?$AAs?$AA?2@ 000000014004f5d0     libucrtd:output.obj
 0002:00002630       ??_C@_1CA@GELIJBMC@?$AAc?$AAo?$AAm?$AAm?$AAo?$AAn?$AA_?$AAv?$AAf?$AAp?$AAr?$AAi?$AAn?$AAt?$AAf@ 000000014004f630     libucrtd:output.obj
 0002:00002650       ??_C@_1CE@EAKLPBKK@?$AAf?$AAo?$AAr?$AAm?$AAa?$AAt?$AA?5?$AA?$CB?$AA?$DN?$AA?5?$AAn?$AAu?$AAl?$AAl?$AAp@ 000000014004f650     libucrtd:output.obj
 0002:00002678       ??_C@_1CA@PIMGHCEK@?$AAc?$AAo?$AAm?$AAm?$AAo?$AAn?$AA_?$AAv?$AAs?$AAp?$AAr?$AAi?$AAn?$AAt?$AAf@ 000000014004f678     libucrtd:output.obj
 0002:000026a0       ??_C@_1EO@EGEEFEFM@?$AAb?$AAu?$AAf?$AAf?$AAe?$AAr?$AA_?$AAc?$AAo?$AAu?$AAn?$AAt?$AA?5?$AA?$DN?$AA?$DN@ 000000014004f6a0     libucrtd:output.obj
 0002:000026f0       ??_C@_1CE@JEILLNB@?$AAc?$AAo?$AAm?$AAm?$AAo?$AAn?$AA_?$AAv?$AAs?$AAp?$AAr?$AAi?$AAn?$AAt?$AAf@ 000000014004f6f0     libucrtd:output.obj
 0002:00002720       ??_C@_1EM@OAFHAOLH@?$AAb?$AAu?$AAf?$AAf?$AAe?$AAr?$AA?5?$AA?$CB?$AA?$DN?$AA?5?$AAn?$AAu?$AAl?$AAl?$AAp@ 000000014004f720     libucrtd:output.obj
 0002:00002770       ??_C@_1DA@HPBFKMEB@?$AA?$CI?$AA?$CC?$AAB?$AAu?$AAf?$AAf?$AAe?$AAr?$AA?5?$AAt?$AAo?$AAo?$AA?5?$AAs?$AAm@ 000000014004f770     libucrtd:output.obj
 0002:000027a0       ??_C@_1CG@LHFJHFBB@?$AAc?$AAo?$AAm?$AAm?$AAo?$AAn?$AA_?$AAv?$AAs?$AAn?$AAp?$AAr?$AAi?$AAn?$AAt@ 000000014004f7a0     libucrtd:output.obj
 0002:000027c8       ??_C@_1CM@JOIJBMEM@?$AA_?$AAf?$AAo?$AAr?$AAm?$AAa?$AAt?$AA_?$AAi?$AAt?$AA?5?$AA?$CB?$AA?$DN?$AA?5?$AAn@ 000000014004f7c8     libucrtd:output.obj
 0002:00002800       ??_C@_1HA@DMAAKIJP@?$AAm?$AAi?$AAn?$AAk?$AAe?$AAr?$AAn?$AAe?$AAl?$AA?2?$AAc?$AAr?$AAt?$AAs?$AA?2@ 000000014004f800     libucrtd:output.obj
 0002:00002870       ??_C@_1EE@DMAIGNBG@?$AA?$CI?$AA?$CC?$AAI?$AAn?$AAc?$AAo?$AAr?$AAr?$AAe?$AAc?$AAt?$AA?5?$AAf?$AAo?$AAr@ 000000014004f870     libucrtd:output.obj
 0002:000028c0       ??_C@_1BKA@IIAAOGBO@?$AA_?$AA_?$AAc?$AAr?$AAt?$AA_?$AAs?$AAt?$AAd?$AAi?$AAo?$AA_?$AAo?$AAu?$AAt@ 000000014004f8c0     libucrtd:output.obj
 0002:00002a60       ??_C@_1FG@OBJBDPAC@?$AA?$CI?$AA?$CC?$AAN?$AA?5?$AAl?$AAe?$AAn?$AAg?$AAt?$AAh?$AA?5?$AAm?$AAo?$AAd?$AAi@ 000000014004fa60     libucrtd:output.obj
 0002:00002ac0       ??_C@_1EC@GJPNJDCN@?$AA_?$AAl?$AAe?$AAn?$AAg?$AAt?$AAh?$AA?5?$AA?$DN?$AA?$DN?$AA?5?$AAl?$AAe?$AAn?$AAg@ 000000014004fac0     libucrtd:output.obj
 0002:00002b08       ??_C@_1DG@CEJKFDMO@?$AAs?$AAt?$AAa?$AAt?$AAe?$AA_?$AAc?$AAa?$AAs?$AAe?$AA_?$AAn?$AAo?$AAr?$AAm@ 000000014004fb08     libucrtd:output.obj
 0002:00002b40       ??_C@_1CI@DDKMNCPP@?$AA_?$AAc?$AAo?$AAn?$AAt?$AAe?$AAx?$AAt?$AA?5?$AA?$CB?$AA?$DN?$AA?5?$AAn?$AAu?$AAl@ 000000014004fb40     libucrtd:output.obj
 0002:00002b70       ??_C@_1HK@IIPGOADH@?$AA_?$AA_?$AAc?$AAr?$AAt?$AA_?$AAs?$AAt?$AAd?$AAi?$AAo?$AA_?$AAo?$AAu?$AAt@ 000000014004fb70     libucrtd:output.obj
 0002:00002bf0       ??_C@_1HE@IACOMEJF@?$AA_?$AA_?$AAc?$AAr?$AAt?$AA_?$AAs?$AAt?$AAd?$AAi?$AAo?$AA_?$AAo?$AAu?$AAt@ 000000014004fbf0     libucrtd:output.obj
 0002:00002c70       ??_C@_1GC@BNMHNGKM@?$AA_?$AAs?$AAt?$AAa?$AAt?$AAe?$AA?5?$AA?$DN?$AA?$DN?$AA?5?$AAs?$AAt?$AAa?$AAt?$AAe@ 000000014004fc70     libucrtd:output.obj
 0002:00002cd8       ??_C@_1CA@ONEGMNAN@?$AA_?$AAs?$AAt?$AAr?$AAe?$AAa?$AAm?$AA?4?$AAv?$AAa?$AAl?$AAi?$AAd?$AA?$CI?$AA?$CJ@ 000000014004fcd8     libucrtd:output.obj
 0002:00002d00       ??_C@_1BLA@GJNGKGIK@?$AA_?$AA_?$AAc?$AAr?$AAt?$AA_?$AAs?$AAt?$AAd?$AAi?$AAo?$AA_?$AAo?$AAu?$AAt@ 000000014004fd00     libucrtd:output.obj
 0002:00002eb0       ??_C@_1BLE@PAACOKDK@?$AA_?$AA_?$AAc?$AAr?$AAt?$AA_?$AAs?$AAt?$AAd?$AAi?$AAo?$AA_?$AAo?$AAu?$AAt@ 000000014004feb0     libucrtd:output.obj
 0002:00003070       ??_C@_1HE@FGKHNBNL@?$AA_?$AA_?$AAc?$AAr?$AAt?$AA_?$AAs?$AAt?$AAd?$AAi?$AAo?$AA_?$AAo?$AAu?$AAt@ 0000000140050070     libucrtd:output.obj
 0002:000030f0       ??_C@_1EK@PNGFDECN@?$AA?$CI?$AA?$CC?$AA?8?$AAn?$AA?8?$AA?5?$AAf?$AAo?$AAr?$AAm?$AAa?$AAt?$AA?5?$AAs?$AAp@ 00000001400500f0     libucrtd:output.obj
 0002:00003140       ??_C@_1EO@GHKFGFKL@?$AA?$CI?$AA?$CC?$AAI?$AAn?$AAv?$AAa?$AAl?$AAi?$AAd?$AA?5?$AAi?$AAn?$AAt?$AAe?$AAg@ 0000000140050140     libucrtd:output.obj
 0002:00003190       ??_C@_1BEC@NDOOKIMC@?$AA_?$AA_?$AAc?$AAr?$AAt?$AA_?$AAs?$AAt?$AAd?$AAi?$AAo?$AA_?$AAo?$AAu?$AAt@ 0000000140050190     libucrtd:output.obj
 0002:000032e0       ??_C@_1BDG@KOLEFKPF@?$AA_?$AA_?$AAc?$AAr?$AAt?$AA_?$AAs?$AAt?$AAd?$AAi?$AAo?$AA_?$AAo?$AAu?$AAt@ 00000001400502e0     libucrtd:output.obj
 0002:00003420       ??_C@_1BKI@NDKBCDGP@?$AA_?$AA_?$AAc?$AAr?$AAt?$AA_?$AAs?$AAt?$AAd?$AAi?$AAo?$AA_?$AAo?$AAu?$AAt@ 0000000140050420     libucrtd:output.obj
 0002:000035c8       ??_C@_1O@CEDCILHN@?$AA?$CI?$AAn?$AAu?$AAl?$AAl?$AA?$CJ@ 00000001400505c8     libucrtd:output.obj
 0002:000035d8       ??_C@_06OJHGLDPL@?$CInull?$CJ@ 00000001400505d8     libucrtd:output.obj
 0002:000035e0       ??_C@_1CK@LGDCECDH@?$AA_?$AAf?$AAo?$AAr?$AAm?$AAa?$AAt?$AA_?$AAc?$AAh?$AAa?$AAr?$AA?5?$AA?$CB?$AA?$DN@ 00000001400505e0     libucrtd:output.obj
 0002:00003610       ??_C@_1BMA@MEBEEDJE@?$AA_?$AA_?$AAc?$AAr?$AAt?$AA_?$AAs?$AAt?$AAd?$AAi?$AAo?$AA_?$AAo?$AAu?$AAt@ 0000000140050610     libucrtd:output.obj
 0002:000037d0       ??_C@_0DI@KIFBHMNO@minkernel?2crts?2ucrt?2inc?2corecrt@ 00000001400507d0     libucrtd:output.obj
 0002:00003810       ??_C@_1BLE@MHLEAOID@?$AA_?$AA_?$AAc?$AAr?$AAt?$AA_?$AAs?$AAt?$AAd?$AAi?$AAo?$AA_?$AAo?$AAu?$AAt@ 0000000140050810     libucrtd:output.obj
 0002:000039d0       ??_C@_1BMK@JGIBNIA@?$AA_?$AA_?$AAc?$AAr?$AAt?$AA_?$AAs?$AAt?$AAd?$AAi?$AAo?$AA_?$AAo?$AAu?$AAt@ 00000001400509d0     libucrtd:output.obj
 0002:00003ba0       ??_C@_1BLC@INKIGOCN@?$AA_?$AA_?$AAc?$AAr?$AAt?$AA_?$AAs?$AAt?$AAd?$AAi?$AAo?$AA_?$AAo?$AAu?$AAt@ 0000000140050ba0     libucrtd:output.obj
 0002:00003d60       ??_C@_1BNK@KHNJGCCP@?$AA_?$AA_?$AAc?$AAr?$AAt?$AA_?$AAs?$AAt?$AAd?$AAi?$AAo?$AA_?$AAo?$AAu?$AAt@ 0000000140050d60     libucrtd:output.obj
 0002:00003f40       ??_C@_1BNO@OHFFMOOJ@?$AA_?$AA_?$AAc?$AAr?$AAt?$AA_?$AAs?$AAt?$AAd?$AAi?$AAo?$AA_?$AAo?$AAu?$AAt@ 0000000140050f40     libucrtd:output.obj
 0002:00004120       ??_C@_1BMC@FAGJFBLI@?$AA_?$AA_?$AAc?$AAr?$AAt?$AA_?$AAs?$AAt?$AAd?$AAi?$AAo?$AA_?$AAo?$AAu?$AAt@ 0000000140051120     libucrtd:output.obj
 0002:000042f0       ??_C@_1BMG@CGPDIFDK@?$AA_?$AA_?$AAc?$AAr?$AAt?$AA_?$AAs?$AAt?$AAd?$AAi?$AAo?$AA_?$AAo?$AAu?$AAt@ 00000001400512f0     libucrtd:output.obj
 0002:000044c0       ??_C@_1BNC@OHPDPPJK@?$AA_?$AA_?$AAc?$AAr?$AAt?$AA_?$AAs?$AAt?$AAd?$AAi?$AAo?$AA_?$AAo?$AAu?$AAt@ 00000001400514c0     libucrtd:output.obj
 0002:000046a0       ??_C@_1BLK@FOLFMPJH@?$AA_?$AA_?$AAc?$AAr?$AAt?$AA_?$AAs?$AAt?$AAd?$AAi?$AAo?$AA_?$AAo?$AAu?$AAt@ 00000001400516a0     libucrtd:output.obj
 0002:00004860       ??_C@_1BNC@JPKLPOHO@?$AA_?$AA_?$AAc?$AAr?$AAt?$AA_?$AAs?$AAt?$AAd?$AAi?$AAo?$AA_?$AAo?$AAu?$AAt@ 0000000140051860     libucrtd:output.obj
 0002:00004a40       ??_C@_1EO@MLJCKPIB@?$AAb?$AAa?$AAs?$AAe?$AA?5?$AA?$DN?$AA?$DN?$AA?5?$AA0?$AA?5?$AA?$HM?$AA?$HM?$AA?5?$AA?$CI?$AA2@ 0000000140051a40     libucrtd:output.obj
 0002:00004a90       ??_C@_1DI@BANODKFL@?$AA_?$AA_?$AAc?$AAr?$AAt?$AA_?$AAs?$AAt?$AAr?$AAt?$AAo?$AAx?$AA?3?$AA?3?$AAp@ 0000000140051a90     libucrtd:output.obj
 0002:00004ad0       ??_C@_1BNO@NAODCKFA@?$AA_?$AA_?$AAc?$AAr?$AAt?$AA_?$AAs?$AAt?$AAd?$AAi?$AAo?$AA_?$AAo?$AAu?$AAt@ 0000000140051ad0     libucrtd:output.obj
 0002:00004cb0       ??_C@_1BMG@BBEFGBID@?$AA_?$AA_?$AAc?$AAr?$AAt?$AA_?$AAs?$AAt?$AAd?$AAi?$AAo?$AA_?$AAo?$AAu?$AAt@ 0000000140051cb0     libucrtd:output.obj
 0002:00004e78       ??_C@_1CM@GJENOOEJ@?$AAc?$AA?5?$AA?$DN?$AA?$DN?$AA?5?$AA?8?$AA?2?$AA0?$AA?8?$AA?5?$AA?$HM?$AA?$HM?$AA?5?$AA?$CK?$AA_@ 0000000140051e78     libucrtd:output.obj
 0002:00004eb0       ??_C@_1GK@MNHIDABG@?$AA_?$AA_?$AAc?$AAr?$AAt?$AA_?$AAs?$AAt?$AAr?$AAt?$AAo?$AAx?$AA?3?$AA?3?$AAc@ 0000000140051eb0     libucrtd:output.obj
 0002:00004f20       ??_C@_1BM@PNEBBBDO@?$AA_?$AAp?$AA?5?$AA?$CB?$AA?$DN?$AA?5?$AAn?$AAu?$AAl?$AAl?$AAp?$AAt?$AAr@ 0000000140051f20     libucrtd:output.obj
 0002:00004f40       ??_C@_1HA@MKKIHBHP@?$AA_?$AA_?$AAc?$AAr?$AAt?$AA_?$AAs?$AAt?$AAr?$AAt?$AAo?$AAx?$AA?3?$AA?3?$AAc@ 0000000140051f40     libucrtd:output.obj
 0002:00004fb0       ??_C@_1HA@CONLANFI@?$AA_?$AA_?$AAc?$AAr?$AAt?$AA_?$AAs?$AAt?$AAr?$AAt?$AAo?$AAx?$AA?3?$AA?3?$AAc@ 0000000140051fb0     libucrtd:output.obj
 0002:00005020       ??_C@_1HG@FCDBLOEG@?$AA_?$AA_?$AAc?$AAr?$AAt?$AA_?$AAs?$AAt?$AAr?$AAt?$AAo?$AAx?$AA?3?$AA?3?$AAc@ 0000000140052020     libucrtd:output.obj
 0002:000050a0       __acrt_exception_action_table 00000001400520a0     libucrtd:exception_filter.obj
 0002:00005160       __acrt_signal_action_table_count 0000000140052160     libucrtd:exception_filter.obj
 0002:00005168       __acrt_signal_action_first_fpe_index 0000000140052168     libucrtd:exception_filter.obj
 0002:00005170       __acrt_signal_action_fpe_count 0000000140052170     libucrtd:exception_filter.obj
 0002:00005180       ??_C@_1IC@DCNEKBE@?$AAm?$AAi?$AAn?$AAk?$AAe?$AAr?$AAn?$AAe?$AAl?$AA?2?$AAc?$AAr?$AAt?$AAs?$AA?2@ 0000000140052180     libucrtd:report_runtime_error.obj
 0002:00005208       ??_C@_1DI@BLFJHKKP@?$AA_?$AA_?$AAa?$AAc?$AAr?$AAt?$AA_?$AAr?$AAe?$AAp?$AAo?$AAr?$AAt?$AA_?$AAr@ 0000000140052208     libucrtd:report_runtime_error.obj
 0002:00005240       ??_C@_1LE@MHPGJGKE@?$AAw?$AAc?$AAs?$AAc?$AAp?$AAy?$AA_?$AAs?$AA?$CI?$AAo?$AAu?$AAt?$AAm?$AAs?$AAg@ 0000000140052240     libucrtd:report_runtime_error.obj
 0002:000052f8       ??_C@_1DE@JNGNBFGO@?$AAR?$AAu?$AAn?$AAt?$AAi?$AAm?$AAe?$AA?5?$AAE?$AAr?$AAr?$AAo?$AAr?$AA?$CB?$AA?6@ 00000001400522f8     libucrtd:report_runtime_error.obj
 0002:00005330       ??_C@_1HK@FJJNAABO@?$AAw?$AAc?$AAs?$AAc?$AAp?$AAy?$AA_?$AAs?$AA?$CI?$AAp?$AAr?$AAo?$AAg?$AAn?$AAa@ 0000000140052330     libucrtd:report_runtime_error.obj
 0002:000053b0       ??_C@_1CO@EAEJAADC@?$AA?$DM?$AAp?$AAr?$AAo?$AAg?$AAr?$AAa?$AAm?$AA?5?$AAn?$AAa?$AAm?$AAe?$AA?5?$AAu@ 00000001400523b0     libucrtd:report_runtime_error.obj
 0002:000053e0       ??_C@_1HI@FLHKGEBE@?$AAw?$AAc?$AAs?$AAn?$AAc?$AAp?$AAy?$AA_?$AAs?$AA?$CI?$AAp?$AAc?$AAh?$AA?0?$AA?5@ 00000001400523e0     libucrtd:report_runtime_error.obj
 0002:00005458       ??_C@_17LGKOMLJ@?$AA?4?$AA?4?$AA?4@ 0000000140052458     libucrtd:report_runtime_error.obj
 0002:00005460       ??_C@_1IG@MNNKBLBI@?$AAw?$AAc?$AAs?$AAc?$AAa?$AAt?$AA_?$AAs?$AA?$CI?$AAo?$AAu?$AAt?$AAm?$AAs?$AAg@ 0000000140052460     libucrtd:report_runtime_error.obj
 0002:000054e8       ??_C@_15IABLJNFO@?$AA?6?$AA?6@ 00000001400524e8     libucrtd:report_runtime_error.obj
 0002:000054f0       ??_C@_1IG@DFBBBDAN@?$AAw?$AAc?$AAs?$AAc?$AAa?$AAt?$AA_?$AAs?$AA?$CI?$AAo?$AAu?$AAt?$AAm?$AAs?$AAg@ 00000001400524f0     libucrtd:report_runtime_error.obj
 0002:00005580       ??_C@_1EK@MBDPDCGA@?$AAM?$AAi?$AAc?$AAr?$AAo?$AAs?$AAo?$AAf?$AAt?$AA?5?$AAV?$AAi?$AAs?$AAu?$AAa@ 0000000140052580     libucrtd:report_runtime_error.obj
 0002:000055f8       ??_C@_0DI@KNDIGDEP@minkernel?2crts?2ucrt?2src?2appcrt?2@ 00000001400525f8     libucrtd:argv_parsing.obj
 0002:00005630       ??_C@_1JO@PGBIJBAM@?$AAm?$AAo?$AAd?$AAe?$AA?5?$AA?$DN?$AA?$DN?$AA?5?$AA_?$AAc?$AAr?$AAt?$AA_?$AAa?$AAr@ 0000000140052630     libucrtd:argv_parsing.obj
 0002:000056d0       ??_C@_1HA@JMLCANEE@?$AAm?$AAi?$AAn?$AAk?$AAe?$AAr?$AAn?$AAe?$AAl?$AA?2?$AAc?$AAr?$AAt?$AAs?$AA?2@ 00000001400526d0     libucrtd:argv_parsing.obj
 0002:00005740       ??_C@_1CM@LHOJELIC@?$AAc?$AAo?$AAm?$AAm?$AAo?$AAn?$AA_?$AAc?$AAo?$AAn?$AAf?$AAi?$AAg?$AAu?$AAr@ 0000000140052740     libucrtd:argv_parsing.obj
 0002:000057f0       ??_C@_0EG@LEHKHOEH@minkernel?2crts?2ucrt?2src?2desktop@ 00000001400527f0     libucrtd:environment_initialization.obj
 0002:00005840       ??_C@_1IM@IMOFFPLG@?$AAm?$AAi?$AAn?$AAk?$AAe?$AAr?$AAn?$AAe?$AAl?$AA?2?$AAc?$AAr?$AAt?$AAs?$AA?2@ 0000000140052840     libucrtd:environment_initialization.obj
 0002:000058d0       ??_C@_1CG@MNNNBNAK@?$AAc?$AAr?$AAe?$AAa?$AAt?$AAe?$AA_?$AAe?$AAn?$AAv?$AAi?$AAr?$AAo?$AAn?$AAm@ 00000001400528d0     libucrtd:environment_initialization.obj
 0002:00005900       ??_C@_1HI@OOPIFFGA@?$AAt?$AAr?$AAa?$AAi?$AAt?$AAs?$AA?3?$AA?3?$AAt?$AAc?$AAs?$AAc?$AAp?$AAy?$AA_@ 0000000140052900     libucrtd:environment_initialization.obj
 0002:000059f0       ??_C@_1BI@BGOHAHKC@?$AAm?$AAs?$AAc?$AAo?$AAr?$AAe?$AAe?$AA?4?$AAd?$AAl?$AAl@ 00000001400529f0     libucrtd:exit.obj
 0002:00005a08       ??_C@_0P@MIGLKIOC@CorExitProcess@ 0000000140052a08     libucrtd:exit.obj
 0002:00005a20       ??_C@_1GC@CIJNGKLD@?$AAm?$AAi?$AAn?$AAk?$AAe?$AAr?$AAn?$AAe?$AAl?$AA?2?$AAc?$AAr?$AAt?$AAs?$AA?2@ 0000000140052a20     libucrtd:setmode.obj
 0002:00005a90       ??_C@_1FO@LPCLHKGE@?$AA?$CI?$AAf?$AAh?$AA?5?$AA?$DO?$AA?$DN?$AA?5?$AA0?$AA?5?$AA?$CG?$AA?$CG?$AA?5?$AA?$CI?$AAu?$AAn@ 0000000140052a90     libucrtd:setmode.obj
 0002:00005af0       ??_C@_1CM@OKGMMMDH@?$AA?$CI?$AA_?$AAo?$AAs?$AAf?$AAi?$AAl?$AAe?$AA?$CI?$AAf?$AAh?$AA?$CJ?$AA?5?$AA?$CG?$AA?5@ 0000000140052af0     libucrtd:setmode.obj
 0002:00005b20       ??_C@_1JE@ECKHFIFP@?$AA?$CI?$AA?$CC?$AAI?$AAn?$AAv?$AAa?$AAl?$AAi?$AAd?$AA?5?$AAf?$AAi?$AAl?$AAe?$AA?5@ 0000000140052b20     libucrtd:setmode.obj
 0002:00005bc0       ??_C@_1HC@GNDCDMJL@?$AAm?$AAo?$AAd?$AAe?$AA?5?$AA?$DN?$AA?$DN?$AA?5?$AA_?$AAO?$AA_?$AAT?$AAE?$AAX?$AAT@ 0000000140052bc0     libucrtd:setmode.obj
 0002:00005c38       ??_C@_1BG@IEEHLOCL@?$AA_?$AAs?$AAe?$AAt?$AA_?$AAf?$AAm?$AAo?$AAd?$AAe@ 0000000140052c38     libucrtd:setmode.obj
 0002:00005c50       ??_C@_1CC@ODGEBJBO@?$AAp?$AAM?$AAo?$AAd?$AAe?$AA?5?$AA?$CB?$AA?$DN?$AA?5?$AAn?$AAu?$AAl?$AAl?$AAp?$AAt@ 0000000140052c50     libucrtd:setmode.obj
 0002:00005c78       ??_C@_1BG@CKGMPOFH@?$AA_?$AAg?$AAe?$AAt?$AA_?$AAf?$AAm?$AAo?$AAd?$AAe@ 0000000140052c78     libucrtd:setmode.obj
 0002:00005ce0       ??_C@_1GA@LDEGDKD@?$AA?$CI?$AA?$CC?$AAI?$AAn?$AAv?$AAa?$AAl?$AAi?$AAd?$AA?5?$AAp?$AAa?$AAr?$AAa?$AAm@ 0000000140052ce0     libucrtd:wsetlocale.obj
 0002:00005d40       ??_C@_1GK@DPKNLBIE@?$AAm?$AAi?$AAn?$AAk?$AAe?$AAr?$AAn?$AAe?$AAl?$AA?2?$AAc?$AAr?$AAt?$AAs?$AA?2@ 0000000140052d40     libucrtd:wsetlocale.obj
 0002:00005db0       ??_C@_1CI@FGIONOJM@?$AA_?$AAc?$AAo?$AAn?$AAf?$AAi?$AAg?$AAt?$AAh?$AAr?$AAe?$AAa?$AAd?$AAl?$AAo@ 0000000140052db0     libucrtd:wsetlocale.obj
 0002:00005dd8       ??_C@_1CO@JKFLNGDK@?$AAm?$AAo?$AAd?$AAe?$AA?5?$AA?$DN?$AA?$DN?$AA?5?$AA0?$AA?5?$AA?$HM?$AA?$HM?$AA?5?$AAm?$AAo@ 0000000140052dd8     libucrtd:new_mode.obj
 0002:00005e10       ??_C@_1GC@PJMKBHEK@?$AAm?$AAi?$AAn?$AAk?$AAe?$AAr?$AAn?$AAe?$AAl?$AA?2?$AAc?$AAr?$AAt?$AAs?$AA?2@ 0000000140052e10     libucrtd:new_mode.obj
 0002:00005e78       ??_C@_1BM@PDPAKJNF@?$AA_?$AAs?$AAe?$AAt?$AA_?$AAn?$AAe?$AAw?$AA_?$AAm?$AAo?$AAd?$AAe@ 0000000140052e78     libucrtd:new_mode.obj
 0002:00005f10       ??_C@_0DC@NBHMIIKL@minkernel?2crts?2ucrt?2src?2appcrt?2@ 0000000140052f10     libucrtd:onexit.obj
 0002:000060a0       ??_C@_04HJMOFLDF@Free@     00000001400530a0     libucrtd:debug_heap.obj
 0002:000060a8       ??_C@_06EFAGIKOH@Normal@   00000001400530a8     libucrtd:debug_heap.obj
 0002:000060b0       ??_C@_03OGPFLFLO@CRT@      00000001400530b0     libucrtd:debug_heap.obj
 0002:000060b4       ??_C@_06KMEJCCGM@Ignore@   00000001400530b4     libucrtd:debug_heap.obj
 0002:000060bc       ??_C@_06PJIGMIJB@Client@   00000001400530bc     libucrtd:debug_heap.obj
 0002:00006140       ??_C@_1CE@LJFEPPMP@?$AA_?$AAC?$AAr?$AAt?$AAC?$AAh?$AAe?$AAc?$AAk?$AAM?$AAe?$AAm?$AAo?$AAr?$AAy@ 0000000140053140     libucrtd:debug_heap.obj
 0002:00006170       ??_C@_1GG@OCLHPJPK@?$AAm?$AAi?$AAn?$AAk?$AAe?$AAr?$AAn?$AAe?$AAl?$AA?2?$AAc?$AAr?$AAt?$AAs?$AA?2@ 0000000140053170     libucrtd:debug_heap.obj
 0002:000061d8       ??_C@_0DF@BBEGIFEK@Client?5hook?5allocation?5failure?5@ 00000001400531d8     libucrtd:debug_heap.obj
 0002:00006210       ??_C@_0CB@CCLOLAHO@Client?5hook?5allocation?5failure?4@ 0000000140053210     libucrtd:debug_heap.obj
 0002:00006238       ??_C@_0DC@JEMAGEKG@Error?3?5memory?5allocation?3?5bad?5m@ 0000000140053238     libucrtd:debug_heap.obj
 0002:00006270       ??_C@_0DI@KKJPDPGM@Client?5hook?5re?9allocation?5failu@ 0000000140053270     libucrtd:debug_heap.obj
 0002:000062a8       ??_C@_0CE@DOFMDOL@Client?5hook?5re?9allocation?5failu@ 00000001400532a8     libucrtd:debug_heap.obj
 0002:000062d0       ??_C@_0FA@EFEIGJKG@Error?3?5memory?5allocation?3?5bad?5m@ 00000001400532d0     libucrtd:debug_heap.obj
 0002:00006320       ??_C@_0EM@LGFLMAGJ@The?5Block?5at?50x?$CFp?5was?5allocated@ 0000000140053320     libucrtd:debug_heap.obj
 0002:00006370       ??_C@_1DM@DEDLGNML@?$AA_?$AAC?$AAr?$AAt?$AAI?$AAs?$AAV?$AAa?$AAl?$AAi?$AAd?$AAH?$AAe?$AAa?$AAp@ 0000000140053370     libucrtd:debug_heap.obj
 0002:000063b0       ??_C@_1PC@MCGKJLN@?$AAo?$AAl?$AAd?$AA_?$AAh?$AAe?$AAa?$AAd?$AA?9?$AA?$DO?$AA_?$AAl?$AAi?$AAn?$AAe@ 00000001400533b0     libucrtd:debug_heap.obj
 0002:000064a8       ??_C@_0DA@HFBKENN@Error?3?5possible?5heap?5corruption@ 00000001400534a8     libucrtd:debug_heap.obj
 0002:000064e0       ??_C@_1JM@MCMEPJEP@?$AAr?$AAe?$AAa?$AAl?$AAl?$AAo?$AAc?$AAa?$AAt?$AAi?$AAo?$AAn?$AA_?$AAi?$AAs@ 00000001400534e0     libucrtd:debug_heap.obj
 0002:00006580       ??_C@_1DM@LNOPKAIJ@?$AA_?$AA_?$AAa?$AAc?$AAr?$AAt?$AA_?$AAl?$AAa?$AAs?$AAt?$AA_?$AAb?$AAl?$AAo@ 0000000140053580     libucrtd:debug_heap.obj
 0002:000065c0       ??_C@_1DO@HABCJBHO@?$AA_?$AA_?$AAa?$AAc?$AAr?$AAt?$AA_?$AAf?$AAi?$AAr?$AAs?$AAt?$AA_?$AAb?$AAl@ 00000001400535c0     libucrtd:debug_heap.obj
 0002:00006600       ??_C@_1CC@CKEAHJPH@?$AAb?$AAl?$AAo?$AAc?$AAk?$AA?5?$AA?$CB?$AA?$DN?$AA?5?$AAn?$AAu?$AAl?$AAl?$AAp?$AAt@ 0000000140053600     libucrtd:debug_heap.obj
 0002:00006630       ??_C@_0EJ@HEIBCIMJ@The?5Block?5at?50x?$CFp?5was?5allocated@ 0000000140053630     libucrtd:debug_heap.obj
 0002:00006680       ??_C@_0BL@KEIPLFAC@Client?5hook?5free?5failure?4?6@ 0000000140053680     libucrtd:debug_heap.obj
 0002:000066a0       ??_C@_1FA@KDNEBILF@?$AAi?$AAs?$AA_?$AAb?$AAl?$AAo?$AAc?$AAk?$AA_?$AAt?$AAy?$AAp?$AAe?$AA_?$AAv@ 00000001400536a0     libucrtd:debug_heap.obj
 0002:000066f0       ??_C@_0KI@JGFOHMEB@HEAP?5CORRUPTION?5DETECTED?3?5befor@ 00000001400536f0     libucrtd:debug_heap.obj
 0002:000067a0       ??_C@_0IK@PJCGLBOB@HEAP?5CORRUPTION?5DETECTED?3?5befor@ 00000001400537a0     libucrtd:debug_heap.obj
 0002:00006830       ??_C@_0KE@MBMNHHHN@HEAP?5CORRUPTION?5DETECTED?3?5after@ 0000000140053830     libucrtd:debug_heap.obj
 0002:000068e0       ??_C@_0IG@LEMBDCJK@HEAP?5CORRUPTION?5DETECTED?3?5after@ 00000001400538e0     libucrtd:debug_heap.obj
 0002:00006970       ??_C@_1OK@GFEOEJAF@?$AAh?$AAe?$AAa?$AAd?$AAe?$AAr?$AA?9?$AA?$DO?$AA_?$AAl?$AAi?$AAn?$AAe?$AA_?$AAn@ 0000000140053970     libucrtd:debug_heap.obj
 0002:00006a60       ??_C@_1ME@GFALMLNA@?$AAh?$AAe?$AAa?$AAd?$AAe?$AAr?$AA?9?$AA?$DO?$AA_?$AAb?$AAl?$AAo?$AAc?$AAk?$AA_@ 0000000140053a60     libucrtd:debug_heap.obj
 0002:00006b28       ??_C@_1DI@ILNOPEPI@?$AA_?$AA_?$AAa?$AAc?$AAr?$AAt?$AA_?$AAl?$AAa?$AAs?$AAt?$AA_?$AAb?$AAl?$AAo@ 0000000140053b28     libucrtd:debug_heap.obj
 0002:00006b60       ??_C@_1DK@KEHFGDIJ@?$AA_?$AA_?$AAa?$AAc?$AAr?$AAt?$AA_?$AAf?$AAi?$AAr?$AAs?$AAt?$AA_?$AAb?$AAl@ 0000000140053b60     libucrtd:debug_heap.obj
 0002:00006ba0       ??_C@_1BG@MBKOGDLD@?$AA_?$AAm?$AAs?$AAi?$AAz?$AAe?$AA_?$AAd?$AAb?$AAg@ 0000000140053ba0     libucrtd:debug_heap.obj
 0002:00006bb8       ??_C@_07OHKEFPKJ@DAMAGED@  0000000140053bb8     libucrtd:debug_heap.obj
 0002:00006bc0       ??_C@_0KA@IHNJJKPL@HEAP?5CORRUPTION?5DETECTED?3?5on?5to@ 0000000140053bc0     libucrtd:debug_heap.obj
 0002:00006c60       ??_C@_0IC@BBJIOOJH@HEAP?5CORRUPTION?5DETECTED?3?5on?5to@ 0000000140053c60     libucrtd:debug_heap.obj
 0002:00006cf0       ??_C@_0EG@DGJMPDBH@?$CFhs?5located?5at?50x?$CFp?5is?5?$CFIu?5byte@ 0000000140053cf0     libucrtd:debug_heap.obj
 0002:00006d38       ??_C@_0CI@JMLBEDHJ@?$CFhs?5located?5at?50x?$CFp?5is?5?$CFIu?5byte@ 0000000140053d38     libucrtd:debug_heap.obj
 0002:00006d60       ??_C@_0EG@GPFHANHO@Cycle?5in?5block?5list?5detected?5wh@ 0000000140053d60     libucrtd:debug_heap.obj
 0002:00006da8       ??_C@_0BJ@ELMAOCAJ@Heap?5validation?5failed?4?6@ 0000000140053da8     libucrtd:debug_heap.obj
 0002:00006dd0       ??_C@_1IE@BBIFDGEB@?$AAn?$AAe?$AAw?$AA_?$AAb?$AAi?$AAt?$AAs?$AA?5?$AA?$DN?$AA?$DN?$AA?5?$AA_?$AAC?$AAR@ 0000000140053dd0     libucrtd:debug_heap.obj
 0002:00006e58       ??_C@_1BO@GJFDNMNF@?$AA_?$AAC?$AAr?$AAt?$AAS?$AAe?$AAt?$AAD?$AAb?$AAg?$AAF?$AAl?$AAa?$AAg@ 0000000140053e58     libucrtd:debug_heap.obj
 0002:00006e78       ??_C@_1CC@BBKMONGA@?$AAs?$AAt?$AAa?$AAt?$AAe?$AA?5?$AA?$CB?$AA?$DN?$AA?5?$AAn?$AAu?$AAl?$AAl?$AAp?$AAt@ 0000000140053e78     libucrtd:debug_heap.obj
 0002:00006ea0       ??_C@_1CE@NJJKELF@?$AA_?$AAC?$AAr?$AAt?$AAM?$AAe?$AAm?$AAC?$AAh?$AAe?$AAc?$AAk?$AAp?$AAo?$AAi@ 0000000140053ea0     libucrtd:debug_heap.obj
 0002:00006ec8       ??_C@_0DP@LEFMFBOD@Bad?5memory?5block?5found?5at?50x?$CFp?4@ 0000000140053ec8     libucrtd:debug_heap.obj
 0002:00006f08       ??_C@_0CB@EAAIGELO@Bad?5memory?5block?5found?5at?50x?$CFp?4@ 0000000140053f08     libucrtd:debug_heap.obj
 0002:00006f2c       ??_C@_05MKKEDADM@?$CF?42X?5@ 0000000140053f2c     libucrtd:debug_heap.obj
 0002:00006f38       ??_C@_1CC@DIJAHFFJ@?$AAp?$AAr?$AAi?$AAn?$AAt?$AA_?$AAb?$AAl?$AAo?$AAc?$AAk?$AA_?$AAd?$AAa?$AAt@ 0000000140053f38     libucrtd:debug_heap.obj
 0002:00006f60       ??_C@_1BI@KALLJECN@?$AA?$CI?$AA?$CK?$AA_?$AAe?$AAr?$AAr?$AAn?$AAo?$AA?$CI?$AA?$CJ?$AA?$CJ@ 0000000140053f60     libucrtd:debug_heap.obj
 0002:00006f78       ??_C@_0BA@HJBKCELP@?5Data?3?5?$DM?$CFs?$DO?5?$CFs?6@ 0000000140053f78     libucrtd:debug_heap.obj
 0002:00006f88       ??_C@_0BE@KCIPKCIA@Dumping?5objects?5?9?$DO?6@ 0000000140053f88     libucrtd:debug_heap.obj
 0002:00006fa0       ??_C@_0BE@OIEFNFL@?$CDFile?5Error?$CD?$CI?$CFd?$CJ?5?3?5@ 0000000140053fa0     libucrtd:debug_heap.obj
 0002:00006fb8       ??_C@_0L@JMEFFCCJ@?$CFhs?$CI?$CFd?$CJ?5?3?5@ 0000000140053fb8     libucrtd:debug_heap.obj
 0002:00006fc4       ??_C@_06PKLGBFGM@?$HL?$CFld?$HN?5@ 0000000140053fc4     libucrtd:debug_heap.obj
 0002:00006fd0       ??_C@_0DD@GHNAAKBB@client?5block?5at?50x?$CFp?0?5subtype?5?$CF@ 0000000140053fd0     libucrtd:debug_heap.obj
 0002:00007008       ??_C@_0CH@FAGDDGPN@normal?5block?5at?50x?$CFp?0?5?$CFIu?5bytes@ 0000000140054008     libucrtd:debug_heap.obj
 0002:00007030       ??_C@_0DA@MDLBNIBM@crt?5block?5at?50x?$CFp?0?5subtype?5?$CFx?0?5@ 0000000140054030     libucrtd:debug_heap.obj
 0002:00007060       ??_C@_0BH@GFGKJDCO@Object?5dump?5complete?4?6@ 0000000140054060     libucrtd:debug_heap.obj
 0002:00007078       ??_C@_0BI@JBFPOEJA@Detected?5memory?5leaks?$CB?6@ 0000000140054078     libucrtd:debug_heap.obj
 0002:00007090       ??_C@_1GI@BBAEIKL@?$AA?$CI?$AA?$CI?$AAd?$AAe?$AAs?$AAt?$AAi?$AAn?$AAa?$AAt?$AAi?$AAo?$AAn?$AA?$CJ?$AA?$CJ@ 0000000140054090     libucrtd:strcpy_s.obj
 0002:00007100       ??_C@_1HI@PBJPCEBC@?$AAm?$AAi?$AAn?$AAk?$AAe?$AAr?$AAn?$AAe?$AAl?$AA?2?$AAc?$AAr?$AAt?$AAs?$AA?2@ 0000000140054100     libucrtd:strcpy_s.obj
 0002:00007178       ??_C@_1CA@FHIAGDFH@?$AAc?$AAo?$AAm?$AAm?$AAo?$AAn?$AA_?$AAt?$AAc?$AAs?$AAc?$AAp?$AAy?$AA_?$AAs@ 0000000140054178     libucrtd:strcpy_s.obj
 0002:00007198       ??_C@_1CK@EIOKGPJL@?$AA?$CI?$AA?$CI?$AA?$CI?$AAs?$AAo?$AAu?$AAr?$AAc?$AAe?$AA?$CJ?$AA?$CJ?$AA?$CJ?$AA?5?$AA?$CB?$AA?$DN@ 0000000140054198     libucrtd:strcpy_s.obj
 0002:000071c8       ??_C@_1CI@HCPHDDLE@?$AAB?$AAu?$AAf?$AAf?$AAe?$AAr?$AA?5?$AAi?$AAs?$AA?5?$AAt?$AAo?$AAo?$AA?5?$AAs@ 00000001400541c8     libucrtd:strcpy_s.obj
 0002:000071f0       ??_C@_1DM@MADKGDLO@?$AA?$CI?$AAL?$AA?$CC?$AAB?$AAu?$AAf?$AAf?$AAe?$AAr?$AA?5?$AAi?$AAs?$AA?5?$AAt?$AAo@ 00000001400541f0     libucrtd:strcpy_s.obj
 0002:00007230       ??_C@_1DA@LLLMNMKI@?$AAa?$AAb?$AAo?$AAr?$AAt?$AA?$CI?$AA?$CJ?$AA?5?$AAh?$AAa?$AAs?$AA?5?$AAb?$AAe?$AAe@ 0000000140054230     libucrtd:abort.obj
 0002:00007278       ??_C@_1BA@GLMCNLEM@?$AAW?$AAa?$AAr?$AAn?$AAi?$AAn?$AAg@ 0000000140054278     libucrtd:dbgrpt.obj
 0002:00007288       ??_C@_1M@ILHOPKA@?$AAE?$AAr?$AAr?$AAo?$AAr@ 0000000140054288     libucrtd:dbgrpt.obj
 0002:00007298       ??_C@_1CC@CGHMNGDG@?$AAA?$AAs?$AAs?$AAe?$AAr?$AAt?$AAi?$AAo?$AAn?$AA?5?$AAF?$AAa?$AAi?$AAl?$AAe@ 0000000140054298     libucrtd:dbgrpt.obj
 0002:000072d0       ??_C@_1OG@PMPPFHAF@?$AA?6?$AA?6?$AAF?$AAo?$AAr?$AA?5?$AAi?$AAn?$AAf?$AAo?$AAr?$AAm?$AAa?$AAt?$AAi@ 00000001400542d0     libucrtd:dbgrpt.obj
 0002:000073c0       ??_C@_1MG@LJLILFFD@?$AAD?$AAe?$AAb?$AAu?$AAg?$AA?5?$AA?$CF?$AAl?$AAs?$AA?$CB?$AA?6?$AA?6?$AAP?$AAr?$AAo@ 00000001400543c0     libucrtd:dbgrpt.obj
 0002:00007490       ??_C@_1MG@OODCADGL@?$AAD?$AAe?$AAb?$AAu?$AAg?$AA?5?$AA?$CF?$AAl?$AAs?$AA?$CB?$AA?6?$AA?6?$AAP?$AAr?$AAo@ 0000000140054490     libucrtd:dbgrpt.obj
 0002:00007558       ??_C@_0BH@DNAGHKFM@?$DMprogram?5name?5unknown?$DO@ 0000000140054558     libucrtd:dbgrpt.obj
 0002:00007570       ??_C@_1FO@GMJDLAJD@?$AAm?$AAi?$AAn?$AAk?$AAe?$AAr?$AAn?$AAe?$AAl?$AA?2?$AAc?$AAr?$AAt?$AAs?$AA?2@ 0000000140054570     libucrtd:dbgrpt.obj
 0002:000075d0       ??_C@_1CM@EHMOGBJJ@?$AAc?$AAo?$AAm?$AAm?$AAo?$AAn?$AA_?$AAm?$AAe?$AAs?$AAs?$AAa?$AAg?$AAe?$AA_@ 00000001400545d0     libucrtd:dbgrpt.obj
 0002:00007600       ??_C@_1PE@ECNALGCA@?$AAt?$AAr?$AAa?$AAi?$AAt?$AAs?$AA?3?$AA?3?$AAt?$AAc?$AAs?$AAc?$AAp?$AAy?$AA_@ 0000000140054600     libucrtd:dbgrpt.obj
 0002:000076f8       ??_C@_1BK@PEDCIPMA@?$AAE?$AAx?$AAp?$AAr?$AAe?$AAs?$AAs?$AAi?$AAo?$AAn?$AA?3?$AA?5@ 00000001400546f8     libucrtd:dbgrpt.obj
 0002:00007718       ??_C@_1BA@GLLGCPCK@?$AA?6?$AAL?$AAi?$AAn?$AAe?$AA?3?$AA?5@ 0000000140054718     libucrtd:dbgrpt.obj
 0002:00007728       ??_C@_1BA@LNHECFIM@?$AA?6?$AAF?$AAi?$AAl?$AAe?$AA?3?$AA?5@ 0000000140054728     libucrtd:dbgrpt.obj
 0002:00007738       ??_C@_1BE@CGCJKGHI@?$AA?6?$AAM?$AAo?$AAd?$AAu?$AAl?$AAe?$AA?3?$AA?5@ 0000000140054738     libucrtd:dbgrpt.obj
 0002:00007750       ??_C@_1JM@IBOIJEOO@?$AAw?$AAc?$AAs?$AAc?$AAp?$AAy?$AA_?$AAs?$AA?$CI?$AAm?$AAe?$AAs?$AAs?$AAa?$AAg@ 0000000140054750     libucrtd:dbgrpt.obj
 0002:000077f0       ??_C@_1FG@BBOLDHGF@?$AA_?$AAC?$AAr?$AAt?$AAD?$AAb?$AAg?$AAR?$AAe?$AAp?$AAo?$AAr?$AAt?$AA?3?$AA?5@ 00000001400547f0     libucrtd:dbgrpt.obj
 0002:00007a60       ??_C@_1EA@JGEFHKEI@?$AAa?$AAp?$AAi?$AA?9?$AAm?$AAs?$AA?9?$AAw?$AAi?$AAn?$AA?9?$AAc?$AAo?$AAr?$AAe@ 0000000140054a60     libucrtd:winapi_thunks.obj
 0002:00007aa0       ??_C@_1DI@IJCEHOCB@?$AAa?$AAp?$AAi?$AA?9?$AAm?$AAs?$AA?9?$AAw?$AAi?$AAn?$AA?9?$AAc?$AAo?$AAr?$AAe@ 0000000140054aa0     libucrtd:winapi_thunks.obj
 0002:00007ae0       ??_C@_1EI@MPIAOHOC@?$AAa?$AAp?$AAi?$AA?9?$AAm?$AAs?$AA?9?$AAw?$AAi?$AAn?$AA?9?$AAc?$AAo?$AAr?$AAe@ 0000000140054ae0     libucrtd:winapi_thunks.obj
 0002:00007b30       ??_C@_1FK@FPHCKFIE@?$AAa?$AAp?$AAi?$AA?9?$AAm?$AAs?$AA?9?$AAw?$AAi?$AAn?$AA?9?$AAc?$AAo?$AAr?$AAe@ 0000000140054b30     libucrtd:winapi_thunks.obj
 0002:00007b90       ??_C@_1EM@DILCGIIO@?$AAa?$AAp?$AAi?$AA?9?$AAm?$AAs?$AA?9?$AAw?$AAi?$AAn?$AA?9?$AAc?$AAo?$AAr?$AAe@ 0000000140054b90     libucrtd:winapi_thunks.obj
 0002:00007be0       ??_C@_1DM@LNCGDDPN@?$AAa?$AAp?$AAi?$AA?9?$AAm?$AAs?$AA?9?$AAw?$AAi?$AAn?$AA?9?$AAc?$AAo?$AAr?$AAe@ 0000000140054be0     libucrtd:winapi_thunks.obj
 0002:00007c20       ??_C@_1DO@FPAPJEMD@?$AAa?$AAp?$AAi?$AA?9?$AAm?$AAs?$AA?9?$AAw?$AAi?$AAn?$AA?9?$AAc?$AAo?$AAr?$AAe@ 0000000140054c20     libucrtd:winapi_thunks.obj
 0002:00007c60       ??_C@_1DK@NDHNAHIO@?$AAa?$AAp?$AAi?$AA?9?$AAm?$AAs?$AA?9?$AAw?$AAi?$AAn?$AA?9?$AAc?$AAo?$AAr?$AAe@ 0000000140054c60     libucrtd:winapi_thunks.obj
 0002:00007ca0       ??_C@_1DM@KGHDGBCM@?$AAa?$AAp?$AAi?$AA?9?$AAm?$AAs?$AA?9?$AAw?$AAi?$AAn?$AA?9?$AAc?$AAo?$AAr?$AAe@ 0000000140054ca0     libucrtd:winapi_thunks.obj
 0002:00007ce0       ??_C@_1EO@IJIOEFOH@?$AAa?$AAp?$AAi?$AA?9?$AAm?$AAs?$AA?9?$AAw?$AAi?$AAn?$AA?9?$AAr?$AAt?$AAc?$AAo@ 0000000140054ce0     libucrtd:winapi_thunks.obj
 0002:00007d30       ??_C@_1FG@HHGEKANL@?$AAa?$AAp?$AAi?$AA?9?$AAm?$AAs?$AA?9?$AAw?$AAi?$AAn?$AA?9?$AAs?$AAe?$AAc?$AAu@ 0000000140054d30     libucrtd:winapi_thunks.obj
 0002:00007d90       ??_C@_1EG@DBIOJECG@?$AAe?$AAx?$AAt?$AA?9?$AAm?$AAs?$AA?9?$AAw?$AAi?$AAn?$AA?9?$AAn?$AAt?$AAu?$AAs@ 0000000140054d90     libucrtd:winapi_thunks.obj
 0002:00007de0       ??_C@_1EO@FIHMJCLF@?$AAe?$AAx?$AAt?$AA?9?$AAm?$AAs?$AA?9?$AAw?$AAi?$AAn?$AA?9?$AAn?$AAt?$AAu?$AAs@ 0000000140054de0     libucrtd:winapi_thunks.obj
 0002:00007e30       ??_C@_1BC@DNHGCMLG@?$AAa?$AAd?$AAv?$AAa?$AAp?$AAi?$AA3?$AA2@ 0000000140054e30     libucrtd:winapi_thunks.obj
 0002:00007e48       ??_C@_1M@OAIMIKLP@?$AAn?$AAt?$AAd?$AAl?$AAl@ 0000000140054e48     libucrtd:winapi_thunks.obj
 0002:00007e60       ??_C@_1EG@DPGNFKGC@?$AAa?$AAp?$AAi?$AA?9?$AAm?$AAs?$AA?9?$AAw?$AAi?$AAn?$AA?9?$AAa?$AAp?$AAp?$AAm@ 0000000140054e60     libucrtd:winapi_thunks.obj
 0002:00007ea8       ??_C@_1O@BCCLBEOE@?$AAu?$AAs?$AAe?$AAr?$AA3?$AA2@ 0000000140054ea8     libucrtd:winapi_thunks.obj
 0002:00007eb8       ??_C@_1BA@IAIFMGEF@?$AAe?$AAx?$AAt?$AA?9?$AAm?$AAs?$AA?9@ 0000000140054eb8     libucrtd:winapi_thunks.obj
 0002:00007ed0       ??_C@_1HE@OILMBOBA@?$AAm?$AAi?$AAn?$AAk?$AAe?$AAr?$AAn?$AAe?$AAl?$AA?2?$AAc?$AAr?$AAt?$AAs?$AA?2@ 0000000140054ed0     libucrtd:winapi_thunks.obj
 0002:00007f48       ??_C@_0BA@FHFNEAED@AreFileApisANSI@ 0000000140054f48     libucrtd:winapi_thunks.obj
 0002:00007f60       ??_C@_0BA@IHGNDAEB@CompareStringEx@ 0000000140054f60     libucrtd:winapi_thunks.obj
 0002:00007f78       ??_C@_0BA@HNOPNCHB@GetActiveWindow@ 0000000140054f78     libucrtd:winapi_thunks.obj
 0002:00007f90       ??_C@_0BD@HHGDFDBJ@GetLastActivePopup@ 0000000140054f90     libucrtd:winapi_thunks.obj
 0002:00007fb0       ??_C@_0BI@DFKBFLJE@GetProcessWindowStation@ 0000000140054fb0     libucrtd:winapi_thunks.obj
 0002:00007fd0       ??_C@_0BK@DEKFELLI@GetUserObjectInformationW@ 0000000140054fd0     libucrtd:winapi_thunks.obj
 0002:00008000       ??_C@_0O@KKBNKAPF@LCMapStringEx@ 0000000140055000     libucrtd:winapi_thunks.obj
 0002:00008018       ??_C@_0BB@HBDEELFH@LocaleNameToLCID@ 0000000140055018     libucrtd:winapi_thunks.obj
 0002:00008038       ??_C@_0M@CHKKJDAI@MessageBoxA@ 0000000140055038     libucrtd:winapi_thunks.obj
 0002:00008050       ??_C@_0M@DLDCCGNP@MessageBoxW@ 0000000140055050     libucrtd:winapi_thunks.obj
 0002:00008060       ??_C@_0CF@OJOFEIGO@AppPolicyGetProcessTerminationM@ 0000000140055060     libucrtd:winapi_thunks.obj
 0002:00008090       ??_C@_0CE@OICFMIKE@AppPolicyGetShowDeveloperDiagno@ 0000000140055090     libucrtd:winapi_thunks.obj
 0002:000080b8       ??_C@_0BL@ODDJNEDA@AppPolicyGetWindowingModel@ 00000001400550b8     libucrtd:winapi_thunks.obj
 0002:00008150       ??_C@_1GE@GPOPIOIG@?$AAm?$AAi?$AAn?$AAk?$AAe?$AAr?$AAn?$AAe?$AAl?$AA?2?$AAc?$AAr?$AAt?$AAs?$AA?2@ 0000000140055150     libucrtd:_freebuf.obj
 0002:000081c0       ??_C@_1GA@KCAHHNGP@?$AAm?$AAi?$AAn?$AAk?$AAe?$AAr?$AAn?$AAe?$AAl?$AA?2?$AAc?$AAr?$AAt?$AAs?$AA?2@ 00000001400551c0     libucrtd:fileno.obj
 0002:00008220       ??_C@_1BA@JGHIEKKM@?$AA_?$AAf?$AAi?$AAl?$AAe?$AAn?$AAo@ 0000000140055220     libucrtd:fileno.obj
 0002:00008260       ??_C@_1FO@IPDGALOE@?$AAm?$AAi?$AAn?$AAk?$AAe?$AAr?$AAn?$AAe?$AAl?$AA?2?$AAc?$AAr?$AAt?$AAs?$AA?2@ 0000000140055260     libucrtd:close.obj
 0002:000082c0       ??_C@_1CA@GBJHJLEM@?$AA_?$AAc?$AAl?$AAo?$AAs?$AAe?$AA_?$AAi?$AAn?$AAt?$AAe?$AAr?$AAn?$AAa?$AAl@ 00000001400552c0     libucrtd:close.obj
 0002:000082e0       ??_C@_0DA@OGKFKCBE@minkernel?2crts?2ucrt?2src?2appcrt?2@ 00000001400552e0     libucrtd:stream.obj
 0002:00008400       ??_C@_0DM@DKIFNNOL@minkernel?2crts?2ucrt?2src?2appcrt?2@ 0000000140055400     libucrtd:per_thread_data.obj
 0002:00008440       __lc_time_c                0000000140055440     libucrtd:nlsdata.obj
 0002:00008700       ??_C@_03KOEHGMDN@Sun@      0000000140055700     libucrtd:nlsdata.obj
 0002:00008704       ??_C@_03PDAGKDH@Mon@       0000000140055704     libucrtd:nlsdata.obj
 0002:00008708       ??_C@_03NAGEINEP@Tue@      0000000140055708     libucrtd:nlsdata.obj
 0002:0000870c       ??_C@_03MHOMLAJA@Wed@      000000014005570c     libucrtd:nlsdata.obj
 0002:00008710       ??_C@_03IOFIKPDN@Thu@      0000000140055710     libucrtd:nlsdata.obj
 0002:00008714       ??_C@_03IDIOELNC@Fri@      0000000140055714     libucrtd:nlsdata.obj
 0002:00008718       ??_C@_03FEFJNEK@Sat@       0000000140055718     libucrtd:nlsdata.obj
 0002:0000871c       ??_C@_06OOPIFAJ@Sunday@    000000014005571c     libucrtd:nlsdata.obj
 0002:00008724       ??_C@_06JLEDEDGH@Monday@   0000000140055724     libucrtd:nlsdata.obj
 0002:00008730       ??_C@_07BAAGCFCM@Tuesday@  0000000140055730     libucrtd:nlsdata.obj
 0002:00008738       ??_C@_09DLIGFAKA@Wednesday@ 0000000140055738     libucrtd:nlsdata.obj
 0002:00008748       ??_C@_08HACCIKIA@Thursday@ 0000000140055748     libucrtd:nlsdata.obj
 0002:00008754       ??_C@_06JECMNKMI@Friday@   0000000140055754     libucrtd:nlsdata.obj
 0002:00008760       ??_C@_08INBOOONO@Saturday@ 0000000140055760     libucrtd:nlsdata.obj
 0002:0000876c       ??_C@_03JIHJHPIE@Jan@      000000014005576c     libucrtd:nlsdata.obj
 0002:00008770       ??_C@_03HJBDCHOM@Feb@      0000000140055770     libucrtd:nlsdata.obj
 0002:00008774       ??_C@_03ODNJBKGA@Mar@      0000000140055774     libucrtd:nlsdata.obj
 0002:00008778       ??_C@_03LEOLGMJP@Apr@      0000000140055778     libucrtd:nlsdata.obj
 0002:0000877c       ??_C@_03CNMDKL@May@        000000014005577c     libucrtd:nlsdata.obj
 0002:00008780       ??_C@_03IDFGHECI@Jun@      0000000140055780     libucrtd:nlsdata.obj
 0002:00008784       ??_C@_03LBGABGKK@Jul@      0000000140055784     libucrtd:nlsdata.obj
 0002:00008788       ??_C@_03IFJFEIGA@Aug@      0000000140055788     libucrtd:nlsdata.obj
 0002:0000878c       ??_C@_03GGCAPAJC@Sep@      000000014005578c     libucrtd:nlsdata.obj
 0002:00008790       ??_C@_03BMAOKBAD@Oct@      0000000140055790     libucrtd:nlsdata.obj
 0002:00008794       ??_C@_03JPJOFNIA@Nov@      0000000140055794     libucrtd:nlsdata.obj
 0002:00008798       ??_C@_03MKABNOCG@Dec@      0000000140055798     libucrtd:nlsdata.obj
 0002:000087a0       ??_C@_07CGJPFGJA@January@  00000001400557a0     libucrtd:nlsdata.obj
 0002:000087a8       ??_C@_08GNJGEPFN@February@ 00000001400557a8     libucrtd:nlsdata.obj
 0002:000087b4       ??_C@_05HPCKOFNC@March@    00000001400557b4     libucrtd:nlsdata.obj
 0002:000087bc       ??_C@_05DMJDNLEJ@April@    00000001400557bc     libucrtd:nlsdata.obj
 0002:000087c4       ??_C@_04CNLMGBGM@June@     00000001400557c4     libucrtd:nlsdata.obj
 0002:000087cc       ??_C@_04MIEPOIFP@July@     00000001400557cc     libucrtd:nlsdata.obj
 0002:000087d4       ??_C@_06LBBHFDDG@August@   00000001400557d4     libucrtd:nlsdata.obj
 0002:000087e0       ??_C@_09BHHEALKD@September@ 00000001400557e0     libucrtd:nlsdata.obj
 0002:000087f0       ??_C@_07JJNFCEND@October@  00000001400557f0     libucrtd:nlsdata.obj
 0002:000087f8       ??_C@_08HCHEGEOA@November@ 00000001400557f8     libucrtd:nlsdata.obj
 0002:00008808       ??_C@_08EDHMEBNP@December@ 0000000140055808     libucrtd:nlsdata.obj
 0002:00008814       ??_C@_02DEDBPAFC@AM@       0000000140055814     libucrtd:nlsdata.obj
 0002:00008818       ??_C@_02CJNFDJBF@PM@       0000000140055818     libucrtd:nlsdata.obj
 0002:00008820       ??_C@_08BPBNCDIB@MM?1dd?1yy@ 0000000140055820     libucrtd:nlsdata.obj
 0002:00008830       ??_C@_0BE@CKGJFCPC@dddd?0?5MMMM?5dd?0?5yyyy@ 0000000140055830     libucrtd:nlsdata.obj
 0002:00008848       ??_C@_08JCCMCCIL@HH?3mm?3ss@ 0000000140055848     libucrtd:nlsdata.obj
 0002:00008858       ??_C@_17MBGCMIPB@?$AAS?$AAu?$AAn@ 0000000140055858     libucrtd:nlsdata.obj
 0002:00008860       ??_C@_17KBOMKBF@?$AAM?$AAo?$AAn@ 0000000140055860     libucrtd:nlsdata.obj
 0002:00008868       ??_C@_17BMKGEGOJ@?$AAT?$AAu?$AAe@ 0000000140055868     libucrtd:nlsdata.obj
 0002:00008870       ??_C@_17CJEDCEPE@?$AAW?$AAe?$AAd@ 0000000140055870     libucrtd:nlsdata.obj
 0002:00008878       ??_C@_17PDPHAADD@?$AAT?$AAh?$AAu@ 0000000140055878     libucrtd:nlsdata.obj
 0002:00008880       ??_C@_17HFOLPPLP@?$AAF?$AAr?$AAi@ 0000000140055880     libucrtd:nlsdata.obj
 0002:00008888       ??_C@_17GGIBDPIH@?$AAS?$AAa?$AAt@ 0000000140055888     libucrtd:nlsdata.obj
 0002:00008890       ??_C@_1O@IHNHDHPB@?$AAS?$AAu?$AAn?$AAd?$AAa?$AAy@ 0000000140055890     libucrtd:nlsdata.obj
 0002:000088a0       ??_C@_1O@MMNBFLIA@?$AAM?$AAo?$AAn?$AAd?$AAa?$AAy@ 00000001400558a0     libucrtd:nlsdata.obj
 0002:000088b0       ??_C@_1BA@ENFBFFEK@?$AAT?$AAu?$AAe?$AAs?$AAd?$AAa?$AAy@ 00000001400558b0     libucrtd:nlsdata.obj
 0002:000088c0       ??_C@_1BE@EBOGMDOH@?$AAW?$AAe?$AAd?$AAn?$AAe?$AAs?$AAd?$AAa?$AAy@ 00000001400558c0     libucrtd:nlsdata.obj
 0002:000088d8       ??_C@_1BC@HHMNLIHE@?$AAT?$AAh?$AAu?$AAr?$AAs?$AAd?$AAa?$AAy@ 00000001400558d8     libucrtd:nlsdata.obj
 0002:000088f0       ??_C@_1O@PDICJHAG@?$AAF?$AAr?$AAi?$AAd?$AAa?$AAy@ 00000001400558f0     libucrtd:nlsdata.obj
 0002:00008900       ??_C@_1BC@ENMNNPAJ@?$AAS?$AAa?$AAt?$AAu?$AAr?$AAd?$AAa?$AAy@ 0000000140055900     libucrtd:nlsdata.obj
 0002:00008918       ??_C@_17DKNBKCHM@?$AAJ?$AAa?$AAn@ 0000000140055918     libucrtd:nlsdata.obj
 0002:00008920       ??_C@_17LMDJEKJN@?$AAF?$AAe?$AAb@ 0000000140055920     libucrtd:nlsdata.obj
 0002:00008928       ??_C@_17CKNLEDEC@?$AAM?$AAa?$AAr@ 0000000140055928     libucrtd:nlsdata.obj
 0002:00008930       ??_C@_17LFPOIHDD@?$AAA?$AAp?$AAr@ 0000000140055930     libucrtd:nlsdata.obj
 0002:00008938       ??_C@_17PNNKMEED@?$AAM?$AAa?$AAy@ 0000000140055938     libucrtd:nlsdata.obj
 0002:00008940       ??_C@_17KCJGOCPB@?$AAJ?$AAu?$AAn@ 0000000140055940     libucrtd:nlsdata.obj
 0002:00008948       ??_C@_17IJPCKHK@?$AAJ?$AAu?$AAl@ 0000000140055948     libucrtd:nlsdata.obj
 0002:00008950       ??_C@_17ICPELBCN@?$AAA?$AAu?$AAg@ 0000000140055950     libucrtd:nlsdata.obj
 0002:00008958       ??_C@_17HCHCOKMG@?$AAS?$AAe?$AAp@ 0000000140055958     libucrtd:nlsdata.obj
 0002:00008960       ??_C@_17FNLKOI@?$AAO?$AAc?$AAt@ 0000000140055960     libucrtd:nlsdata.obj
 0002:00008968       ??_C@_17BBDMLCIG@?$AAN?$AAo?$AAv@ 0000000140055968     libucrtd:nlsdata.obj
 0002:00008970       ??_C@_17EGKACKIF@?$AAD?$AAe?$AAc@ 0000000140055970     libucrtd:nlsdata.obj
 0002:00008978       ??_C@_1BA@EFMEIEBA@?$AAJ?$AAa?$AAn?$AAu?$AAa?$AAr?$AAy@ 0000000140055978     libucrtd:nlsdata.obj
 0002:00008988       ??_C@_1BC@JGDDFFAM@?$AAF?$AAe?$AAb?$AAr?$AAu?$AAa?$AAr?$AAy@ 0000000140055988     libucrtd:nlsdata.obj
 0002:000089a0       ??_C@_1M@IKEENEDF@?$AAM?$AAa?$AAr?$AAc?$AAh@ 00000001400559a0     libucrtd:nlsdata.obj
 0002:000089b0       ??_C@_1M@GJNLMHFD@?$AAA?$AAp?$AAr?$AAi?$AAl@ 00000001400559b0     libucrtd:nlsdata.obj
 0002:000089c0       ??_C@_19EPFLPGAP@?$AAJ?$AAu?$AAn?$AAe@ 00000001400559c0     libucrtd:nlsdata.obj
 0002:000089d0       ??_C@_19BIFMLPCD@?$AAJ?$AAu?$AAl?$AAy@ 00000001400559d0     libucrtd:nlsdata.obj
 0002:000089e0       ??_C@_1O@PAHLKOAC@?$AAA?$AAu?$AAg?$AAu?$AAs?$AAt@ 00000001400559e0     libucrtd:nlsdata.obj
 0002:000089f0       ??_C@_1BE@DKAAMBJL@?$AAS?$AAe?$AAp?$AAt?$AAe?$AAm?$AAb?$AAe?$AAr@ 00000001400559f0     libucrtd:nlsdata.obj
 0002:00008a08       ??_C@_1BA@EPANDLNG@?$AAO?$AAc?$AAt?$AAo?$AAb?$AAe?$AAr@ 0000000140055a08     libucrtd:nlsdata.obj
 0002:00008a18       ??_C@_1BC@BGLIFPF@?$AAN?$AAo?$AAv?$AAe?$AAm?$AAb?$AAe?$AAr@ 0000000140055a18     libucrtd:nlsdata.obj
 0002:00008a30       ??_C@_1BC@FEMKIFH@?$AAD?$AAe?$AAc?$AAe?$AAm?$AAb?$AAe?$AAr@ 0000000140055a30     libucrtd:nlsdata.obj
 0002:00008a44       ??_C@_15ODEHAHHF@?$AAA?$AAM@ 0000000140055a44     libucrtd:nlsdata.obj
 0002:00008a4c       ??_C@_15CLMNNGEL@?$AAP?$AAM@ 0000000140055a4c     libucrtd:nlsdata.obj
 0002:00008a58       ??_C@_1BC@IEBCMHCM@?$AAM?$AAM?$AA?1?$AAd?$AAd?$AA?1?$AAy?$AAy@ 0000000140055a58     libucrtd:nlsdata.obj
 0002:00008a70       ??_C@_1CI@KNAKOEBC@?$AAd?$AAd?$AAd?$AAd?$AA?0?$AA?5?$AAM?$AAM?$AAM?$AAM?$AA?5?$AAd?$AAd?$AA?0?$AA?5@ 0000000140055a70     libucrtd:nlsdata.obj
 0002:00008a98       ??_C@_1BC@GDGBMEMK@?$AAH?$AAH?$AA?3?$AAm?$AAm?$AA?3?$AAs?$AAs@ 0000000140055a98     libucrtd:nlsdata.obj
 0002:00008ab0       ??_C@_1M@BMHNFIME@?$AAe?$AAn?$AA?9?$AAU?$AAS@ 0000000140055ab0     libucrtd:nlsdata.obj
 0002:00008ac0       ??_C@_1GE@HEEFEAFI@?$AAm?$AAi?$AAn?$AAk?$AAe?$AAr?$AAn?$AAe?$AAl?$AA?2?$AAc?$AAr?$AAt?$AAs?$AA?2@ 0000000140055ac0     libucrtd:openfile.obj
 0002:00008b24       ?ccs@?1???$__acrt_stdio_parse_mode@D@@YA?AU__acrt_stdio_stream_mode@@QEBD@Z@4QBDB 0000000140055b24     libucrtd:openfile.obj
 0002:00008b28       ?utf8_encoding@?1???$__acrt_stdio_parse_mode@D@@YA?AU__acrt_stdio_stream_mode@@QEBD@Z@4QBDB 0000000140055b28     libucrtd:openfile.obj
 0002:00008b30       ?utf16_encoding@?1???$__acrt_stdio_parse_mode@D@@YA?AU__acrt_stdio_stream_mode@@QEBD@Z@4QBDB 0000000140055b30     libucrtd:openfile.obj
 0002:00008b38       ?unicode_encoding@?1???$__acrt_stdio_parse_mode@D@@YA?AU__acrt_stdio_stream_mode@@QEBD@Z@4QBDB 0000000140055b38     libucrtd:openfile.obj
 0002:00008b40       ??_C@_1DM@FOFGGBBM@?$AA?$CI?$AA?$CC?$AAI?$AAn?$AAv?$AAa?$AAl?$AAi?$AAd?$AA?5?$AAf?$AAi?$AAl?$AAe?$AA?5@ 0000000140055b40     libucrtd:openfile.obj
 0002:00008b80       ??_C@_1DA@KPIHAHGC@?$AA_?$AA_?$AAa?$AAc?$AAr?$AAt?$AA_?$AAs?$AAt?$AAd?$AAi?$AAo?$AA_?$AAp?$AAa@ 0000000140055b80     libucrtd:openfile.obj
 0002:00008bb0       ??_C@_1BI@PDNFEGCG@?$AA?$CK?$AAi?$AAt?$AA?5?$AA?$DN?$AA?$DN?$AA?5?$AA?8?$AA?2?$AA0?$AA?8@ 0000000140055bb0     libucrtd:openfile.obj
 0002:00008bd0       ??_C@_1FK@MGHFJLAL@?$AAf?$AAh?$AA?5?$AA?$DO?$AA?$DN?$AA?5?$AA0?$AA?5?$AA?$CG?$AA?$CG?$AA?5?$AA?$CI?$AAu?$AAn?$AAs@ 0000000140055bd0     libucrtd:read.obj
 0002:00008c30       ??_C@_1FM@PHKGHLIO@?$AAm?$AAi?$AAn?$AAk?$AAe?$AAr?$AAn?$AAe?$AAl?$AA?2?$AAc?$AAr?$AAt?$AAs?$AA?2@ 0000000140055c30     libucrtd:read.obj
 0002:00008c90       ??_C@_1M@NHJOLLDM@?$AA_?$AAr?$AAe?$AAa?$AAd@ 0000000140055c90     libucrtd:read.obj
 0002:00008ca0       ??_C@_1CI@ILOIOBLM@?$AA_?$AAo?$AAs?$AAf?$AAi?$AAl?$AAe?$AA?$CI?$AAf?$AAh?$AA?$CJ?$AA?5?$AA?$CG?$AA?5?$AAF@ 0000000140055ca0     libucrtd:read.obj
 0002:00008cc8       ??_C@_1CO@OPEPDLLF@?$AAb?$AAu?$AAf?$AAf?$AAe?$AAr?$AA_?$AAs?$AAi?$AAz?$AAe?$AA?5?$AA?$DM?$AA?$DN?$AA?5@ 0000000140055cc8     libucrtd:read.obj
 0002:00008cf8       ??_C@_1BK@JJBHNDKJ@?$AA_?$AAr?$AAe?$AAa?$AAd?$AA_?$AAn?$AAo?$AAl?$AAo?$AAc?$AAk@ 0000000140055cf8     libucrtd:read.obj
 0002:00008d18       ??_C@_1DM@JEAHBMKI@?$AAr?$AAe?$AAs?$AAu?$AAl?$AAt?$AA_?$AAb?$AAu?$AAf?$AAf?$AAe?$AAr?$AA_?$AAs@ 0000000140055d18     libucrtd:read.obj
 0002:00008d58       ??_C@_1DC@MGKAFPFD@?$AAr?$AAe?$AAs?$AAu?$AAl?$AAt?$AA_?$AAb?$AAu?$AAf?$AAf?$AAe?$AAr?$AA?5?$AA?$CB@ 0000000140055d58     libucrtd:read.obj
 0002:00008d90       ??_C@_1DI@CDGOMPDO@?$AAr?$AAe?$AAs?$AAu?$AAl?$AAt?$AA_?$AAb?$AAu?$AAf?$AAf?$AAe?$AAr?$AA_?$AAs@ 0000000140055d90     libucrtd:read.obj
 0002:00008dc8       ??_C@_0CO@JFNFJHLC@minkernel?2crts?2ucrt?2src?2appcrt?2@ 0000000140055dc8     libucrtd:read.obj
 0002:00008df8       ??_C@_1DM@HGBOAKPP@?$AA?$CI?$AAr?$AAe?$AAs?$AAu?$AAl?$AAt?$AA_?$AAb?$AAu?$AAf?$AAf?$AAe?$AAr?$AA_@ 0000000140055df8     libucrtd:read.obj
 0002:00008e40       ??_C@_1GC@MGNADOPH@?$AAm?$AAi?$AAn?$AAk?$AAe?$AAr?$AAn?$AAe?$AAl?$AA?2?$AAc?$AAr?$AAt?$AAs?$AA?2@ 0000000140055e40     libucrtd:_filbuf.obj
 0002:00008ea8       ??_C@_1DM@MPDNIFLF@?$AAc?$AAo?$AAm?$AAm?$AAo?$AAn?$AA_?$AAr?$AAe?$AAf?$AAi?$AAl?$AAl?$AA_?$AAa@ 0000000140055ea8     libucrtd:_filbuf.obj
 0002:00008ef0       ??_C@_1FO@KIIHJNFN@?$AAm?$AAi?$AAn?$AAk?$AAe?$AAr?$AAn?$AAe?$AAl?$AA?2?$AAc?$AAr?$AAt?$AAs?$AA?2@ 0000000140055ef0     libucrtd:lseek.obj
 0002:00008f50       ??_C@_1BK@JOMBNFIM@?$AAc?$AAo?$AAm?$AAm?$AAo?$AAn?$AA_?$AAl?$AAs?$AAe?$AAe?$AAk@ 0000000140055f50     libucrtd:lseek.obj
 0002:00008f70       ??_C@_1DM@LMLOLGJ@?$AA?$CI?$AA?$CC?$AAI?$AAn?$AAv?$AAa?$AAl?$AAi?$AAd?$AA?5?$AAf?$AAi?$AAl?$AAe?$AA?5@ 0000000140055f70     libucrtd:lseek.obj
 0002:00008fe0       ??_C@_1FO@CAMPMGCN@?$AAm?$AAi?$AAn?$AAk?$AAe?$AAr?$AAn?$AAe?$AAl?$AA?2?$AAc?$AAr?$AAt?$AAs?$AA?2@ 0000000140055fe0     libucrtd:write.obj
 0002:00009040       ??_C@_1CA@PNHCPGNO@?$AA_?$AAw?$AAr?$AAi?$AAt?$AAe?$AA_?$AAi?$AAn?$AAt?$AAe?$AAr?$AAn?$AAa?$AAl@ 0000000140056040     libucrtd:write.obj
 0002:00009060       ??_C@_1CK@MMEFCHHN@?$AA?$CB?$AA_?$AAd?$AAb?$AAc?$AAs?$AAB?$AAu?$AAf?$AAf?$AAe?$AAr?$AAU?$AAs?$AAe@ 0000000140056060     libucrtd:write.obj
 0002:00009090       ??_C@_1EG@LICJGLJJ@?$AA1?$AA?5?$AA?$DM?$AA?5?$AAm?$AAb?$AA_?$AAl?$AAe?$AAn?$AA?5?$AA?$CG?$AA?$CG?$AA?5?$AAm@ 0000000140056090     libucrtd:write.obj
 0002:000090e0       ??_C@_1FC@NFILPJB@?$AAm?$AAb?$AA_?$AAb?$AAu?$AAf?$AA_?$AAu?$AAs?$AAe?$AAd?$AA?5?$AA?$CL?$AA?5?$AAb@ 00000001400560e0     libucrtd:write.obj
 0002:00009140       ??_C@_1FC@HEJOPHLA@?$AAa?$AAv?$AAa?$AAi?$AAl?$AAa?$AAb?$AAl?$AAe?$AA_?$AAb?$AAy?$AAt?$AAe?$AAs@ 0000000140056140     libucrtd:write.obj
 0002:000091a0       ??_C@_1GG@JOGHJGBM@?$AA_?$AAi?$AAs?$AAl?$AAe?$AAa?$AAd?$AAb?$AAy?$AAt?$AAe?$AA_?$AAf?$AAa?$AAs@ 00000001400561a0     libucrtd:write.obj
 0002:00009208       ??_C@_1BM@NCANHCIP@?$AA_?$AAw?$AAr?$AAi?$AAt?$AAe?$AA_?$AAn?$AAo?$AAl?$AAo?$AAc?$AAk@ 0000000140056208     libucrtd:write.obj
 0002:00009228       ??_C@_1CK@CPEAGIIP@?$AAb?$AAu?$AAf?$AAf?$AAe?$AAr?$AA_?$AAs?$AAi?$AAz?$AAe?$AA?5?$AA?$CF?$AA?5?$AA2@ 0000000140056228     libucrtd:write.obj
 0002:00009260       ??_C@_1GC@DFIGBGJI@?$AAm?$AAi?$AAn?$AAk?$AAe?$AAr?$AAn?$AAe?$AAl?$AA?2?$AAc?$AAr?$AAt?$AAs?$AA?2@ 0000000140056260     libucrtd:_flsbuf.obj
 0002:000092d0       ??_C@_1HO@MLMGPAFH@?$AA?$CI?$AA?$CC?$AAi?$AAn?$AAc?$AAo?$AAn?$AAs?$AAi?$AAs?$AAt?$AAe?$AAn?$AAt?$AA?5@ 00000001400562d0     libucrtd:_flsbuf.obj
 0002:00009350       ??_C@_1GC@GBMDABED@?$AAm?$AAi?$AAn?$AAk?$AAe?$AAr?$AAn?$AAe?$AAl?$AA?2?$AAc?$AAr?$AAt?$AAs?$AA?2@ 0000000140056350     libucrtd:_sftbuf.obj
 0002:000093b8       ??_C@_0DB@EPIHMFLB@minkernel?2crts?2ucrt?2src?2appcrt?2@ 00000001400563b8     libucrtd:_sftbuf.obj
 0002:000093f0       _sys_first_posix_error     00000001400563f0     libucrtd:syserr.obj
 0002:000093f8       _sys_last_posix_error      00000001400563f8     libucrtd:syserr.obj
 0002:00009400       _sys_posix_errlist         0000000140056400     libucrtd:syserr.obj
 0002:00009550       _sys_errlist               0000000140056550     libucrtd:syserr.obj
 0002:000096b0       ??_C@_08INEPGKHH@No?5error@ 00000001400566b0     libucrtd:syserr.obj
 0002:000096c0       ??_C@_0BI@BJFCGOHL@Operation?5not?5permitted@ 00000001400566c0     libucrtd:syserr.obj
 0002:000096d8       ??_C@_0BK@FMDHKPNF@No?5such?5file?5or?5directory@ 00000001400566d8     libucrtd:syserr.obj
 0002:000096f8       ??_C@_0BA@FKIAIBGA@No?5such?5process@ 00000001400566f8     libucrtd:syserr.obj
 0002:00009708       ??_C@_0BK@FJBOAFDK@Interrupted?5function?5call@ 0000000140056708     libucrtd:syserr.obj
 0002:00009728       ??_C@_0BD@KKNFOBBD@Input?1output?5error@ 0000000140056728     libucrtd:syserr.obj
 0002:00009740       ??_C@_0BK@DPKMCKJ@No?5such?5device?5or?5address@ 0000000140056740     libucrtd:syserr.obj
 0002:00009760       ??_C@_0BC@MFFGCDFL@Arg?5list?5too?5long@ 0000000140056760     libucrtd:syserr.obj
 0002:00009778       ??_C@_0BC@HKPNECK@Exec?5format?5error@ 0000000140056778     libucrtd:syserr.obj
 0002:00009790       ??_C@_0BE@NFGDDCEF@Bad?5file?5descriptor@ 0000000140056790     libucrtd:syserr.obj
 0002:000097a8       ??_C@_0BD@LOHELEP@No?5child?5processes@ 00000001400567a8     libucrtd:syserr.obj
 0002:000097c0       ??_C@_0CB@EPFKGNAK@Resource?5temporarily?5unavailabl@ 00000001400567c0     libucrtd:syserr.obj
 0002:000097e8       ??_C@_0BB@IMDKMPFB@Not?5enough?5space@ 00000001400567e8     libucrtd:syserr.obj
 0002:00009800       ??_C@_0BC@HFNFNKAI@Permission?5denied@ 0000000140056800     libucrtd:syserr.obj
 0002:00009818       ??_C@_0M@LOEHLCJD@Bad?5address@ 0000000140056818     libucrtd:syserr.obj
 0002:00009828       ??_C@_0O@NIPGCINC@Unknown?5error@ 0000000140056828     libucrtd:syserr.obj
 0002:00009838       ??_C@_0BA@BIBLIOEK@Resource?5device@ 0000000140056838     libucrtd:syserr.obj
 0002:00009848       ??_C@_0M@NAAJNNGH@File?5exists@ 0000000140056848     libucrtd:syserr.obj
 0002:00009858       ??_C@_0O@OAMDNOCP@Improper?5link@ 0000000140056858     libucrtd:syserr.obj
 0002:00009868       ??_C@_0P@NLEIANHE@No?5such?5device@ 0000000140056868     libucrtd:syserr.obj
 0002:00009878       ??_C@_0BA@CJBACOOL@Not?5a?5directory@ 0000000140056878     libucrtd:syserr.obj
 0002:00009888       ??_C@_0P@NDHGCGKE@Is?5a?5directory@ 0000000140056888     libucrtd:syserr.obj
 0002:00009898       ??_C@_0BB@HMGGCEBG@Invalid?5argument@ 0000000140056898     libucrtd:syserr.obj
 0002:000098b0       ??_C@_0BO@IIFBODJE@Too?5many?5open?5files?5in?5system@ 00000001400568b0     libucrtd:syserr.obj
 0002:000098d0       ??_C@_0BE@INBJMKGG@Too?5many?5open?5files@ 00000001400568d0     libucrtd:syserr.obj
 0002:000098e8       ??_C@_0CE@ONOKNLPF@Inappropriate?5I?1O?5control?5opera@ 00000001400568e8     libucrtd:syserr.obj
 0002:00009910       ??_C@_0P@LFMMIPAE@File?5too?5large@ 0000000140056910     libucrtd:syserr.obj
 0002:00009920       ??_C@_0BI@FEALHKLD@No?5space?5left?5on?5device@ 0000000140056920     libucrtd:syserr.obj
 0002:00009938       ??_C@_0N@FEHLOILP@Invalid?5seek@ 0000000140056938     libucrtd:syserr.obj
 0002:00009948       ??_C@_0BG@DDBFNKBH@Read?9only?5file?5system@ 0000000140056948     libucrtd:syserr.obj
 0002:00009960       ??_C@_0P@PKCJJLLM@Too?5many?5links@ 0000000140056960     libucrtd:syserr.obj
 0002:00009970       ??_C@_0M@LHEPIIOM@Broken?5pipe@ 0000000140056970     libucrtd:syserr.obj
 0002:00009980       ??_C@_0N@MMJPGLJK@Domain?5error@ 0000000140056980     libucrtd:syserr.obj
 0002:00009990       ??_C@_0BB@FCBJFCAJ@Result?5too?5large@ 0000000140056990     libucrtd:syserr.obj
 0002:000099a8       ??_C@_0BK@JAEBMJJM@Resource?5deadlock?5avoided@ 00000001400569a8     libucrtd:syserr.obj
 0002:000099c8       ??_C@_0BC@BEDIHIDK@Filename?5too?5long@ 00000001400569c8     libucrtd:syserr.obj
 0002:000099e0       ??_C@_0BD@CLHBCGPB@No?5locks?5available@ 00000001400569e0     libucrtd:syserr.obj
 0002:000099f8       ??_C@_0BJ@IHEHINLI@Function?5not?5implemented@ 00000001400569f8     libucrtd:syserr.obj
 0002:00009a18       ??_C@_0BE@ICMCHPHH@Directory?5not?5empty@ 0000000140056a18     libucrtd:syserr.obj
 0002:00009a30       ??_C@_0BG@KLEAJEFJ@Illegal?5byte?5sequence@ 0000000140056a30     libucrtd:syserr.obj
 0002:00009a48       ??_C@_0P@LDMLAFHI@address?5in?5use@ 0000000140056a48     libucrtd:syserr.obj
 0002:00009a58       ??_C@_0BG@DHPCNBJB@address?5not?5available@ 0000000140056a58     libucrtd:syserr.obj
 0002:00009a70       ??_C@_0BN@LKKBCCDB@address?5family?5not?5supported@ 0000000140056a70     libucrtd:syserr.obj
 0002:00009a90       ??_C@_0BP@KAIHPOGN@connection?5already?5in?5progress@ 0000000140056a90     libucrtd:syserr.obj
 0002:00009ab0       ??_C@_0M@PMMIEFCP@bad?5message@ 0000000140056ab0     libucrtd:syserr.obj
 0002:00009ac0       ??_C@_0BD@MOLBPMEA@operation?5canceled@ 0000000140056ac0     libucrtd:syserr.obj
 0002:00009ad8       ??_C@_0BD@MGNDDEGM@connection?5aborted@ 0000000140056ad8     libucrtd:syserr.obj
 0002:00009af0       ??_C@_0BD@PJLIIJEL@connection?5refused@ 0000000140056af0     libucrtd:syserr.obj
 0002:00009b08       ??_C@_0BB@IECNJNOI@connection?5reset@ 0000000140056b08     libucrtd:syserr.obj
 0002:00009b20       ??_C@_0BN@KDMIFEIP@destination?5address?5required@ 0000000140056b20     libucrtd:syserr.obj
 0002:00009b40       ??_C@_0BB@DHFDFGDM@host?5unreachable@ 0000000140056b40     libucrtd:syserr.obj
 0002:00009b58       ??_C@_0BD@JPHBMONG@identifier?5removed@ 0000000140056b58     libucrtd:syserr.obj
 0002:00009b70       ??_C@_0BG@KDKHOPCO@operation?5in?5progress@ 0000000140056b70     libucrtd:syserr.obj
 0002:00009b88       ??_C@_0BC@DFIBIBIL@already?5connected@ 0000000140056b88     libucrtd:syserr.obj
 0002:00009ba0       ??_C@_0BO@EFGOJEF@too?5many?5symbolic?5link?5levels@ 0000000140056ba0     libucrtd:syserr.obj
 0002:00009bc0       ??_C@_0N@IFLPBIOP@message?5size@ 0000000140056bc0     libucrtd:syserr.obj
 0002:00009bd0       ??_C@_0N@KIIEAAIO@network?5down@ 0000000140056bd0     libucrtd:syserr.obj
 0002:00009be0       ??_C@_0O@FNPDBHEE@network?5reset@ 0000000140056be0     libucrtd:syserr.obj
 0002:00009bf0       ??_C@_0BE@IFNCKGE@network?5unreachable@ 0000000140056bf0     libucrtd:syserr.obj
 0002:00009c08       ??_C@_0BA@PFFCAOFK@no?5buffer?5space@ 0000000140056c08     libucrtd:syserr.obj
 0002:00009c18       ??_C@_0BF@PBGGPKKE@no?5message?5available@ 0000000140056c18     libucrtd:syserr.obj
 0002:00009c30       ??_C@_07PLECNNKG@no?5link@ 0000000140056c30     libucrtd:syserr.obj
 0002:00009c38       ??_C@_0L@EDOLMPAK@no?5message@ 0000000140056c38     libucrtd:syserr.obj
 0002:00009c48       ??_C@_0BD@EAMBFIDF@no?5protocol?5option@ 0000000140056c48     libucrtd:syserr.obj
 0002:00009c60       ??_C@_0BE@MKFDAFMP@no?5stream?5resources@ 0000000140056c60     libucrtd:syserr.obj
 0002:00009c78       ??_C@_0N@LGAPMMPI@not?5a?5stream@ 0000000140056c78     libucrtd:syserr.obj
 0002:00009c88       ??_C@_0O@GLMIBBEG@not?5connected@ 0000000140056c88     libucrtd:syserr.obj
 0002:00009c98       ??_C@_0BG@MPLKFPAE@state?5not?5recoverable@ 0000000140056c98     libucrtd:syserr.obj
 0002:00009cb0       ??_C@_0N@POEIPGGF@not?5a?5socket@ 0000000140056cb0     libucrtd:syserr.obj
 0002:00009cc0       ??_C@_0O@NHEDABJP@not?5supported@ 0000000140056cc0     libucrtd:syserr.obj
 0002:00009cd0       ??_C@_0BI@LNEGIFLN@operation?5not?5supported@ 0000000140056cd0     libucrtd:syserr.obj
 0002:00009ce8       ??_C@_0BA@KGKGOOJA@value?5too?5large@ 0000000140056ce8     libucrtd:syserr.obj
 0002:00009cf8       ??_C@_0L@BLPOFLNJ@owner?5dead@ 0000000140056cf8     libucrtd:syserr.obj
 0002:00009d08       ??_C@_0P@FNPOCJBE@protocol?5error@ 0000000140056d08     libucrtd:syserr.obj
 0002:00009d18       ??_C@_0BH@JPPPLHJB@protocol?5not?5supported@ 0000000140056d18     libucrtd:syserr.obj
 0002:00009d30       ??_C@_0BE@MIEJDDNH@wrong?5protocol?5type@ 0000000140056d30     libucrtd:syserr.obj
 0002:00009d48       ??_C@_0P@DIIFGFCG@stream?5timeout@ 0000000140056d48     libucrtd:syserr.obj
 0002:00009d58       ??_C@_09KJPPMAOI@timed?5out@ 0000000140056d58     libucrtd:syserr.obj
 0002:00009d68       ??_C@_0P@IPFDMIFL@text?5file?5busy@ 0000000140056d68     libucrtd:syserr.obj
 0002:00009d78       ??_C@_0BG@OEMDKMEE@operation?5would?5block@ 0000000140056d78     libucrtd:syserr.obj
 0002:00009d90       _sys_nerr                  0000000140056d90     libucrtd:syserr.obj
 0002:00009d98       ??_C@_0DB@JFFPGLDM@minkernel?2crts?2ucrt?2src?2appcrt?2@ 0000000140056d98     libucrtd:osfinfo.obj
 0002:00009dd0       ??_C@_1EM@BPODPNEJ@?$AAs?$AAt?$AAa?$AAt?$AAi?$AAc?$AA_?$AAc?$AAa?$AAs?$AAt?$AA?$DM?$AAu?$AAn?$AAs@ 0000000140056dd0     libucrtd:osfinfo.obj
 0002:00009e20       ??_C@_1GC@LDGKBAFM@?$AAm?$AAi?$AAn?$AAk?$AAe?$AAr?$AAn?$AAe?$AAl?$AA?2?$AAc?$AAr?$AAt?$AAs?$AA?2@ 0000000140056e20     libucrtd:osfinfo.obj
 0002:00009e88       ??_C@_1DM@JELNOMLN@?$AA_?$AA_?$AAa?$AAc?$AAr?$AAt?$AA_?$AAl?$AAo?$AAw?$AAi?$AAo?$AA_?$AAe?$AAn@ 0000000140056e88     libucrtd:osfinfo.obj
 0002:00009ec8       ??_C@_1BO@EMBOBGKE@?$AA_?$AAg?$AAe?$AAt?$AA_?$AAo?$AAs?$AAf?$AAh?$AAa?$AAn?$AAd?$AAl?$AAe@ 0000000140056ec8     libucrtd:osfinfo.obj
 0002:00009f70       ??_C@_03OEIAHPBN@INF@      0000000140056f70     libucrtd:cvt.obj
 0002:00009f74       ??_C@_03OJHLLCGB@inf@      0000000140056f74     libucrtd:cvt.obj
 0002:00009f78       ??_C@_03LKNCIKJB@NAN@      0000000140056f78     libucrtd:cvt.obj
 0002:00009f7c       ??_C@_03LHCJEHON@nan@      0000000140056f7c     libucrtd:cvt.obj
 0002:00009f80       ??_C@_09OFJJIMPC@NAN?$CISNAN?$CJ@ 0000000140056f80     libucrtd:cvt.obj
 0002:00009f90       ??_C@_09IPFBKMDL@nan?$CIsnan?$CJ@ 0000000140056f90     libucrtd:cvt.obj
 0002:00009fa0       ??_C@_08IKHNHAJ@NAN?$CIIND?$CJ@ 0000000140056fa0     libucrtd:cvt.obj
 0002:00009fb0       ??_C@_08OFCDMILK@nan?$CIind?$CJ@ 0000000140056fb0     libucrtd:cvt.obj
 0002:00009fc0       ??_C@_1FO@GKAKAPLI@?$AAm?$AAi?$AAn?$AAk?$AAe?$AAr?$AAn?$AAe?$AAl?$AA?2?$AAc?$AAr?$AAt?$AAs?$AA?2@ 0000000140056fc0     libucrtd:cvt.obj
 0002:0000a020       ??_C@_1DE@EHGIGIDK@?$AAf?$AAp?$AA_?$AAf?$AAo?$AAr?$AAm?$AAa?$AAt?$AA_?$AAn?$AAa?$AAn?$AA_?$AAo@ 0000000140057020     libucrtd:cvt.obj
 0002:0000a060       ??_C@_1LI@PCMLJPCO@?$AAs?$AAt?$AAr?$AAc?$AAp?$AAy?$AA_?$AAs?$AA?$CI?$AA?5?$AAr?$AAe?$AAs?$AAu?$AAl@ 0000000140057060     libucrtd:cvt.obj
 0002:0000a120       ??_C@_1KO@LJHOFBCD@?$AAr?$AAe?$AAs?$AAu?$AAl?$AAt?$AA_?$AAb?$AAu?$AAf?$AAf?$AAe?$AAr?$AA_?$AAc@ 0000000140057120     libucrtd:cvt.obj
 0002:0000a1d0       ??_C@_1CK@BOLHOMFO@?$AAf?$AAp?$AA_?$AAf?$AAo?$AAr?$AAm?$AAa?$AAt?$AA_?$AAe?$AA_?$AAi?$AAn?$AAt@ 00000001400571d0     libucrtd:cvt.obj
 0002:0000a200       ??_C@_1BBE@LHDOMEDC@?$AAs?$AAt?$AAr?$AAc?$AAp?$AAy?$AA_?$AAs?$AA?$CI?$AA?5?$AAp?$AA?0?$AA?5?$AAr?$AAe@ 0000000140057200     libucrtd:cvt.obj
 0002:0000a314       ??_C@_05KLBDPFGC@e?$CL000@ 0000000140057314     libucrtd:cvt.obj
 0002:0000a320       ??_C@_1IC@FILKPBAB@?$AAr?$AAe?$AAs?$AAu?$AAl?$AAt?$AA_?$AAb?$AAu?$AAf?$AAf?$AAe?$AAr?$AA_?$AAc@ 0000000140057320     libucrtd:cvt.obj
 0002:0000a3a8       ??_C@_1BI@PNBDLNBB@?$AAf?$AAp?$AA_?$AAf?$AAo?$AAr?$AAm?$AAa?$AAt?$AA_?$AAa@ 00000001400573a8     libucrtd:cvt.obj
 0002:0000a3c0       ??_C@_1CC@LDAHJAKK@?$AA_?$AA_?$AAa?$AAc?$AAr?$AAt?$AA_?$AAf?$AAp?$AA_?$AAf?$AAo?$AAr?$AAm?$AAa@ 00000001400573c0     libucrtd:cvt.obj
 0002:0000a3e8       ??_C@_1DA@NMLJJOCO@?$AAr?$AAe?$AAs?$AAu?$AAl?$AAt?$AA_?$AAb?$AAu?$AAf?$AAf?$AAe?$AAr?$AA_?$AAc@ 00000001400573e8     libucrtd:cvt.obj
 0002:0000a418       ??_C@_1DE@MNOPBCOK@?$AAs?$AAc?$AAr?$AAa?$AAt?$AAc?$AAh?$AA_?$AAb?$AAu?$AAf?$AAf?$AAe?$AAr?$AA?5@ 0000000140057418     libucrtd:cvt.obj
 0002:0000a450       ??_C@_1DC@CKBKNFKH@?$AAs?$AAc?$AAr?$AAa?$AAt?$AAc?$AAh?$AA_?$AAb?$AAu?$AAf?$AAf?$AAe?$AAr?$AA_@ 0000000140057450     libucrtd:cvt.obj
 0002:0000a490       ??_C@_1EI@JAHBOGIM@?$AA?$CI?$AA?$CC?$AAU?$AAn?$AAs?$AAu?$AAp?$AAp?$AAo?$AAr?$AAt?$AAe?$AAd?$AA?5?$AAf@ 0000000140057490     libucrtd:cvt.obj
 0002:0000a4d8       ??_C@_1DK@NBNOAGKB@?$AAd?$AAe?$AAs?$AAt?$AAi?$AAn?$AAa?$AAt?$AAi?$AAo?$AAn?$AA_?$AAc?$AAo?$AAu@ 00000001400574d8     libucrtd:wctomb.obj
 0002:0000a520       ??_C@_1GE@FCCEPHFG@?$AAm?$AAi?$AAn?$AAk?$AAe?$AAr?$AAn?$AAe?$AAl?$AA?2?$AAc?$AAr?$AAt?$AAs?$AA?2@ 0000000140057520     libucrtd:wctomb.obj
 0002:0000a588       ??_C@_1CC@DNLKBKLK@?$AA_?$AAw?$AAc?$AAt?$AAo?$AAm?$AAb?$AA_?$AAi?$AAn?$AAt?$AAe?$AAr?$AAn?$AAa@ 0000000140057588     libucrtd:wctomb.obj
 0002:0000a5b0       ??_C@_1CM@ENFEGCNE@?$AAd?$AAe?$AAs?$AAt?$AAi?$AAn?$AAa?$AAt?$AAi?$AAo?$AAn?$AA_?$AAc?$AAo?$AAu@ 00000001400575b0     libucrtd:wctomb.obj
 0002:0000a5e0       ??_C@_1MK@HFAFPEDL@?$AAl?$AAo?$AAc?$AAa?$AAl?$AAe?$AA?9?$AA?$DO?$AAl?$AAo?$AAc?$AAi?$AAn?$AAf?$AAo@ 00000001400575e0     libucrtd:mbtowc.obj
 0002:0000a6b0       ??_C@_1GE@CGIHMDEJ@?$AAm?$AAi?$AAn?$AAk?$AAe?$AAr?$AAn?$AAe?$AAl?$AA?2?$AAc?$AAr?$AAt?$AAs?$AA?2@ 00000001400576b0     libucrtd:mbtowc.obj
 0002:0000a720       ??_C@_1HA@KNBGJAIN@?$AAU?$AAT?$AAF?$AA?9?$AA8?$AA?5?$AAi?$AAs?$AAn?$AA?8?$AAt?$AA?5?$AAs?$AAu?$AAp@ 0000000140057720     libucrtd:mbtowc.obj
 0002:0000a790       ??_C@_1OM@FCINAOPP@?$AAl?$AAo?$AAc?$AAa?$AAl?$AAe?$AA?9?$AA?$DO?$AAl?$AAo?$AAc?$AAi?$AAn?$AAf?$AAo@ 0000000140057790     libucrtd:mbtowc.obj
 0002:0000a880       ??_C@_1GA@CPNOFAH@?$AAl?$AAo?$AAc?$AAa?$AAl?$AAe?$AA?9?$AA?$DO?$AAl?$AAo?$AAc?$AAi?$AAn?$AAf?$AAo@ 0000000140057880     libucrtd:mbtowc.obj
 0002:0000a8e0       ??_C@_1DE@BCNCAIK@?$AA?$CI?$AA?$CC?$AAI?$AAn?$AAv?$AAa?$AAl?$AAi?$AAd?$AA?5?$AAe?$AAr?$AAr?$AAo?$AAr@ 00000001400578e0     libucrtd:set_error_mode.obj
 0002:0000a920       ??_C@_1GO@EBFPMMIJ@?$AAm?$AAi?$AAn?$AAk?$AAe?$AAr?$AAn?$AAe?$AAl?$AA?2?$AAc?$AAr?$AAt?$AAs?$AA?2@ 0000000140057920     libucrtd:set_error_mode.obj
 0002:0000a990       ??_C@_1CA@LFDHAMEM@?$AA_?$AAs?$AAe?$AAt?$AA_?$AAe?$AAr?$AAr?$AAo?$AAr?$AA_?$AAm?$AAo?$AAd?$AAe@ 0000000140057990     libucrtd:set_error_mode.obj
 0002:0000a9b0       ??_C@_1CA@EOJJMFA@?$AAc?$AAo?$AAm?$AAm?$AAo?$AAn?$AA_?$AAt?$AAc?$AAs?$AAc?$AAa?$AAt?$AA_?$AAs@ 00000001400579b0     libucrtd:wcscat_s.obj
 0002:0000a9d0       ??_C@_1DM@FHLMIEG@?$AAS?$AAt?$AAr?$AAi?$AAn?$AAg?$AA?5?$AAi?$AAs?$AA?5?$AAn?$AAo?$AAt?$AA?5?$AAn@ 00000001400579d0     libucrtd:wcscat_s.obj
 0002:0000aa10       ??_C@_1FA@MJKDNFFB@?$AA?$CI?$AAL?$AA?$CC?$AAS?$AAt?$AAr?$AAi?$AAn?$AAg?$AA?5?$AAi?$AAs?$AA?5?$AAn?$AAo@ 0000000140057a10     libucrtd:wcscat_s.obj
 0002:0000aa60       ??_C@_1CC@CHNFGJIC@?$AAc?$AAo?$AAm?$AAm?$AAo?$AAn?$AA_?$AAt?$AAc?$AAs?$AAn?$AAc?$AAp?$AAy?$AA_@ 0000000140057a60     libucrtd:wcsncpy_s.obj
 0002:0000ab00       ??_C@_0DI@DNFGFCIK@minkernel?2crts?2ucrt?2inc?2corecrt@ 0000000140057b00     libucrtd:argv_wildcards.obj
 0002:0000ab40       ??_C@_1HE@CEMHPOHH@?$AAm?$AAi?$AAn?$AAk?$AAe?$AAr?$AAn?$AAe?$AAl?$AA?2?$AAc?$AAr?$AAt?$AAs?$AA?2@ 0000000140057b40     libucrtd:argv_wildcards.obj
 0002:0000abb8       ??_C@_1DK@IBFFOJGB@?$AAc?$AAo?$AAm?$AAm?$AAo?$AAn?$AA_?$AAe?$AAx?$AAp?$AAa?$AAn?$AAd?$AA_?$AAa@ 0000000140057bb8     libucrtd:argv_wildcards.obj
 0002:0000ac00       ??_C@_1MC@FLPKOFON@?$AAt?$AAr?$AAa?$AAi?$AAt?$AAs?$AA?3?$AA?3?$AAt?$AAc?$AAs?$AAn?$AAc?$AAp?$AAy@ 0000000140057c00     libucrtd:argv_wildcards.obj
 0002:0000acc8       ??_C@_0DK@FPFMIIJB@minkernel?2crts?2ucrt?2src?2appcrt?2@ 0000000140057cc8     libucrtd:argv_wildcards.obj
 0002:0000ad10       ??_C@_1EA@KOCCBLAD@?$AAc?$AAo?$AAp?$AAy?$AA_?$AAa?$AAn?$AAd?$AA_?$AAa?$AAd?$AAd?$AA_?$AAa?$AAr@ 0000000140057d10     libucrtd:argv_wildcards.obj
 0002:0000ad50       ??_C@_1KM@GDJIGAGL@?$AAt?$AAr?$AAa?$AAi?$AAt?$AAs?$AA?3?$AA?3?$AAt?$AAc?$AAs?$AAn?$AAc?$AAp?$AAy@ 0000000140057d50     libucrtd:argv_wildcards.obj
 0002:0000ae00       ??_C@_1PI@FGFLAGCC@?$AAt?$AAr?$AAa?$AAi?$AAt?$AAs?$AA?3?$AA?3?$AAt?$AAc?$AAs?$AAn?$AAc?$AAp?$AAy@ 0000000140057e00     libucrtd:argv_wildcards.obj
 0002:0000af40       ??_C@_1M@HPNHIDJI@?$AAj?$AAa?$AA?9?$AAJ?$AAP@ 0000000140057f40     libucrtd:mbctype.obj
 0002:0000af50       ??_C@_1M@BIBDDEMK@?$AAz?$AAh?$AA?9?$AAC?$AAN@ 0000000140057f50     libucrtd:mbctype.obj
 0002:0000af60       ??_C@_1M@JLOOOEGK@?$AAk?$AAo?$AA?9?$AAK?$AAR@ 0000000140057f60     libucrtd:mbctype.obj
 0002:0000af70       ??_C@_1M@CLNBBOPM@?$AAz?$AAh?$AA?9?$AAT?$AAW@ 0000000140057f70     libucrtd:mbctype.obj
 0002:0000afd0       ??_C@_0DE@HGDKNBFD@minkernel?2crts?2ucrt?2src?2appcrt?2@ 0000000140057fd0     libucrtd:mbctype.obj
 0002:0000b010       ??_C@_0ED@BLPEHJAI@minkernel?2crts?2ucrt?2src?2desktop@ 0000000140058010     libucrtd:get_environment_from_os.obj
 0002:0000b080       ??_C@_1DO@PANKIJNP@?$AAe?$AAq?$AAu?$AAa?$AAl?$AA_?$AAs?$AAi?$AAg?$AAn?$AA?5?$AA?9?$AA?5?$AAo?$AAp@ 0000000140058080     libucrtd:setenv.obj
 0002:0000b0c0       ??_C@_1GE@MMOHBENP@?$AAm?$AAi?$AAn?$AAk?$AAe?$AAr?$AAn?$AAe?$AAl?$AA?2?$AAc?$AAr?$AAt?$AAs?$AA?2@ 00000001400580c0     libucrtd:setenv.obj
 0002:0000b130       ??_C@_1GK@KBABANDM@?$AAt?$AAr?$AAa?$AAi?$AAt?$AAs?$AA?3?$AA?3?$AAt?$AAc?$AAs?$AAn?$AAl?$AAe?$AAn@ 0000000140058130     libucrtd:setenv.obj
 0002:0000b1a0       ??_C@_0DC@NJKMKCIL@minkernel?2crts?2ucrt?2src?2desktop@ 00000001400581a0     libucrtd:setenv.obj
 0002:0000b1e0       ??_C@_1EC@IKJPFBIM@?$AA?$CI?$AA?$CC?$AAC?$AAR?$AAT?$AA?5?$AAl?$AAo?$AAg?$AAi?$AAc?$AA?5?$AAe?$AAr?$AAr@ 00000001400581e0     libucrtd:setenv.obj
 0002:0000b230       ??_C@_1FE@KHMDCEEJ@?$AAc?$AAo?$AAm?$AAm?$AAo?$AAn?$AA_?$AAs?$AAe?$AAt?$AA_?$AAv?$AAa?$AAr?$AAi@ 0000000140058230     libucrtd:setenv.obj
 0002:0000b290       ??_C@_1EM@NIOJJLEA@?$AAt?$AAr?$AAa?$AAi?$AAt?$AAs?$AA?3?$AA?3?$AAt?$AAc?$AAs?$AAc?$AAp?$AAy?$AA_@ 0000000140058290     libucrtd:setenv.obj
 0002:0000b2e0       ??_C@_1CC@PIMGMDJH@?$AAc?$AAo?$AAp?$AAy?$AA_?$AAe?$AAn?$AAv?$AAi?$AAr?$AAo?$AAn?$AAm?$AAe?$AAn@ 00000001400582e0     libucrtd:setenv.obj
 0002:0000b310       ??_C@_1GG@EDHOMIDL@?$AAt?$AAr?$AAa?$AAi?$AAt?$AAs?$AA?3?$AA?3?$AAt?$AAc?$AAs?$AAc?$AAp?$AAy?$AA_@ 0000000140058310     libucrtd:setenv.obj
 0002:0000b380       ??_C@_1FO@NMANMHOD@?$AAc?$AAa?$AAc?$AAh?$AAe?$AAd?$AA_?$AAs?$AAt?$AAa?$AAt?$AAe?$AA?5?$AA?$DN?$AA?$DN@ 0000000140058380     libucrtd:win_policies.obj
 0002:0000b3e0       ??_C@_1HC@GHLNKBJK@?$AAm?$AAi?$AAn?$AAk?$AAe?$AAr?$AAn?$AAe?$AAl?$AA?2?$AAc?$AAr?$AAt?$AAs?$AA?2@ 00000001400583e0     libucrtd:win_policies.obj
 0002:0000b460       __newctype                 0000000140058460     libucrtd:ctype.obj
 0002:0000b760       __newclmap                 0000000140058760     libucrtd:ctype.obj
 0002:0000b8e0       __newcumap                 00000001400588e0     libucrtd:ctype.obj
 0002:0000ba60       ??_C@_1CI@JELMFMDH@?$AAc?$AA?5?$AA?$DO?$AA?$DN?$AA?5?$AA?9?$AA1?$AA?5?$AA?$CG?$AA?$CG?$AA?5?$AAc?$AA?5?$AA?$DM?$AA?$DN@ 0000000140058a60     libucrtd:isctype.obj
 0002:0000ba90       ??_C@_1GG@KPBGDFHJ@?$AAm?$AAi?$AAn?$AAk?$AAe?$AAr?$AAn?$AAe?$AAl?$AA?2?$AAc?$AAr?$AAt?$AAs?$AA?2@ 0000000140058a90     libucrtd:isctype.obj
 0002:0000bb00       ??_C@_1FE@KNPCCODH@?$AA?$CI?$AA?$CC?$AAC?$AAo?$AAr?$AAr?$AAu?$AAp?$AAt?$AAe?$AAd?$AA?5?$AAp?$AAo?$AAi@ 0000000140058b00     libucrtd:getstringtypea.obj
 0002:0000bb60       ??_C@_1EM@GPJLADAA@?$AAV?$AAC?$AAC?$AAR?$AAT?$AA?2?$AAv?$AAc?$AAr?$AAu?$AAn?$AAt?$AAi?$AAm?$AAe@ 0000000140058b60     libucrtd:getstringtypea.obj
 0002:0000bbb0       ??_C@_0DJ@HCPJODDK@minkernel?2crts?2ucrt?2src?2appcrt?2@ 0000000140058bb0     libucrtd:getstringtypea.obj
 0002:0000bbf0       ??_C@_1BKC@NBNHJIDM@?$AA?$CI?$AAp?$AAt?$AAl?$AAo?$AAc?$AAi?$AA?9?$AA?$DO?$AAl?$AAc?$AA_?$AAc?$AAa?$AAt@ 0000000140058bf0     libucrtd:locale_refcounting.obj
 0002:0000bda0       ??_C@_1HK@HCNMEOLA@?$AAm?$AAi?$AAn?$AAk?$AAe?$AAr?$AAn?$AAe?$AAl?$AA?2?$AAc?$AAr?$AAt?$AAs?$AA?2@ 0000000140058da0     libucrtd:locale_refcounting.obj
 0002:0000be1c       ??_C@_15PJPFLCCM@?$AAu?$AAk@ 0000000140058e1c     libucrtd:get_qualified_locale.obj
 0002:0000be50       ??_C@_1DA@NBILLKNO@?$AAl?$AAo?$AAc?$AAa?$AAl?$AA_?$AAa?$AAc?$AAt?$AAi?$AAo?$AAn?$AA?5?$AA?$CB?$AA?$DN@ 0000000140058e50     libucrtd:signal.obj
 0002:0000be80       ??_C@_1FO@CCGDPEKE@?$AAm?$AAi?$AAn?$AAk?$AAe?$AAr?$AAn?$AAe?$AAl?$AA?2?$AAc?$AAr?$AAt?$AAs?$AA?2@ 0000000140058e80     libucrtd:signal.obj
 0002:0000bee0       ??_C@_1M@DMJEIKHL@?$AAr?$AAa?$AAi?$AAs?$AAe@ 0000000140058ee0     libucrtd:signal.obj
 0002:0000bef0       ??_C@_1DO@MLNEDKGB@?$AA?$CI?$AA?$CC?$AAI?$AAn?$AAv?$AAa?$AAl?$AAi?$AAd?$AA?5?$AAs?$AAi?$AAg?$AAn?$AAa@ 0000000140058ef0     libucrtd:signal.obj
 0002:0000bf30       ??_C@_1FO@GEKPJHID@?$AAm?$AAi?$AAn?$AAk?$AAe?$AAr?$AAn?$AAe?$AAl?$AA?2?$AAc?$AAr?$AAt?$AAs?$AA?2@ 0000000140058f30     libucrtd:expand.obj
 0002:0000bf90       ??_C@_1BK@JMCGJOCC@?$AA_?$AAe?$AAx?$AAp?$AAa?$AAn?$AAd?$AA_?$AAb?$AAa?$AAs?$AAe@ 0000000140058f90     libucrtd:expand.obj
 0002:0000bfb0       ??_C@_1GA@LFAOKOOP@?$AAm?$AAi?$AAn?$AAk?$AAe?$AAr?$AAn?$AAe?$AAl?$AA?2?$AAc?$AAr?$AAt?$AAs?$AA?2@ 0000000140058fb0     libucrtd:dbgrptt.obj
 0002:0000c010       ??_C@_1CA@KHJHLKA@?$AA_?$AAV?$AAC?$AAr?$AAt?$AAD?$AAb?$AAg?$AAR?$AAe?$AAp?$AAo?$AAr?$AAt?$AAA@ 0000000140059010     libucrtd:dbgrptt.obj
 0002:0000c030       ??_C@_1FA@JPHJBHEM@?$AA_?$AAi?$AAt?$AAo?$AAa?$AA_?$AAs?$AA?$CI?$AAn?$AAL?$AAi?$AAn?$AAe?$AA?0?$AA?5@ 0000000140059030     libucrtd:dbgrptt.obj
 0002:0000c080       ??_C@_0CG@BNGLOCEO@Second?5Chance?5Assertion?5Failed?3@ 0000000140059080     libucrtd:dbgrptt.obj
 0002:0000c0a8       ??_C@_0P@DFJNDPOP@?$DMfile?5unknown?$DO@ 00000001400590a8     libucrtd:dbgrptt.obj
 0002:0000c0b8       ??_C@_07BHGABMGB@?0?5Line?5@ 00000001400590b8     libucrtd:dbgrptt.obj
 0002:0000c0c0       ??_C@_1JI@GAALPGBM@?$AAs?$AAt?$AAr?$AAc?$AAp?$AAy?$AA_?$AAs?$AA?$CI?$AAs?$AAz?$AAU?$AAs?$AAe?$AAr@ 00000001400590c0     libucrtd:dbgrptt.obj
 0002:0000c158       ??_C@_0CL@EACFGMNB@_CrtDbgReport?3?5String?5too?5long?5@ 0000000140059158     libucrtd:dbgrptt.obj
 0002:0000c190       ??_C@_1KK@GIGAEDMO@?$AAs?$AAt?$AAr?$AAc?$AAp?$AAy?$AA_?$AAs?$AA?$CI?$AAs?$AAz?$AAL?$AAi?$AAn?$AAe@ 0000000140059190     libucrtd:dbgrptt.obj
 0002:0000c240       ??_C@_0BD@CAENFOHP@Assertion?5failed?3?5@ 0000000140059240     libucrtd:dbgrptt.obj
 0002:0000c258       ??_C@_0BC@LAIDCHCH@Assertion?5failed?$CB@ 0000000140059258     libucrtd:dbgrptt.obj
 0002:0000c270       ??_C@_1FK@NPGBPOFO@?$AAs?$AAt?$AAr?$AAc?$AAa?$AAt?$AA_?$AAs?$AA?$CI?$AAs?$AAz?$AAL?$AAi?$AAn?$AAe@ 0000000140059270     libucrtd:dbgrptt.obj
 0002:0000c2d0       ??_C@_1EI@CACDLAFK@?$AAs?$AAt?$AAr?$AAc?$AAa?$AAt?$AA_?$AAs?$AA?$CI?$AAs?$AAz?$AAL?$AAi?$AAn?$AAe@ 00000001400592d0     libucrtd:dbgrptt.obj
 0002:0000c318       ??_C@_01LIIJDEN@?$AN@      0000000140059318     libucrtd:dbgrptt.obj
 0002:0000c320       ??_C@_1EI@LDHJEDO@?$AAs?$AAt?$AAr?$AAc?$AAa?$AAt?$AA_?$AAs?$AA?$CI?$AAs?$AAz?$AAL?$AAi?$AAn?$AAe@ 0000000140059320     libucrtd:dbgrptt.obj
 0002:0000c368       ??_C@_0M@IPILFDFN@?$CFs?$CI?$CFd?$CJ?5?3?5?$CFs@ 0000000140059368     libucrtd:dbgrptt.obj
 0002:0000c380       ??_C@_1JG@CPKCIOEE@?$AAs?$AAt?$AAr?$AAc?$AAp?$AAy?$AA_?$AAs?$AA?$CI?$AAs?$AAz?$AAO?$AAu?$AAt?$AAM@ 0000000140059380     libucrtd:dbgrptt.obj
 0002:0000c420       ??_C@_1FI@IBIOIHEG@?$AAs?$AAt?$AAr?$AAc?$AAp?$AAy?$AA_?$AAs?$AA?$CI?$AAs?$AAz?$AAO?$AAu?$AAt?$AAM@ 0000000140059420     libucrtd:dbgrptt.obj
 0002:0000c480       ??_C@_1IM@OOKIFKOH@?$AAe?$AA?5?$AA?$DN?$AA?5?$AAm?$AAb?$AAs?$AAt?$AAo?$AAw?$AAc?$AAs?$AA_?$AAs?$AA?$CI@ 0000000140059480     libucrtd:dbgrptt.obj
 0002:0000c510       ??_C@_1MC@IGEECMDB@?$AAw?$AAc?$AAs?$AAc?$AAp?$AAy?$AA_?$AAs?$AA?$CI?$AAs?$AAz?$AAO?$AAu?$AAt?$AAM@ 0000000140059510     libucrtd:dbgrptt.obj
 0002:0000c5e0       ??_C@_1HO@PJOFIKFE@?$AA_?$AAC?$AAr?$AAt?$AAD?$AAb?$AAg?$AAR?$AAe?$AAp?$AAo?$AAr?$AAt?$AA?3?$AA?5@ 00000001400595e0     libucrtd:dbgrptt.obj
 0002:0000c660       ??_C@_1CA@HPALHDOD@?$AA_?$AAV?$AAC?$AAr?$AAt?$AAD?$AAb?$AAg?$AAR?$AAe?$AAp?$AAo?$AAr?$AAt?$AAW@ 0000000140059660     libucrtd:dbgrptt.obj
 0002:0000c680       ??_C@_1FA@CNLLOMHI@?$AA_?$AAi?$AAt?$AAo?$AAw?$AA_?$AAs?$AA?$CI?$AAn?$AAL?$AAi?$AAn?$AAe?$AA?0?$AA?5@ 0000000140059680     libucrtd:dbgrptt.obj
 0002:0000c6d0       ??_C@_1EM@MJFLEDMB@?$AAS?$AAe?$AAc?$AAo?$AAn?$AAd?$AA?5?$AAC?$AAh?$AAa?$AAn?$AAc?$AAe?$AA?5?$AAA@ 00000001400596d0     libucrtd:dbgrptt.obj
 0002:0000c720       ??_C@_1BO@OCHMLCAG@?$AA?$DM?$AAf?$AAi?$AAl?$AAe?$AA?5?$AAu?$AAn?$AAk?$AAn?$AAo?$AAw?$AAn?$AA?$DO@ 0000000140059720     libucrtd:dbgrptt.obj
 0002:0000c740       ??_C@_1BA@ELMMDCFC@?$AA?0?$AA?5?$AAL?$AAi?$AAn?$AAe?$AA?5@ 0000000140059740     libucrtd:dbgrptt.obj
 0002:0000c750       ??_C@_13LBAGMAIH@?$AA?6@   0000000140059750     libucrtd:dbgrptt.obj
 0002:0000c760       ??_C@_1JK@KHFABAEO@?$AAw?$AAc?$AAs?$AAc?$AAp?$AAy?$AA_?$AAs?$AA?$CI?$AAs?$AAz?$AAU?$AAs?$AAe?$AAr@ 0000000140059760     libucrtd:dbgrptt.obj
 0002:0000c800       ??_C@_1KO@DGAHENCH@?$AAw?$AAc?$AAs?$AAc?$AAp?$AAy?$AA_?$AAs?$AA?$CI?$AAs?$AAz?$AAL?$AAi?$AAn?$AAe@ 0000000140059800     libucrtd:dbgrptt.obj
 0002:0000c8b0       ??_C@_1CG@FFFGGODN@?$AAA?$AAs?$AAs?$AAe?$AAr?$AAt?$AAi?$AAo?$AAn?$AA?5?$AAf?$AAa?$AAi?$AAl?$AAe@ 00000001400598b0     libucrtd:dbgrptt.obj
 0002:0000c8d8       ??_C@_1CE@OJBNHDMO@?$AAA?$AAs?$AAs?$AAe?$AAr?$AAt?$AAi?$AAo?$AAn?$AA?5?$AAf?$AAa?$AAi?$AAl?$AAe@ 00000001400598d8     libucrtd:dbgrptt.obj
 0002:0000c900       ??_C@_1FK@HPADHBBD@?$AAw?$AAc?$AAs?$AAc?$AAa?$AAt?$AA_?$AAs?$AA?$CI?$AAs?$AAz?$AAL?$AAi?$AAn?$AAe@ 0000000140059900     libucrtd:dbgrptt.obj
 0002:0000c960       ??_C@_1EK@NMDFGHMF@?$AAw?$AAc?$AAs?$AAc?$AAa?$AAt?$AA_?$AAs?$AA?$CI?$AAs?$AAz?$AAL?$AAi?$AAn?$AAe@ 0000000140059960     libucrtd:dbgrptt.obj
 0002:0000c9ac       ??_C@_13CMNBPIDO@?$AA?$AN@ 00000001400599ac     libucrtd:dbgrptt.obj
 0002:0000c9b0       ??_C@_1EK@PHCBEDKB@?$AAw?$AAc?$AAs?$AAc?$AAa?$AAt?$AA_?$AAs?$AA?$CI?$AAs?$AAz?$AAL?$AAi?$AAn?$AAe@ 00000001400599b0     libucrtd:dbgrptt.obj
 0002:0000ca00       ??_C@_1BM@GIBPMLNL@?$AA?$CF?$AAl?$AAs?$AA?$CI?$AA?$CF?$AAd?$AA?$CJ?$AA?5?$AA?3?$AA?5?$AA?$CF?$AAl?$AAs@ 0000000140059a00     libucrtd:dbgrptt.obj
 0002:0000ca20       ??_C@_1JI@EACPGHID@?$AAw?$AAc?$AAs?$AAc?$AAp?$AAy?$AA_?$AAs?$AA?$CI?$AAs?$AAz?$AAO?$AAu?$AAt?$AAM@ 0000000140059a20     libucrtd:dbgrptt.obj
 0002:0000cac0       ??_C@_1FI@DBAIJPJE@?$AAw?$AAc?$AAs?$AAc?$AAp?$AAy?$AA_?$AAs?$AA?$CI?$AAs?$AAz?$AAO?$AAu?$AAt?$AAM@ 0000000140059ac0     libucrtd:dbgrptt.obj
 0002:0000cb20       ??_C@_1IK@LEBMBAP@?$AAw?$AAc?$AAs?$AAt?$AAo?$AAm?$AAb?$AAs?$AA_?$AAs?$AA?$CI?$AAn?$AAu?$AAl?$AAl@ 0000000140059b20     libucrtd:dbgrptt.obj
 0002:0000cbb0       ??_C@_1MA@LBAMNNOB@?$AAs?$AAt?$AAr?$AAc?$AAp?$AAy?$AA_?$AAs?$AA?$CI?$AAs?$AAz?$AAO?$AAu?$AAt?$AAM@ 0000000140059bb0     libucrtd:dbgrptt.obj
 0002:0000cc70       ??_C@_0DP@GNPEPHJD@_CrtDbgReport?3?5String?5too?5long?5@ 0000000140059c70     libucrtd:dbgrptt.obj
 0002:0000ccb0       ??_C@_1IE@CPGKIAGP@?$AAw?$AAc?$AAs?$AAt?$AAo?$AAm?$AAb?$AAs?$AA_?$AAs?$AA?$CI?$AA?$CG?$AAr?$AAe?$AAt@ 0000000140059cb0     libucrtd:dbgrptt.obj
 0002:0000db80       ??_C@_15EMKDOKLE@?$AAa?$AAr@ 000000014005ab80     libucrtd:lcidtoname_downlevel.obj
 0002:0000db88       ??_C@_15KNPADPLH@?$AAb?$AAg@ 000000014005ab88     libucrtd:lcidtoname_downlevel.obj
 0002:0000db90       ??_C@_15EDMHLDMO@?$AAc?$AAa@ 000000014005ab90     libucrtd:lcidtoname_downlevel.obj
 0002:0000db98       ??_C@_1O@BPEAJADD@?$AAz?$AAh?$AA?9?$AAC?$AAH?$AAS@ 000000014005ab98     libucrtd:lcidtoname_downlevel.obj
 0002:0000dba8       ??_C@_15LJNHCMNK@?$AAc?$AAs@ 000000014005aba8     libucrtd:lcidtoname_downlevel.obj
 0002:0000dbb0       ??_C@_15FOMCIDHG@?$AAd?$AAa@ 000000014005abb0     libucrtd:lcidtoname_downlevel.obj
 0002:0000dbb8       ??_C@_15NBKABECB@?$AAd?$AAe@ 000000014005abb8     libucrtd:lcidtoname_downlevel.obj
 0002:0000dbc0       ??_C@_15GHPEIIAO@?$AAe?$AAl@ 000000014005abc0     libucrtd:lcidtoname_downlevel.obj
 0002:0000dbc8       ??_C@_15MNPNEAIF@?$AAe?$AAn@ 000000014005abc8     libucrtd:lcidtoname_downlevel.obj
 0002:0000dbd0       ??_C@_15GPIOMPMH@?$AAe?$AAs@ 000000014005abd0     libucrtd:lcidtoname_downlevel.obj
 0002:0000dbd8       ??_C@_15NGLOAKJC@?$AAf?$AAi@ 000000014005abd8     libucrtd:lcidtoname_downlevel.obj
 0002:0000dbe0       ??_C@_15FBKGNKAM@?$AAf?$AAr@ 000000014005abe0     libucrtd:lcidtoname_downlevel.obj
 0002:0000dbe8       ??_C@_15KGGCNEFK@?$AAh?$AAe@ 000000014005abe8     libucrtd:lcidtoname_downlevel.obj
 0002:0000dbf0       ??_C@_15PGHLIDMF@?$AAh?$AAu@ 000000014005abf0     libucrtd:lcidtoname_downlevel.obj
 0002:0000dbf8       ??_C@_15BIEMAPLM@?$AAi?$AAs@ 000000014005abf8     libucrtd:lcidtoname_downlevel.obj
 0002:0000dc00       ??_C@_15IFJLDHAF@?$AAi?$AAt@ 000000014005ac00     libucrtd:lcidtoname_downlevel.obj
 0002:0000dc08       ??_C@_15GEMIOCAG@?$AAj?$AAa@ 000000014005ac08     libucrtd:lcidtoname_downlevel.obj
 0002:0000dc10       ??_C@_15EPELEGJA@?$AAk?$AAo@ 000000014005ac10     libucrtd:lcidtoname_downlevel.obj
 0002:0000dc18       ??_C@_15NDDHIMN@?$AAn?$AAl@ 000000014005ac18     libucrtd:lcidtoname_downlevel.obj
 0002:0000dc20       ??_C@_15BPIGNHCD@?$AAn?$AAo@ 000000014005ac20     libucrtd:lcidtoname_downlevel.obj
 0002:0000dc28       ??_C@_15DEOPBLCG@?$AAp?$AAl@ 000000014005ac28     libucrtd:lcidtoname_downlevel.obj
 0002:0000dc30       ??_C@_15KBECGEFG@?$AAp?$AAt@ 000000014005ac30     libucrtd:lcidtoname_downlevel.obj
 0002:0000dc38       ??_C@_15GLJCBFMD@?$AAr?$AAo@ 000000014005ac38     libucrtd:lcidtoname_downlevel.obj
 0002:0000dc40       ??_C@_15FEDGKCDI@?$AAr?$AAu@ 000000014005ac40     libucrtd:lcidtoname_downlevel.obj
 0002:0000dc48       ??_C@_15GLKMLLHM@?$AAh?$AAr@ 000000014005ac48     libucrtd:lcidtoname_downlevel.obj
 0002:0000dc50       ??_C@_15CPKMFBDB@?$AAs?$AAk@ 000000014005ac50     libucrtd:lcidtoname_downlevel.obj
 0002:0000dc58       ??_C@_15BAAIOGMK@?$AAs?$AAq@ 000000014005ac58     libucrtd:lcidtoname_downlevel.obj
 0002:0000dc60       ??_C@_15INNPNOHD@?$AAs?$AAv@ 000000014005ac60     libucrtd:lcidtoname_downlevel.obj
 0002:0000dc68       ??_C@_15CABMMOGH@?$AAt?$AAh@ 000000014005ac68     libucrtd:lcidtoname_downlevel.obj
 0002:0000dc70       ??_C@_15BPLIHJJM@?$AAt?$AAr@ 000000014005ac70     libucrtd:lcidtoname_downlevel.obj
 0002:0000dc78       ??_C@_15NEOEKKDJ@?$AAu?$AAr@ 000000014005ac78     libucrtd:lcidtoname_downlevel.obj
 0002:0000dc80       ??_C@_15NFICGAJK@?$AAi?$AAd@ 000000014005ac80     libucrtd:lcidtoname_downlevel.obj
 0002:0000dc88       ??_C@_15HPJPHDM@?$AAb?$AAe@ 000000014005ac88     libucrtd:lcidtoname_downlevel.obj
 0002:0000dc90       ??_C@_15LCHLGJII@?$AAs?$AAl@ 000000014005ac90     libucrtd:lcidtoname_downlevel.obj
 0002:0000dc98       ??_C@_15PCFJPHHO@?$AAe?$AAt@ 000000014005ac98     libucrtd:lcidtoname_downlevel.obj
 0002:0000dca0       ??_C@_15HPFPGODN@?$AAl?$AAv@ 000000014005aca0     libucrtd:lcidtoname_downlevel.obj
 0002:0000dca8       ??_C@_15NFFGKGLG@?$AAl?$AAt@ 000000014005aca8     libucrtd:lcidtoname_downlevel.obj
 0002:0000dcb0       ??_C@_15BDAKCCHN@?$AAf?$AAa@ 000000014005acb0     libucrtd:lcidtoname_downlevel.obj
 0002:0000dcb8       ??_C@_15NFGIAIAJ@?$AAv?$AAi@ 000000014005acb8     libucrtd:lcidtoname_downlevel.obj
 0002:0000dcc0       ??_C@_15LMKNDMHN@?$AAh?$AAy@ 000000014005acc0     libucrtd:lcidtoname_downlevel.obj
 0002:0000dcc8       ??_C@_15IJBHMCFL@?$AAa?$AAz@ 000000014005acc8     libucrtd:lcidtoname_downlevel.obj
 0002:0000dcd0       ??_C@_15EKOFJABL@?$AAe?$AAu@ 000000014005acd0     libucrtd:lcidtoname_downlevel.obj
 0002:0000dcd8       ??_C@_15BGHADCNK@?$AAm?$AAk@ 000000014005acd8     libucrtd:lcidtoname_downlevel.obj
 0002:0000dce0       ??_C@_15JDNICKHM@?$AAa?$AAf@ 000000014005ace0     libucrtd:lcidtoname_downlevel.obj
 0002:0000dce8       ??_C@_15KPJEDBKD@?$AAk?$AAa@ 000000014005ace8     libucrtd:lcidtoname_downlevel.obj
 0002:0000dcf0       ??_C@_15PDNFFFEO@?$AAf?$AAo@ 000000014005acf0     libucrtd:lcidtoname_downlevel.obj
 0002:0000dcf8       ??_C@_15OMLEGLOC@?$AAh?$AAi@ 000000014005acf8     libucrtd:lcidtoname_downlevel.obj
 0002:0000dd00       ??_C@_15IDNNENKK@?$AAm?$AAs@ 000000014005ad00     libucrtd:lcidtoname_downlevel.obj
 0002:0000dd08       ??_C@_15MACJNBMH@?$AAk?$AAk@ 000000014005ad08     libucrtd:lcidtoname_downlevel.obj
 0002:0000dd10       ??_C@_15DKDJEOND@?$AAk?$AAy@ 000000014005ad10     libucrtd:lcidtoname_downlevel.obj
 0002:0000dd18       ??_C@_15DFGDLJBG@?$AAs?$AAw@ 000000014005ad18     libucrtd:lcidtoname_downlevel.obj
 0002:0000dd20       ??_C@_15BBFAICNG@?$AAu?$AAz@ 000000014005ad20     libucrtd:lcidtoname_downlevel.obj
 0002:0000dd28       ??_C@_15DKNDCGEA@?$AAt?$AAt@ 000000014005ad28     libucrtd:lcidtoname_downlevel.obj
 0002:0000dd30       ??_C@_15MGIFMDPL@?$AAp?$AAa@ 000000014005ad30     libucrtd:lcidtoname_downlevel.obj
 0002:0000dd38       ??_C@_15HCNDBBA@?$AAg?$AAu@ 000000014005ad38     libucrtd:lcidtoname_downlevel.obj
 0002:0000dd40       ??_C@_15FNBEIBON@?$AAt?$AAa@ 000000014005ad40     libucrtd:lcidtoname_downlevel.obj
 0002:0000dd48       ??_C@_15NCHGBGLK@?$AAt?$AAe@ 000000014005ad48     libucrtd:lcidtoname_downlevel.obj
 0002:0000dd50       ??_C@_15PHPHCBPF@?$AAk?$AAn@ 000000014005ad50     libucrtd:lcidtoname_downlevel.obj
 0002:0000dd58       ??_C@_15DLGBCKMP@?$AAm?$AAr@ 000000014005ad58     libucrtd:lcidtoname_downlevel.obj
 0002:0000dd60       ??_C@_15EABBLBFF@?$AAs?$AAa@ 000000014005ad60     libucrtd:lcidtoname_downlevel.obj
 0002:0000dd68       ??_C@_15CBKOMCOI@?$AAm?$AAn@ 000000014005ad68     libucrtd:lcidtoname_downlevel.obj
 0002:0000dd70       ??_C@_15CKDMCJAF@?$AAg?$AAl@ 000000014005ad70     libucrtd:lcidtoname_downlevel.obj
 0002:0000dd78       ??_C@_17CNJFBPG@?$AAk?$AAo?$AAk@ 000000014005ad78     libucrtd:lcidtoname_downlevel.obj
 0002:0000dd80       ??_C@_17FFBJICPL@?$AAs?$AAy?$AAr@ 000000014005ad80     libucrtd:lcidtoname_downlevel.obj
 0002:0000dd88       ??_C@_17KPNDCPAF@?$AAd?$AAi?$AAv@ 000000014005ad88     libucrtd:lcidtoname_downlevel.obj
 0002:0000dd90       ??_C@_1M@OKAHONE@?$AAa?$AAr?$AA?9?$AAS?$AAA@ 000000014005ad90     libucrtd:lcidtoname_downlevel.obj
 0002:0000dda0       ??_C@_1M@FFFIGIGK@?$AAb?$AAg?$AA?9?$AAB?$AAG@ 000000014005ada0     libucrtd:lcidtoname_downlevel.obj
 0002:0000ddb0       ??_C@_1M@BJNKEDC@?$AAc?$AAa?$AA?9?$AAE?$AAS@ 000000014005adb0     libucrtd:lcidtoname_downlevel.obj
 0002:0000ddc0       ??_C@_1M@IJJHFJHA@?$AAc?$AAs?$AA?9?$AAC?$AAZ@ 000000014005adc0     libucrtd:lcidtoname_downlevel.obj
 0002:0000ddd0       ??_C@_1M@CLPEOBGI@?$AAd?$AAa?$AA?9?$AAD?$AAK@ 000000014005add0     libucrtd:lcidtoname_downlevel.obj
 0002:0000dde0       ??_C@_1M@MCMADGCB@?$AAd?$AAe?$AA?9?$AAD?$AAE@ 000000014005ade0     libucrtd:lcidtoname_downlevel.obj
 0002:0000ddf0       ??_C@_1M@OOCKEMAM@?$AAe?$AAl?$AA?9?$AAG?$AAR@ 000000014005adf0     libucrtd:lcidtoname_downlevel.obj
 0002:0000de00       ??_C@_1M@DDNJFGID@?$AAf?$AAi?$AA?9?$AAF?$AAI@ 000000014005ae00     libucrtd:lcidtoname_downlevel.obj
 0002:0000de10       ??_C@_1M@GLIPPMAC@?$AAf?$AAr?$AA?9?$AAF?$AAR@ 000000014005ae10     libucrtd:lcidtoname_downlevel.obj
 0002:0000de20       ??_C@_1M@GFMCHPE@?$AAh?$AAe?$AA?9?$AAI?$AAL@ 000000014005ae20     libucrtd:lcidtoname_downlevel.obj
 0002:0000de30       ??_C@_1M@MHLPGNKM@?$AAh?$AAu?$AA?9?$AAH?$AAU@ 000000014005ae30     libucrtd:lcidtoname_downlevel.obj
 0002:0000de40       ??_C@_1M@LPDDNNPN@?$AAi?$AAs?$AA?9?$AAI?$AAS@ 000000014005ae40     libucrtd:lcidtoname_downlevel.obj
 0002:0000de50       ??_C@_1M@MADIPODN@?$AAi?$AAt?$AA?9?$AAI?$AAT@ 000000014005ae50     libucrtd:lcidtoname_downlevel.obj
 0002:0000de60       ??_C@_1M@IHBJJGG@?$AAn?$AAl?$AA?9?$AAN?$AAL@ 000000014005ae60     libucrtd:lcidtoname_downlevel.obj
 0002:0000de70       ??_C@_1M@EANAGDL@?$AAn?$AAb?$AA?9?$AAN?$AAO@ 000000014005ae70     libucrtd:lcidtoname_downlevel.obj
 0002:0000de80       ??_C@_1M@NEIEMEGP@?$AAp?$AAl?$AA?9?$AAP?$AAL@ 000000014005ae80     libucrtd:lcidtoname_downlevel.obj
 0002:0000de90       ??_C@_1M@BOCFIGEP@?$AAp?$AAt?$AA?9?$AAB?$AAR@ 000000014005ae90     libucrtd:lcidtoname_downlevel.obj
 0002:0000dea0       ??_C@_1M@IMPFOPBG@?$AAr?$AAo?$AA?9?$AAR?$AAO@ 000000014005aea0     libucrtd:lcidtoname_downlevel.obj
 0002:0000deb0       ??_C@_1M@IDNNEJMM@?$AAr?$AAu?$AA?9?$AAR?$AAU@ 000000014005aeb0     libucrtd:lcidtoname_downlevel.obj
 0002:0000dec0       ??_C@_1M@LILEEOGM@?$AAh?$AAr?$AA?9?$AAH?$AAR@ 000000014005aec0     libucrtd:lcidtoname_downlevel.obj
 0002:0000ded0       ??_C@_1M@FKIFEHPB@?$AAs?$AAk?$AA?9?$AAS?$AAK@ 000000014005aed0     libucrtd:lcidtoname_downlevel.obj
 0002:0000dee0       ??_C@_1M@LJMAMNPJ@?$AAs?$AAq?$AA?9?$AAA?$AAL@ 000000014005aee0     libucrtd:lcidtoname_downlevel.obj
 0002:0000def0       ??_C@_1M@GIAKDKJK@?$AAs?$AAv?$AA?9?$AAS?$AAE@ 000000014005aef0     libucrtd:lcidtoname_downlevel.obj
 0002:0000df00       ??_C@_1M@MKJKIKCL@?$AAt?$AAh?$AA?9?$AAT?$AAH@ 000000014005af00     libucrtd:lcidtoname_downlevel.obj
 0002:0000df10       ??_C@_1M@MFLCCMPB@?$AAt?$AAr?$AA?9?$AAT?$AAR@ 000000014005af10     libucrtd:lcidtoname_downlevel.obj
 0002:0000df20       ??_C@_1M@OIJHDKJN@?$AAu?$AAr?$AA?9?$AAP?$AAK@ 000000014005af20     libucrtd:lcidtoname_downlevel.obj
 0002:0000df30       ??_C@_1M@LHIPCIEK@?$AAi?$AAd?$AA?9?$AAI?$AAD@ 000000014005af30     libucrtd:lcidtoname_downlevel.obj
 0002:0000df40       ??_C@_1M@MFMOBGI@?$AAu?$AAk?$AA?9?$AAU?$AAA@ 000000014005af40     libucrtd:lcidtoname_downlevel.obj
 0002:0000df50       ??_C@_1M@OBGLJIPL@?$AAb?$AAe?$AA?9?$AAB?$AAY@ 000000014005af50     libucrtd:lcidtoname_downlevel.obj
 0002:0000df60       ??_C@_1M@BCFAJEAD@?$AAs?$AAl?$AA?9?$AAS?$AAI@ 000000014005af60     libucrtd:lcidtoname_downlevel.obj
 0002:0000df70       ??_C@_1M@FKFFEDDN@?$AAe?$AAt?$AA?9?$AAE?$AAE@ 000000014005af70     libucrtd:lcidtoname_downlevel.obj
 0002:0000df80       ??_C@_1M@KGKKAACI@?$AAl?$AAv?$AA?9?$AAL?$AAV@ 000000014005af80     libucrtd:lcidtoname_downlevel.obj
 0002:0000df90       ??_C@_1M@IFGBIJO@?$AAl?$AAt?$AA?9?$AAL?$AAT@ 000000014005af90     libucrtd:lcidtoname_downlevel.obj
 0002:0000dfa0       ??_C@_1M@FGEAHEDM@?$AAf?$AAa?$AA?9?$AAI?$AAR@ 000000014005afa0     libucrtd:lcidtoname_downlevel.obj
 0002:0000dfb0       ??_C@_1M@KBMAIBFN@?$AAv?$AAi?$AA?9?$AAV?$AAN@ 000000014005afb0     libucrtd:lcidtoname_downlevel.obj
 0002:0000dfc0       ??_C@_1M@GPCBKDJK@?$AAh?$AAy?$AA?9?$AAA?$AAM@ 000000014005afc0     libucrtd:lcidtoname_downlevel.obj
 0002:0000dfd0       ??_C@_1BG@BECMDDJB@?$AAa?$AAz?$AA?9?$AAA?$AAZ?$AA?9?$AAL?$AAa?$AAt?$AAn@ 000000014005afd0     libucrtd:lcidtoname_downlevel.obj
 0002:0000dfe8       ??_C@_1M@MAOFCAEA@?$AAe?$AAu?$AA?9?$AAE?$AAS@ 000000014005afe8     libucrtd:lcidtoname_downlevel.obj
 0002:0000dff8       ??_C@_1M@IGHABKPI@?$AAm?$AAk?$AA?9?$AAM?$AAK@ 000000014005aff8     libucrtd:lcidtoname_downlevel.obj
 0002:0000e008       ??_C@_1M@IAIGNEJG@?$AAt?$AAn?$AA?9?$AAZ?$AAA@ 000000014005b008     libucrtd:lcidtoname_downlevel.obj
 0002:0000e018       ??_C@_1M@IIJCOJFA@?$AAx?$AAh?$AA?9?$AAZ?$AAA@ 000000014005b018     libucrtd:lcidtoname_downlevel.obj
 0002:0000e028       ??_C@_1M@LGPJHNJH@?$AAz?$AAu?$AA?9?$AAZ?$AAA@ 000000014005b028     libucrtd:lcidtoname_downlevel.obj
 0002:0000e038       ??_C@_1M@HOKAOIO@?$AAa?$AAf?$AA?9?$AAZ?$AAA@ 000000014005b038     libucrtd:lcidtoname_downlevel.obj
 0002:0000e048       ??_C@_1M@DPCLHLIE@?$AAk?$AAa?$AA?9?$AAG?$AAE@ 000000014005b048     libucrtd:lcidtoname_downlevel.obj
 0002:0000e058       ??_C@_1M@BLKMHJBI@?$AAf?$AAo?$AA?9?$AAF?$AAO@ 000000014005b058     libucrtd:lcidtoname_downlevel.obj
 0002:0000e068       ??_C@_1M@LGGJAPPB@?$AAh?$AAi?$AA?9?$AAI?$AAN@ 000000014005b068     libucrtd:lcidtoname_downlevel.obj
 0002:0000e078       ??_C@_1M@FIKPIHFE@?$AAm?$AAt?$AA?9?$AAM?$AAT@ 000000014005b078     libucrtd:lcidtoname_downlevel.obj
 0002:0000e088       ??_C@_1M@HEGGPBFA@?$AAs?$AAe?$AA?9?$AAN?$AAO@ 000000014005b088     libucrtd:lcidtoname_downlevel.obj
 0002:0000e098       ??_C@_1M@EIBJEEPA@?$AAm?$AAs?$AA?9?$AAM?$AAY@ 000000014005b098     libucrtd:lcidtoname_downlevel.obj
 0002:0000e0a8       ??_C@_1M@FHLBGMPP@?$AAk?$AAk?$AA?9?$AAK?$AAZ@ 000000014005b0a8     libucrtd:lcidtoname_downlevel.obj
 0002:0000e0b8       ??_C@_1M@NGJJLCGI@?$AAk?$AAy?$AA?9?$AAK?$AAG@ 000000014005b0b8     libucrtd:lcidtoname_downlevel.obj
 0002:0000e0c8       ??_C@_1M@GIENNBFC@?$AAs?$AAw?$AA?9?$AAK?$AAE@ 000000014005b0c8     libucrtd:lcidtoname_downlevel.obj
 0002:0000e0d8       ??_C@_1BG@NDGMJIMJ@?$AAu?$AAz?$AA?9?$AAU?$AAZ?$AA?9?$AAL?$AAa?$AAt?$AAn@ 000000014005b0d8     libucrtd:lcidtoname_downlevel.obj
 0002:0000e0f0       ??_C@_1M@IDCCIHBC@?$AAt?$AAt?$AA?9?$AAR?$AAU@ 000000014005b0f0     libucrtd:lcidtoname_downlevel.obj
 0002:0000e100       ??_C@_1M@LOICPMOJ@?$AAb?$AAn?$AA?9?$AAI?$AAN@ 000000014005b100     libucrtd:lcidtoname_downlevel.obj
 0002:0000e110       ??_C@_1M@KPKKNEAH@?$AAp?$AAa?$AA?9?$AAI?$AAN@ 000000014005b110     libucrtd:lcidtoname_downlevel.obj
 0002:0000e120       ??_C@_1M@PJGPPBOG@?$AAg?$AAu?$AA?9?$AAI?$AAN@ 000000014005b120     libucrtd:lcidtoname_downlevel.obj
 0002:0000e130       ??_C@_1M@KMKMOPHI@?$AAt?$AAa?$AA?9?$AAI?$AAN@ 000000014005b130     libucrtd:lcidtoname_downlevel.obj
 0002:0000e140       ??_C@_1M@KFEHEPAC@?$AAt?$AAe?$AA?9?$AAI?$AAN@ 000000014005b140     libucrtd:lcidtoname_downlevel.obj
 0002:0000e150       ??_C@_1M@CDCLMGHI@?$AAk?$AAn?$AA?9?$AAI?$AAN@ 000000014005b150     libucrtd:lcidtoname_downlevel.obj
 0002:0000e160       ??_C@_1M@MIODLDKF@?$AAm?$AAl?$AA?9?$AAI?$AAN@ 000000014005b160     libucrtd:lcidtoname_downlevel.obj
 0002:0000e170       ??_C@_1M@PBIEACPO@?$AAm?$AAr?$AA?9?$AAI?$AAN@ 000000014005b170     libucrtd:lcidtoname_downlevel.obj
 0002:0000e180       ??_C@_1M@NIDEAGPH@?$AAs?$AAa?$AA?9?$AAI?$AAN@ 000000014005b180     libucrtd:lcidtoname_downlevel.obj
 0002:0000e190       ??_C@_1M@FHIHCBIO@?$AAm?$AAn?$AA?9?$AAM?$AAN@ 000000014005b190     libucrtd:lcidtoname_downlevel.obj
 0002:0000e1a0       ??_C@_1M@JAIJPENP@?$AAc?$AAy?$AA?9?$AAG?$AAB@ 000000014005b1a0     libucrtd:lcidtoname_downlevel.obj
 0002:0000e1b0       ??_C@_1M@PHGFBEPN@?$AAg?$AAl?$AA?9?$AAE?$AAS@ 000000014005b1b0     libucrtd:lcidtoname_downlevel.obj
 0002:0000e1c0       ??_C@_1O@KPIPDNCP@?$AAk?$AAo?$AAk?$AA?9?$AAI?$AAN@ 000000014005b1c0     libucrtd:lcidtoname_downlevel.obj
 0002:0000e1d0       ??_C@_1O@KNHJLDJA@?$AAs?$AAy?$AAr?$AA?9?$AAS?$AAY@ 000000014005b1d0     libucrtd:lcidtoname_downlevel.obj
 0002:0000e1e0       ??_C@_1O@MKEKBLAH@?$AAd?$AAi?$AAv?$AA?9?$AAM?$AAV@ 000000014005b1e0     libucrtd:lcidtoname_downlevel.obj
 0002:0000e1f0       ??_C@_1O@OHDCKDDF@?$AAq?$AAu?$AAz?$AA?9?$AAB?$AAO@ 000000014005b1f0     libucrtd:lcidtoname_downlevel.obj
 0002:0000e200       ??_C@_1M@LEPJNLFD@?$AAn?$AAs?$AA?9?$AAZ?$AAA@ 000000014005b200     libucrtd:lcidtoname_downlevel.obj
 0002:0000e210       ??_C@_1M@OMLEIIJB@?$AAm?$AAi?$AA?9?$AAN?$AAZ@ 000000014005b210     libucrtd:lcidtoname_downlevel.obj
 0002:0000e220       ??_C@_1M@PMPEAILG@?$AAa?$AAr?$AA?9?$AAI?$AAQ@ 000000014005b220     libucrtd:lcidtoname_downlevel.obj
 0002:0000e230       ??_C@_1M@CNKPNOEE@?$AAd?$AAe?$AA?9?$AAC?$AAH@ 000000014005b230     libucrtd:lcidtoname_downlevel.obj
 0002:0000e240       ??_C@_1M@LKMGMLKO@?$AAe?$AAn?$AA?9?$AAG?$AAB@ 000000014005b240     libucrtd:lcidtoname_downlevel.obj
 0002:0000e250       ??_C@_1M@PGKJFFGL@?$AAe?$AAs?$AA?9?$AAM?$AAX@ 000000014005b250     libucrtd:lcidtoname_downlevel.obj
 0002:0000e260       ??_C@_1M@DNNANBDC@?$AAf?$AAr?$AA?9?$AAB?$AAE@ 000000014005b260     libucrtd:lcidtoname_downlevel.obj
 0002:0000e270       ??_C@_1M@HLGMDFHM@?$AAi?$AAt?$AA?9?$AAC?$AAH@ 000000014005b270     libucrtd:lcidtoname_downlevel.obj
 0002:0000e280       ??_C@_1M@CLLBGJH@?$AAn?$AAl?$AA?9?$AAB?$AAE@ 000000014005b280     libucrtd:lcidtoname_downlevel.obj
 0002:0000e290       ??_C@_1M@BODBOGLF@?$AAn?$AAn?$AA?9?$AAN?$AAO@ 000000014005b290     libucrtd:lcidtoname_downlevel.obj
 0002:0000e2a0       ??_C@_1M@HFFAHKAD@?$AAp?$AAt?$AA?9?$AAP?$AAT@ 000000014005b2a0     libucrtd:lcidtoname_downlevel.obj
 0002:0000e2b0       ??_C@_1BG@LNOAKHIE@?$AAs?$AAr?$AA?9?$AAS?$AAP?$AA?9?$AAL?$AAa?$AAt?$AAn@ 000000014005b2b0     libucrtd:lcidtoname_downlevel.obj
 0002:0000e2c8       ??_C@_1M@HBMHBGAK@?$AAs?$AAv?$AA?9?$AAF?$AAI@ 000000014005b2c8     libucrtd:lcidtoname_downlevel.obj
 0002:0000e2d8       ??_C@_1BG@DGCJGJBE@?$AAa?$AAz?$AA?9?$AAA?$AAZ?$AA?9?$AAC?$AAy?$AAr?$AAl@ 000000014005b2d8     libucrtd:lcidtoname_downlevel.obj
 0002:0000e2f0       ??_C@_1M@KEJDAAHB@?$AAs?$AAe?$AA?9?$AAS?$AAE@ 000000014005b2f0     libucrtd:lcidtoname_downlevel.obj
 0002:0000e300       ??_C@_1M@HEIBJJAD@?$AAm?$AAs?$AA?9?$AAB?$AAN@ 000000014005b300     libucrtd:lcidtoname_downlevel.obj
 0002:0000e310       ??_C@_1BG@PBGJMCEM@?$AAu?$AAz?$AA?9?$AAU?$AAZ?$AA?9?$AAC?$AAy?$AAr?$AAl@ 000000014005b310     libucrtd:lcidtoname_downlevel.obj
 0002:0000e328       ??_C@_1O@LAOBCMDF@?$AAq?$AAu?$AAz?$AA?9?$AAE?$AAC@ 000000014005b328     libucrtd:lcidtoname_downlevel.obj
 0002:0000e338       ??_C@_1M@POEEMAIO@?$AAa?$AAr?$AA?9?$AAE?$AAG@ 000000014005b338     libucrtd:lcidtoname_downlevel.obj
 0002:0000e348       ??_C@_1M@EFAKDEDL@?$AAz?$AAh?$AA?9?$AAH?$AAK@ 000000014005b348     libucrtd:lcidtoname_downlevel.obj
 0002:0000e358       ??_C@_1M@HKKIJHGI@?$AAd?$AAe?$AA?9?$AAA?$AAT@ 000000014005b358     libucrtd:lcidtoname_downlevel.obj
 0002:0000e368       ??_C@_1M@KBFBEHJF@?$AAe?$AAn?$AA?9?$AAA?$AAU@ 000000014005b368     libucrtd:lcidtoname_downlevel.obj
 0002:0000e378       ??_C@_1M@MNPLFAAH@?$AAe?$AAs?$AA?9?$AAE?$AAS@ 000000014005b378     libucrtd:lcidtoname_downlevel.obj
 0002:0000e388       ??_C@_1M@HJOOJFMA@?$AAf?$AAr?$AA?9?$AAC?$AAA@ 000000014005b388     libucrtd:lcidtoname_downlevel.obj
 0002:0000e398       ??_C@_1BG@JPOFPNAB@?$AAs?$AAr?$AA?9?$AAS?$AAP?$AA?9?$AAC?$AAy?$AAr?$AAl@ 000000014005b398     libucrtd:lcidtoname_downlevel.obj
 0002:0000e3b0       ??_C@_1M@LNFOCMOB@?$AAs?$AAe?$AA?9?$AAF?$AAI@ 000000014005b3b0     libucrtd:lcidtoname_downlevel.obj
 0002:0000e3c0       ??_C@_1O@MGJBOAMB@?$AAq?$AAu?$AAz?$AA?9?$AAP?$AAE@ 000000014005b3c0     libucrtd:lcidtoname_downlevel.obj
 0002:0000e3d0       ??_C@_1M@GJINLBOK@?$AAa?$AAr?$AA?9?$AAL?$AAY@ 000000014005b3d0     libucrtd:lcidtoname_downlevel.obj
 0002:0000e3e0       ??_C@_1M@GGMNHJNL@?$AAz?$AAh?$AA?9?$AAS?$AAG@ 000000014005b3e0     libucrtd:lcidtoname_downlevel.obj
 0002:0000e3f0       ??_C@_1M@HOIKODND@?$AAd?$AAe?$AA?9?$AAL?$AAU@ 000000014005b3f0     libucrtd:lcidtoname_downlevel.obj
 0002:0000e400       ??_C@_1M@DDOCCGFG@?$AAe?$AAn?$AA?9?$AAC?$AAA@ 000000014005b400     libucrtd:lcidtoname_downlevel.obj
 0002:0000e410       ??_C@_1M@BNOEMJLF@?$AAe?$AAs?$AA?9?$AAG?$AAT@ 000000014005b410     libucrtd:lcidtoname_downlevel.obj
 0002:0000e420       ??_C@_1M@EOGNKEK@?$AAf?$AAr?$AA?9?$AAC?$AAH@ 000000014005b420     libucrtd:lcidtoname_downlevel.obj
 0002:0000e430       ??_C@_1M@FLIDJFHL@?$AAh?$AAr?$AA?9?$AAB?$AAA@ 000000014005b430     libucrtd:lcidtoname_downlevel.obj
 0002:0000e440       ??_C@_1O@FMCELNAJ@?$AAs?$AAm?$AAj?$AA?9?$AAN?$AAO@ 000000014005b440     libucrtd:lcidtoname_downlevel.obj
 0002:0000e450       ??_C@_1M@JHGLJMGJ@?$AAa?$AAr?$AA?9?$AAD?$AAZ@ 000000014005b450     libucrtd:lcidtoname_downlevel.obj
 0002:0000e460       ??_C@_1M@JKKFDCNP@?$AAz?$AAh?$AA?9?$AAM?$AAO@ 000000014005b460     libucrtd:lcidtoname_downlevel.obj
 0002:0000e470       ??_C@_1M@GEEFALPE@?$AAd?$AAe?$AA?9?$AAL?$AAI@ 000000014005b470     libucrtd:lcidtoname_downlevel.obj
 0002:0000e480       ??_C@_1M@IGEOFBG@?$AAe?$AAn?$AA?9?$AAN?$AAZ@ 000000014005b480     libucrtd:lcidtoname_downlevel.obj
 0002:0000e490       ??_C@_1M@KDBONEHP@?$AAe?$AAs?$AA?9?$AAC?$AAR@ 000000014005b490     libucrtd:lcidtoname_downlevel.obj
 0002:0000e4a0       ??_C@_1M@FHMDOHNN@?$AAf?$AAr?$AA?9?$AAL?$AAU@ 000000014005b4a0     libucrtd:lcidtoname_downlevel.obj
 0002:0000e4b0       ??_C@_1BG@NFKKMAFG@?$AAb?$AAs?$AA?9?$AAB?$AAA?$AA?9?$AAL?$AAa?$AAt?$AAn@ 000000014005b4b0     libucrtd:lcidtoname_downlevel.obj
 0002:0000e4c8       ??_C@_1O@IMNBEMCI@?$AAs?$AAm?$AAj?$AA?9?$AAS?$AAE@ 000000014005b4c8     libucrtd:lcidtoname_downlevel.obj
 0002:0000e4d8       ??_C@_1M@DHHMBNDP@?$AAa?$AAr?$AA?9?$AAM?$AAA@ 000000014005b4d8     libucrtd:lcidtoname_downlevel.obj
 0002:0000e4e8       ??_C@_1M@BNBLJCGH@?$AAe?$AAn?$AA?9?$AAI?$AAE@ 000000014005b4e8     libucrtd:lcidtoname_downlevel.obj
 0002:0000e4f8       ??_C@_1M@GEPAFMDL@?$AAe?$AAs?$AA?9?$AAP?$AAA@ 000000014005b4f8     libucrtd:lcidtoname_downlevel.obj
 0002:0000e508       ??_C@_1M@OJONDMDL@?$AAf?$AAr?$AA?9?$AAM?$AAC@ 000000014005b508     libucrtd:lcidtoname_downlevel.obj
 0002:0000e518       ??_C@_1BG@OBCNFJB@?$AAs?$AAr?$AA?9?$AAB?$AAA?$AA?9?$AAL?$AAa?$AAt?$AAn@ 000000014005b518     libucrtd:lcidtoname_downlevel.obj
 0002:0000e530       ??_C@_1O@KEMEEGPO@?$AAs?$AAm?$AAa?$AA?9?$AAN?$AAO@ 000000014005b530     libucrtd:lcidtoname_downlevel.obj
 0002:0000e540       ??_C@_1M@ELMGFODK@?$AAa?$AAr?$AA?9?$AAT?$AAN@ 000000014005b540     libucrtd:lcidtoname_downlevel.obj
 0002:0000e550       ??_C@_1M@BHDLHFAF@?$AAe?$AAn?$AA?9?$AAZ?$AAA@ 000000014005b550     libucrtd:lcidtoname_downlevel.obj
 0002:0000e560       ??_C@_1M@BMGIGLIF@?$AAe?$AAs?$AA?9?$AAD?$AAO@ 000000014005b560     libucrtd:lcidtoname_downlevel.obj
 0002:0000e570       ??_C@_1BG@CMBHIPBE@?$AAs?$AAr?$AA?9?$AAB?$AAA?$AA?9?$AAC?$AAy?$AAr?$AAl@ 000000014005b570     libucrtd:lcidtoname_downlevel.obj
 0002:0000e588       ??_C@_1O@HEDBLHNP@?$AAs?$AAm?$AAa?$AA?9?$AAS?$AAE@ 000000014005b588     libucrtd:lcidtoname_downlevel.obj
 0002:0000e598       ??_C@_1M@DAGCADIM@?$AAa?$AAr?$AA?9?$AAO?$AAM@ 000000014005b598     libucrtd:lcidtoname_downlevel.obj
 0002:0000e5a8       ??_C@_1M@FODLMICG@?$AAe?$AAn?$AA?9?$AAJ?$AAM@ 000000014005b5a8     libucrtd:lcidtoname_downlevel.obj
 0002:0000e5b8       ??_C@_1M@DNMLCIHB@?$AAe?$AAs?$AA?9?$AAV?$AAE@ 000000014005b5b8     libucrtd:lcidtoname_downlevel.obj
 0002:0000e5c8       ??_C@_1O@EOKHMKJK@?$AAs?$AAm?$AAs?$AA?9?$AAF?$AAI@ 000000014005b5c8     libucrtd:lcidtoname_downlevel.obj
 0002:0000e5d8       ??_C@_1M@CAFJMKOF@?$AAa?$AAr?$AA?9?$AAY?$AAE@ 000000014005b5d8     libucrtd:lcidtoname_downlevel.obj
 0002:0000e5e8       ??_C@_1M@CBFHIJLI@?$AAe?$AAn?$AA?9?$AAC?$AAB@ 000000014005b5e8     libucrtd:lcidtoname_downlevel.obj
 0002:0000e5f8       ??_C@_1M@BGNFLDN@?$AAe?$AAs?$AA?9?$AAC?$AAO@ 000000014005b5f8     libucrtd:lcidtoname_downlevel.obj
 0002:0000e608       ??_C@_1O@JMPHMAMC@?$AAs?$AAm?$AAn?$AA?9?$AAF?$AAI@ 000000014005b608     libucrtd:lcidtoname_downlevel.obj
 0002:0000e618       ??_C@_1M@JLANABKE@?$AAa?$AAr?$AA?9?$AAS?$AAY@ 000000014005b618     libucrtd:lcidtoname_downlevel.obj
 0002:0000e628       ??_C@_1M@HPKGCFGN@?$AAe?$AAn?$AA?9?$AAB?$AAZ@ 000000014005b628     libucrtd:lcidtoname_downlevel.obj
 0002:0000e638       ??_C@_1M@OLJCMLGM@?$AAe?$AAs?$AA?9?$AAP?$AAE@ 000000014005b638     libucrtd:lcidtoname_downlevel.obj
 0002:0000e648       ??_C@_1M@MKKGFKLE@?$AAa?$AAr?$AA?9?$AAJ?$AAO@ 000000014005b648     libucrtd:lcidtoname_downlevel.obj
 0002:0000e658       ??_C@_1M@EKPGLDNI@?$AAe?$AAn?$AA?9?$AAT?$AAT@ 000000014005b658     libucrtd:lcidtoname_downlevel.obj
 0002:0000e668       ??_C@_1M@OONGHFHE@?$AAe?$AAs?$AA?9?$AAA?$AAR@ 000000014005b668     libucrtd:lcidtoname_downlevel.obj
 0002:0000e678       ??_C@_1M@OOJFGBHE@?$AAa?$AAr?$AA?9?$AAL?$AAB@ 000000014005b678     libucrtd:lcidtoname_downlevel.obj
 0002:0000e688       ??_C@_1M@GCEJHNEG@?$AAe?$AAn?$AA?9?$AAZ?$AAW@ 000000014005b688     libucrtd:lcidtoname_downlevel.obj
 0002:0000e698       ??_C@_1M@JNOCAHJI@?$AAe?$AAs?$AA?9?$AAE?$AAC@ 000000014005b698     libucrtd:lcidtoname_downlevel.obj
 0002:0000e6a8       ??_C@_1M@JEFHPGGB@?$AAa?$AAr?$AA?9?$AAK?$AAW@ 000000014005b6a8     libucrtd:lcidtoname_downlevel.obj
 0002:0000e6b8       ??_C@_1M@MLKIBJOJ@?$AAe?$AAn?$AA?9?$AAP?$AAH@ 000000014005b6b8     libucrtd:lcidtoname_downlevel.obj
 0002:0000e6c8       ??_C@_1M@BDNIPEND@?$AAe?$AAs?$AA?9?$AAC?$AAL@ 000000014005b6c8     libucrtd:lcidtoname_downlevel.obj
 0002:0000e6d8       ??_C@_1M@MPNMEKBD@?$AAa?$AAr?$AA?9?$AAA?$AAE@ 000000014005b6d8     libucrtd:lcidtoname_downlevel.obj
 0002:0000e6e8       ??_C@_1M@KBJALCPI@?$AAe?$AAs?$AA?9?$AAU?$AAY@ 000000014005b6e8     libucrtd:lcidtoname_downlevel.obj
 0002:0000e6f8       ??_C@_1M@LLCCOAGA@?$AAa?$AAr?$AA?9?$AAB?$AAH@ 000000014005b6f8     libucrtd:lcidtoname_downlevel.obj
 0002:0000e708       ??_C@_1M@PBFNCDEL@?$AAe?$AAs?$AA?9?$AAP?$AAY@ 000000014005b708     libucrtd:lcidtoname_downlevel.obj
 0002:0000e718       ??_C@_1M@EDGINPNP@?$AAa?$AAr?$AA?9?$AAQ?$AAA@ 000000014005b718     libucrtd:lcidtoname_downlevel.obj
 0002:0000e728       ??_C@_1M@MKDBIIJI@?$AAe?$AAs?$AA?9?$AAB?$AAO@ 000000014005b728     libucrtd:lcidtoname_downlevel.obj
 0002:0000e738       ??_C@_1M@CPKKEBLD@?$AAe?$AAs?$AA?9?$AAS?$AAV@ 000000014005b738     libucrtd:lcidtoname_downlevel.obj
 0002:0000e748       ??_C@_1M@NDBGMMJL@?$AAe?$AAs?$AA?9?$AAH?$AAN@ 000000014005b748     libucrtd:lcidtoname_downlevel.obj
 0002:0000e758       ??_C@_1M@JIJIBHDP@?$AAe?$AAs?$AA?9?$AAN?$AAI@ 000000014005b758     libucrtd:lcidtoname_downlevel.obj
 0002:0000e768       ??_C@_1M@CGFMKEEK@?$AAe?$AAs?$AA?9?$AAP?$AAR@ 000000014005b768     libucrtd:lcidtoname_downlevel.obj
 0002:0000e778       ??_C@_1O@ICJHKIIK@?$AAz?$AAh?$AA?9?$AAC?$AAH?$AAT@ 000000014005b778     libucrtd:lcidtoname_downlevel.obj
 0002:0000e788       ??_C@_15CLNEJCE@?$AAs?$AAr@ 000000014005b788     libucrtd:lcidtoname_downlevel.obj
 0002:0000f5d0       ??_C@_1M@KAHEKEIG@?$AAa?$AAf?$AA?9?$AAz?$AAa@ 000000014005c5d0     libucrtd:lcidtoname_downlevel.obj
 0002:0000f5e0       ??_C@_1M@GIECOABL@?$AAa?$AAr?$AA?9?$AAa?$AAe@ 000000014005c5e0     libucrtd:lcidtoname_downlevel.obj
 0002:0000f5f0       ??_C@_1M@BMLMEKGI@?$AAa?$AAr?$AA?9?$AAb?$AAh@ 000000014005c5f0     libucrtd:lcidtoname_downlevel.obj
 0002:0000f600       ??_C@_1M@DAPFDGGB@?$AAa?$AAr?$AA?9?$AAd?$AAz@ 000000014005c600     libucrtd:lcidtoname_downlevel.obj
 0002:0000f610       ??_C@_1M@FJNKGKIG@?$AAa?$AAr?$AA?9?$AAe?$AAg@ 000000014005c610     libucrtd:lcidtoname_downlevel.obj
 0002:0000f620       ??_C@_1M@FLGKKCLO@?$AAa?$AAr?$AA?9?$AAi?$AAq@ 000000014005c620     libucrtd:lcidtoname_downlevel.obj
 0002:0000f630       ??_C@_1M@GNDIPALM@?$AAa?$AAr?$AA?9?$AAj?$AAo@ 000000014005c630     libucrtd:lcidtoname_downlevel.obj
 0002:0000f640       ??_C@_1M@DDMJFMGJ@?$AAa?$AAr?$AA?9?$AAk?$AAw@ 000000014005c640     libucrtd:lcidtoname_downlevel.obj
 0002:0000f650       ??_C@_1M@EJALMLHM@?$AAa?$AAr?$AA?9?$AAl?$AAb@ 000000014005c650     libucrtd:lcidtoname_downlevel.obj
 0002:0000f660       ??_C@_1M@MOBDBLOC@?$AAa?$AAr?$AA?9?$AAl?$AAy@ 000000014005c660     libucrtd:lcidtoname_downlevel.obj
 0002:0000f670       ??_C@_1M@JAOCLHDH@?$AAa?$AAr?$AA?9?$AAm?$AAa@ 000000014005c670     libucrtd:lcidtoname_downlevel.obj
 0002:0000f680       ??_C@_1M@JHPMKJIE@?$AAa?$AAr?$AA?9?$AAo?$AAm@ 000000014005c680     libucrtd:lcidtoname_downlevel.obj
 0002:0000f690       ??_C@_1M@OEPGHFNH@?$AAa?$AAr?$AA?9?$AAq?$AAa@ 000000014005c690     libucrtd:lcidtoname_downlevel.obj
 0002:0000f6a0       ??_C@_1M@KJDONENM@?$AAa?$AAr?$AA?9?$AAs?$AAa@ 000000014005c6a0     libucrtd:lcidtoname_downlevel.obj
 0002:0000f6b0       ??_C@_1M@DMJDKLKM@?$AAa?$AAr?$AA?9?$AAs?$AAy@ 000000014005c6b0     libucrtd:lcidtoname_downlevel.obj
 0002:0000f6c0       ??_C@_1M@OMFIPEDC@?$AAa?$AAr?$AA?9?$AAt?$AAn@ 000000014005c6c0     libucrtd:lcidtoname_downlevel.obj
 0002:0000f6d0       ??_C@_1M@IHMHGAON@?$AAa?$AAr?$AA?9?$AAy?$AAe@ 000000014005c6d0     libucrtd:lcidtoname_downlevel.obj
 0002:0000f6e0       ??_C@_1BG@KDCPGJGB@?$AAa?$AAz?$AA?9?$AAa?$AAz?$AA?9?$AAc?$AAy?$AAr?$AAl@ 000000014005c6e0     libucrtd:lcidtoname_downlevel.obj
 0002:0000f6f8       ??_C@_1BG@IBCKDDOE@?$AAa?$AAz?$AA?9?$AAa?$AAz?$AA?9?$AAl?$AAa?$AAt?$AAn@ 000000014005c6f8     libucrtd:lcidtoname_downlevel.obj
 0002:0000f710       ??_C@_1M@EGPFDCPD@?$AAb?$AAe?$AA?9?$AAb?$AAy@ 000000014005c710     libucrtd:lcidtoname_downlevel.obj
 0002:0000f720       ??_C@_1M@PCMGMCGC@?$AAb?$AAg?$AA?9?$AAb?$AAg@ 000000014005c720     libucrtd:lcidtoname_downlevel.obj
 0002:0000f730       ??_C@_1M@BJBMFGOB@?$AAb?$AAn?$AA?9?$AAi?$AAn@ 000000014005c730     libucrtd:lcidtoname_downlevel.obj
 0002:0000f740       ??_C@_1BG@EAKMMACD@?$AAb?$AAs?$AA?9?$AAb?$AAa?$AA?9?$AAl?$AAa?$AAt?$AAn@ 000000014005c740     libucrtd:lcidtoname_downlevel.obj
 0002:0000f758       ??_C@_1M@KGADAODK@?$AAc?$AAa?$AA?9?$AAe?$AAs@ 000000014005c758     libucrtd:lcidtoname_downlevel.obj
 0002:0000f768       ??_C@_1M@COAJPDHI@?$AAc?$AAs?$AA?9?$AAc?$AAz@ 000000014005c768     libucrtd:lcidtoname_downlevel.obj
 0002:0000f778       ??_C@_1M@DHBHFONH@?$AAc?$AAy?$AA?9?$AAg?$AAb@ 000000014005c778     libucrtd:lcidtoname_downlevel.obj
 0002:0000f788       ??_C@_1M@IMGKELGA@?$AAd?$AAa?$AA?9?$AAd?$AAk@ 000000014005c788     libucrtd:lcidtoname_downlevel.obj
 0002:0000f798       ??_C@_1M@NNDGDNGA@?$AAd?$AAe?$AA?9?$AAa?$AAt@ 000000014005c798     libucrtd:lcidtoname_downlevel.obj
 0002:0000f7a8       ??_C@_1M@IKDBHEEM@?$AAd?$AAe?$AA?9?$AAc?$AAh@ 000000014005c7a8     libucrtd:lcidtoname_downlevel.obj
 0002:0000f7b8       ??_C@_1M@GFFOJMCJ@?$AAd?$AAe?$AA?9?$AAd?$AAe@ 000000014005c7b8     libucrtd:lcidtoname_downlevel.obj
 0002:0000f7c8       ??_C@_1M@MDNLKBPM@?$AAd?$AAe?$AA?9?$AAl?$AAi@ 000000014005c7c8     libucrtd:lcidtoname_downlevel.obj
 0002:0000f7d8       ??_C@_1M@NJBEEJNL@?$AAd?$AAe?$AA?9?$AAl?$AAu@ 000000014005c7d8     libucrtd:lcidtoname_downlevel.obj
 0002:0000f7e8       ??_C@_1O@GNNELBAP@?$AAd?$AAi?$AAv?$AA?9?$AAm?$AAv@ 000000014005c7e8     libucrtd:lcidtoname_downlevel.obj
 0002:0000f7f8       ??_C@_1M@EJLEOGAE@?$AAe?$AAl?$AA?9?$AAg?$AAr@ 000000014005c7f8     libucrtd:lcidtoname_downlevel.obj
 0002:0000f808       ??_C@_1M@GMPONJN@?$AAe?$AAn?$AA?9?$AAa?$AAu@ 000000014005c808     libucrtd:lcidtoname_downlevel.obj
 0002:0000f818       ??_C@_1M@NIDIIPGF@?$AAe?$AAn?$AA?9?$AAb?$AAz@ 000000014005c818     libucrtd:lcidtoname_downlevel.obj
 0002:0000f828       ??_C@_1M@JEHMIMFO@?$AAe?$AAn?$AA?9?$AAc?$AAa@ 000000014005c828     libucrtd:lcidtoname_downlevel.obj
 0002:0000f838       ??_C@_1M@IGMJCDLA@?$AAe?$AAn?$AA?9?$AAc?$AAb@ 000000014005c838     libucrtd:lcidtoname_downlevel.obj
 0002:0000f848       ??_C@_1M@BNFIGBKG@?$AAe?$AAn?$AA?9?$AAg?$AAb@ 000000014005c848     libucrtd:lcidtoname_downlevel.obj
 0002:0000f858       ??_C@_1M@LKIFDIGP@?$AAe?$AAn?$AA?9?$AAi?$AAe@ 000000014005c858     libucrtd:lcidtoname_downlevel.obj
 0002:0000f868       ??_C@_1M@PJKFGCCO@?$AAe?$AAn?$AA?9?$AAj?$AAm@ 000000014005c868     libucrtd:lcidtoname_downlevel.obj
 0002:0000f878       ??_C@_1M@KPPKEPBO@?$AAe?$AAn?$AA?9?$AAn?$AAz@ 000000014005c878     libucrtd:lcidtoname_downlevel.obj
 0002:0000f888       ??_C@_1M@GMDGLDOB@?$AAe?$AAn?$AA?9?$AAp?$AAh@ 000000014005c888     libucrtd:lcidtoname_downlevel.obj
 0002:0000f898       ??_C@_1M@ONGIBJNA@?$AAe?$AAn?$AA?9?$AAt?$AAt@ 000000014005c898     libucrtd:lcidtoname_downlevel.obj
 0002:0000f8a8       ??_C@_1M@LLODPCMM@?$AAe?$AAn?$AA?9?$AAu?$AAs@ 000000014005c8a8     libucrtd:lcidtoname_downlevel.obj
 0002:0000f8b8       ??_C@_1M@LAKFNPAN@?$AAe?$AAn?$AA?9?$AAz?$AAa@ 000000014005c8b8     libucrtd:lcidtoname_downlevel.obj
 0002:0000f8c8       ??_C@_1M@MFNHNHEO@?$AAe?$AAn?$AA?9?$AAz?$AAw@ 000000014005c8c8     libucrtd:lcidtoname_downlevel.obj
 0002:0000f8d8       ??_C@_1M@EJEINPHM@?$AAe?$AAs?$AA?9?$AAa?$AAr@ 000000014005c8d8     libucrtd:lcidtoname_downlevel.obj
 0002:0000f8e8       ??_C@_1M@GNKPCCJA@?$AAe?$AAs?$AA?9?$AAb?$AAo@ 000000014005c8e8     libucrtd:lcidtoname_downlevel.obj
 0002:0000f8f8       ??_C@_1M@LEEGFONL@?$AAe?$AAs?$AA?9?$AAc?$AAl@ 000000014005c8f8     libucrtd:lcidtoname_downlevel.obj
 0002:0000f908       ??_C@_1M@KGPDPBDF@?$AAe?$AAs?$AA?9?$AAc?$AAo@ 000000014005c908     libucrtd:lcidtoname_downlevel.obj
 0002:0000f918       ??_C@_1M@EIAHOHH@?$AAe?$AAs?$AA?9?$AAc?$AAr@ 000000014005c918     libucrtd:lcidtoname_downlevel.obj
 0002:0000f928       ??_C@_1M@LLPGMBIN@?$AAe?$AAs?$AA?9?$AAd?$AAo@ 000000014005c928     libucrtd:lcidtoname_downlevel.obj
 0002:0000f938       ??_C@_1M@DKHMKNJA@?$AAe?$AAs?$AA?9?$AAe?$AAc@ 000000014005c938     libucrtd:lcidtoname_downlevel.obj
 0002:0000f948       ??_C@_1M@GKGFPKAP@?$AAe?$AAs?$AA?9?$AAe?$AAs@ 000000014005c948     libucrtd:lcidtoname_downlevel.obj
 0002:0000f958       ??_C@_1M@LKHKGDLN@?$AAe?$AAs?$AA?9?$AAg?$AAt@ 000000014005c958     libucrtd:lcidtoname_downlevel.obj
 0002:0000f968       ??_C@_1M@HEIIGGJD@?$AAe?$AAs?$AA?9?$AAh?$AAn@ 000000014005c968     libucrtd:lcidtoname_downlevel.obj
 0002:0000f978       ??_C@_1M@FBDHPPGD@?$AAe?$AAs?$AA?9?$AAm?$AAx@ 000000014005c978     libucrtd:lcidtoname_downlevel.obj
 0002:0000f988       ??_C@_1M@DPAGLNDH@?$AAe?$AAs?$AA?9?$AAn?$AAi@ 000000014005c988     libucrtd:lcidtoname_downlevel.obj
 0002:0000f998       ??_C@_1M@MDGOPGDD@?$AAe?$AAs?$AA?9?$AAp?$AAa@ 000000014005c998     libucrtd:lcidtoname_downlevel.obj
 0002:0000f9a8       ??_C@_1M@EMAMGBGE@?$AAe?$AAs?$AA?9?$AAp?$AAe@ 000000014005c9a8     libucrtd:lcidtoname_downlevel.obj
 0002:0000f9b8       ??_C@_1M@IBMCAOEC@?$AAe?$AAs?$AA?9?$AAp?$AAr@ 000000014005c9b8     libucrtd:lcidtoname_downlevel.obj
 0002:0000f9c8       ??_C@_1M@FGMDIJED@?$AAe?$AAs?$AA?9?$AAp?$AAy@ 000000014005c9c8     libucrtd:lcidtoname_downlevel.obj
 0002:0000f9d8       ??_C@_1M@IIDEOLLL@?$AAe?$AAs?$AA?9?$AAs?$AAv@ 000000014005c9d8     libucrtd:lcidtoname_downlevel.obj
 0002:0000f9e8       ??_C@_1M@GAOBIPA@?$AAe?$AAs?$AA?9?$AAu?$AAy@ 000000014005c9e8     libucrtd:lcidtoname_downlevel.obj
 0002:0000f9f8       ??_C@_1M@JKFFICHJ@?$AAe?$AAs?$AA?9?$AAv?$AAe@ 000000014005c9f8     libucrtd:lcidtoname_downlevel.obj
 0002:0000fa08       ??_C@_1M@PNMLOJDF@?$AAe?$AAt?$AA?9?$AAe?$AAe@ 000000014005ca08     libucrtd:lcidtoname_downlevel.obj
 0002:0000fa18       ??_C@_1M@GHHLIKEI@?$AAe?$AAu?$AA?9?$AAe?$AAs@ 000000014005ca18     libucrtd:lcidtoname_downlevel.obj
 0002:0000fa28       ??_C@_1M@PBNONODE@?$AAf?$AAa?$AA?9?$AAi?$AAr@ 000000014005ca28     libucrtd:lcidtoname_downlevel.obj
 0002:0000fa38       ??_C@_1M@JEEHPMIL@?$AAf?$AAi?$AA?9?$AAf?$AAi@ 000000014005ca38     libucrtd:lcidtoname_downlevel.obj
 0002:0000fa48       ??_C@_1M@LMDCNDBA@?$AAf?$AAo?$AA?9?$AAf?$AAo@ 000000014005ca48     libucrtd:lcidtoname_downlevel.obj
 0002:0000fa58       ??_C@_1M@JKEOHLDK@?$AAf?$AAr?$AA?9?$AAb?$AAe@ 000000014005ca58     libucrtd:lcidtoname_downlevel.obj
 0002:0000fa68       ??_C@_1M@NOHADPMI@?$AAf?$AAr?$AA?9?$AAc?$AAa@ 000000014005ca68     libucrtd:lcidtoname_downlevel.obj
 0002:0000fa78       ??_C@_1M@KDHIHAEC@?$AAf?$AAr?$AA?9?$AAc?$AAh@ 000000014005ca78     libucrtd:lcidtoname_downlevel.obj
 0002:0000fa88       ??_C@_1M@MMBBFGAK@?$AAf?$AAr?$AA?9?$AAf?$AAr@ 000000014005ca88     libucrtd:lcidtoname_downlevel.obj
 0002:0000fa98       ??_C@_1M@PAFNENNF@?$AAf?$AAr?$AA?9?$AAl?$AAu@ 000000014005ca98     libucrtd:lcidtoname_downlevel.obj
 0002:0000faa8       ??_C@_1M@EOHDJGDD@?$AAf?$AAr?$AA?9?$AAm?$AAc@ 000000014005caa8     libucrtd:lcidtoname_downlevel.obj
 0002:0000fab8       ??_C@_1M@FAPLLOPF@?$AAg?$AAl?$AA?9?$AAe?$AAs@ 000000014005cab8     libucrtd:lcidtoname_downlevel.obj
 0002:0000fac8       ??_C@_1M@FOPBFLOO@?$AAg?$AAu?$AA?9?$AAi?$AAn@ 000000014005cac8     libucrtd:lcidtoname_downlevel.obj
 0002:0000fad8       ??_C@_1M@KBMCINPM@?$AAh?$AAe?$AA?9?$AAi?$AAl@ 000000014005cad8     libucrtd:lcidtoname_downlevel.obj
 0002:0000fae8       ??_C@_1M@BBPHKFPJ@?$AAh?$AAi?$AA?9?$AAi?$AAn@ 000000014005cae8     libucrtd:lcidtoname_downlevel.obj
 0002:0000faf8       ??_C@_1M@PMBNDPHD@?$AAh?$AAr?$AA?9?$AAb?$AAa@ 000000014005caf8     libucrtd:lcidtoname_downlevel.obj
 0002:0000fb08       ??_C@_1M@BPCKOEGE@?$AAh?$AAr?$AA?9?$AAh?$AAr@ 000000014005cb08     libucrtd:lcidtoname_downlevel.obj
 0002:0000fb18       ??_C@_1M@GACBMHKE@?$AAh?$AAu?$AA?9?$AAh?$AAu@ 000000014005cb18     libucrtd:lcidtoname_downlevel.obj
 0002:0000fb28       ??_C@_1M@MILPAJJC@?$AAh?$AAy?$AA?9?$AAa?$AAm@ 000000014005cb28     libucrtd:lcidtoname_downlevel.obj
 0002:0000fb38       ??_C@_1M@BABBICEC@?$AAi?$AAd?$AA?9?$AAi?$AAd@ 000000014005cb38     libucrtd:lcidtoname_downlevel.obj
 0002:0000fb48       ??_C@_1M@BIKNHHPF@?$AAi?$AAs?$AA?9?$AAi?$AAs@ 000000014005cb48     libucrtd:lcidtoname_downlevel.obj
 0002:0000fb58       ??_C@_1M@NMPCJPHE@?$AAi?$AAt?$AA?9?$AAc?$AAh@ 000000014005cb58     libucrtd:lcidtoname_downlevel.obj
 0002:0000fb68       ??_C@_1M@GHKGFEDF@?$AAi?$AAt?$AA?9?$AAi?$AAt@ 000000014005cb68     libucrtd:lcidtoname_downlevel.obj
 0002:0000fb78       ??_C@_1M@NIEJCJJA@?$AAj?$AAa?$AA?9?$AAj?$AAp@ 000000014005cb78     libucrtd:lcidtoname_downlevel.obj
 0002:0000fb88       ??_C@_1M@JILFNBIM@?$AAk?$AAa?$AA?9?$AAg?$AAe@ 000000014005cb88     libucrtd:lcidtoname_downlevel.obj
 0002:0000fb98       ??_C@_1M@PACPMGPH@?$AAk?$AAk?$AA?9?$AAk?$AAz@ 000000014005cb98     libucrtd:lcidtoname_downlevel.obj
 0002:0000fba8       ??_C@_1M@IELFGMHA@?$AAk?$AAn?$AA?9?$AAi?$AAn@ 000000014005cba8     libucrtd:lcidtoname_downlevel.obj
 0002:0000fbb8       ??_C@_1O@IBBJHCH@?$AAk?$AAo?$AAk?$AA?9?$AAi?$AAn@ 000000014005cbb8     libucrtd:lcidtoname_downlevel.obj
 0002:0000fbc8       ??_C@_1M@DMHAEOGC@?$AAk?$AAo?$AA?9?$AAk?$AAr@ 000000014005cbc8     libucrtd:lcidtoname_downlevel.obj
 0002:0000fbd8       ??_C@_1M@HBAHBIGA@?$AAk?$AAy?$AA?9?$AAk?$AAg@ 000000014005cbd8     libucrtd:lcidtoname_downlevel.obj
 0002:0000fbe8       ??_C@_1M@KPMILCJG@?$AAl?$AAt?$AA?9?$AAl?$AAt@ 000000014005cbe8     libucrtd:lcidtoname_downlevel.obj
 0002:0000fbf8       ??_C@_1M@BDEKKCA@?$AAl?$AAv?$AA?9?$AAl?$AAv@ 000000014005cbf8     libucrtd:lcidtoname_downlevel.obj
 0002:0000fc08       ??_C@_1M@ELCKCCJJ@?$AAm?$AAi?$AA?9?$AAn?$AAz@ 000000014005cc08     libucrtd:lcidtoname_downlevel.obj
 0002:0000fc18       ??_C@_1M@CBOOLAPA@?$AAm?$AAk?$AA?9?$AAm?$AAk@ 000000014005cc18     libucrtd:lcidtoname_downlevel.obj
 0002:0000fc28       ??_C@_1M@GPHNBJKN@?$AAm?$AAl?$AA?9?$AAi?$AAn@ 000000014005cc28     libucrtd:lcidtoname_downlevel.obj
 0002:0000fc38       ??_C@_1M@PABJILIG@?$AAm?$AAn?$AA?9?$AAm?$AAn@ 000000014005cc38     libucrtd:lcidtoname_downlevel.obj
 0002:0000fc48       ??_C@_1M@FGBKKIPG@?$AAm?$AAr?$AA?9?$AAi?$AAn@ 000000014005cc48     libucrtd:lcidtoname_downlevel.obj
 0002:0000fc58       ??_C@_1M@NDBPDDAL@?$AAm?$AAs?$AA?9?$AAb?$AAn@ 000000014005cc58     libucrtd:lcidtoname_downlevel.obj
 0002:0000fc68       ??_C@_1M@OPIHOOPI@?$AAm?$AAs?$AA?9?$AAm?$AAy@ 000000014005cc68     libucrtd:lcidtoname_downlevel.obj
 0002:0000fc78       ??_C@_1M@PPDBCNFM@?$AAm?$AAt?$AA?9?$AAm?$AAt@ 000000014005cc78     libucrtd:lcidtoname_downlevel.obj
 0002:0000fc88       ??_C@_1M@KDJDKMDD@?$AAn?$AAb?$AA?9?$AAn?$AAo@ 000000014005cc88     libucrtd:lcidtoname_downlevel.obj
 0002:0000fc98       ??_C@_1M@KFCFLMJP@?$AAn?$AAl?$AA?9?$AAb?$AAe@ 000000014005cc98     libucrtd:lcidtoname_downlevel.obj
 0002:0000fca8       ??_C@_1M@KPOPDDGO@?$AAn?$AAl?$AA?9?$AAn?$AAl@ 000000014005cca8     libucrtd:lcidtoname_downlevel.obj
 0002:0000fcb8       ??_C@_1M@LJKPEMLN@?$AAn?$AAn?$AA?9?$AAn?$AAo@ 000000014005ccb8     libucrtd:lcidtoname_downlevel.obj
 0002:0000fcc8       ??_C@_1M@BDGHHBFL@?$AAn?$AAs?$AA?9?$AAz?$AAa@ 000000014005ccc8     libucrtd:lcidtoname_downlevel.obj
 0002:0000fcd8       ??_C@_1M@IDEHOAP@?$AAp?$AAa?$AA?9?$AAi?$AAn@ 000000014005ccd8     libucrtd:lcidtoname_downlevel.obj
 0002:0000fce8       ??_C@_1M@HDBKGOGH@?$AAp?$AAl?$AA?9?$AAp?$AAl@ 000000014005cce8     libucrtd:lcidtoname_downlevel.obj
 0002:0000fcf8       ??_C@_1M@LJLLCMEH@?$AAp?$AAt?$AA?9?$AAb?$AAr@ 000000014005ccf8     libucrtd:lcidtoname_downlevel.obj
 0002:0000fd08       ??_C@_1M@NCMONAAL@?$AAp?$AAt?$AA?9?$AAp?$AAt@ 000000014005cd08     libucrtd:lcidtoname_downlevel.obj
 0002:0000fd18       ??_C@_1O@EAKMAJDN@?$AAq?$AAu?$AAz?$AA?9?$AAb?$AAo@ 000000014005cd18     libucrtd:lcidtoname_downlevel.obj
 0002:0000fd28       ??_C@_1O@BHHPIGDN@?$AAq?$AAu?$AAz?$AA?9?$AAe?$AAc@ 000000014005cd28     libucrtd:lcidtoname_downlevel.obj
 0002:0000fd38       ??_C@_1O@GBAPEKMJ@?$AAq?$AAu?$AAz?$AA?9?$AAp?$AAe@ 000000014005cd38     libucrtd:lcidtoname_downlevel.obj
 0002:0000fd48       ??_C@_1M@CLGLEFBO@?$AAr?$AAo?$AA?9?$AAr?$AAo@ 000000014005cd48     libucrtd:lcidtoname_downlevel.obj
 0002:0000fd58       ??_C@_1M@CEEDODME@?$AAr?$AAu?$AA?9?$AAr?$AAu@ 000000014005cd58     libucrtd:lcidtoname_downlevel.obj
 0002:0000fd68       ??_C@_1M@HPKKKMPP@?$AAs?$AAa?$AA?9?$AAi?$AAn@ 000000014005cd68     libucrtd:lcidtoname_downlevel.obj
 0002:0000fd78       ??_C@_1M@BKMAIGOJ@?$AAs?$AAe?$AA?9?$AAf?$AAi@ 000000014005cd78     libucrtd:lcidtoname_downlevel.obj
 0002:0000fd88       ??_C@_1M@NDPIFLFI@?$AAs?$AAe?$AA?9?$AAn?$AAo@ 000000014005cd88     libucrtd:lcidtoname_downlevel.obj
 0002:0000fd98       ??_C@_1M@DANKKHJ@?$AAs?$AAe?$AA?9?$AAs?$AAe@ 000000014005cd98     libucrtd:lcidtoname_downlevel.obj
 0002:0000fda8       ??_C@_1M@PNBLONPJ@?$AAs?$AAk?$AA?9?$AAs?$AAk@ 000000014005cda8     libucrtd:lcidtoname_downlevel.obj
 0002:0000fdb8       ??_C@_1M@LFMODOAL@?$AAs?$AAl?$AA?9?$AAs?$AAi@ 000000014005cdb8     libucrtd:lcidtoname_downlevel.obj
 0002:0000fdc8       ??_C@_1O@DFKOMPG@?$AAs?$AAm?$AAa?$AA?9?$AAn?$AAo@ 000000014005cdc8     libucrtd:lcidtoname_downlevel.obj
 0002:0000fdd8       ??_C@_1O@NDKPBNNH@?$AAs?$AAm?$AAa?$AA?9?$AAs?$AAe@ 000000014005cdd8     libucrtd:lcidtoname_downlevel.obj
 0002:0000fde8       ??_C@_1O@PLLKBHAB@?$AAs?$AAm?$AAj?$AA?9?$AAn?$AAo@ 000000014005cde8     libucrtd:lcidtoname_downlevel.obj
 0002:0000fdf8       ??_C@_1O@CLEPOGCA@?$AAs?$AAm?$AAj?$AA?9?$AAs?$AAe@ 000000014005cdf8     libucrtd:lcidtoname_downlevel.obj
 0002:0000fe08       ??_C@_1O@DLGJGKMK@?$AAs?$AAm?$AAn?$AA?9?$AAf?$AAi@ 000000014005ce08     libucrtd:lcidtoname_downlevel.obj
 0002:0000fe18       ??_C@_1O@OJDJGAJC@?$AAs?$AAm?$AAs?$AA?9?$AAf?$AAi@ 000000014005ce18     libucrtd:lcidtoname_downlevel.obj
 0002:0000fe28       ??_C@_1M@BOFOGHPB@?$AAs?$AAq?$AA?9?$AAa?$AAl@ 000000014005ce28     libucrtd:lcidtoname_downlevel.obj
 0002:0000fe38       ??_C@_1BG@LJBBIPGB@?$AAs?$AAr?$AA?9?$AAb?$AAa?$AA?9?$AAc?$AAy?$AAr?$AAl@ 000000014005ce38     libucrtd:lcidtoname_downlevel.obj
 0002:0000fe50       ??_C@_1BG@JLBENFOE@?$AAs?$AAr?$AA?9?$AAb?$AAa?$AA?9?$AAl?$AAa?$AAt?$AAn@ 000000014005ce50     libucrtd:lcidtoname_downlevel.obj
 0002:0000fe68       ??_C@_1BG@KODPNHE@?$AAs?$AAr?$AA?9?$AAs?$AAp?$AA?9?$AAc?$AAy?$AAr?$AAl@ 000000014005ce68     libucrtd:lcidtoname_downlevel.obj
 0002:0000fe80       ??_C@_1BG@CIOGKHPB@?$AAs?$AAr?$AA?9?$AAs?$AAp?$AA?9?$AAl?$AAa?$AAt?$AAn@ 000000014005ce80     libucrtd:lcidtoname_downlevel.obj
 0002:0000fe98       ??_C@_1M@NGFJLMAC@?$AAs?$AAv?$AA?9?$AAf?$AAi@ 000000014005ce98     libucrtd:lcidtoname_downlevel.obj
 0002:0000fea8       ??_C@_1M@MPJEJAJC@?$AAs?$AAv?$AA?9?$AAs?$AAe@ 000000014005cea8     libucrtd:lcidtoname_downlevel.obj
 0002:0000feb8       ??_C@_1M@MPNDHLFK@?$AAs?$AAw?$AA?9?$AAk?$AAe@ 000000014005ceb8     libucrtd:lcidtoname_downlevel.obj
 0002:0000fec8       ??_C@_1O@KOHBJJI@?$AAs?$AAy?$AAr?$AA?9?$AAs?$AAy@ 000000014005cec8     libucrtd:lcidtoname_downlevel.obj
 0002:0000fed8       ??_C@_1M@LDCEFHA@?$AAt?$AAa?$AA?9?$AAi?$AAn@ 000000014005ced8     libucrtd:lcidtoname_downlevel.obj
 0002:0000fee8       ??_C@_1M@CNJOFAK@?$AAt?$AAe?$AA?9?$AAi?$AAn@ 000000014005cee8     libucrtd:lcidtoname_downlevel.obj
 0002:0000fef8       ??_C@_1M@GNAECACD@?$AAt?$AAh?$AA?9?$AAt?$AAh@ 000000014005cef8     libucrtd:lcidtoname_downlevel.obj
 0002:0000ff08       ??_C@_1M@CHBIHOJO@?$AAt?$AAn?$AA?9?$AAz?$AAa@ 000000014005cf08     libucrtd:lcidtoname_downlevel.obj
 0002:0000ff18       ??_C@_1M@GCCMIGPJ@?$AAt?$AAr?$AA?9?$AAt?$AAr@ 000000014005cf18     libucrtd:lcidtoname_downlevel.obj
 0002:0000ff28       ??_C@_1M@CELMCNBK@?$AAt?$AAt?$AA?9?$AAr?$AAu@ 000000014005cf28     libucrtd:lcidtoname_downlevel.obj
 0002:0000ff38       ??_C@_1M@KLMCELGA@?$AAu?$AAk?$AA?9?$AAu?$AAa@ 000000014005cf38     libucrtd:lcidtoname_downlevel.obj
 0002:0000ff48       ??_C@_1M@EPAJJAJF@?$AAu?$AAr?$AA?9?$AAp?$AAk@ 000000014005cf48     libucrtd:lcidtoname_downlevel.obj
 0002:0000ff58       ??_C@_1BG@GEGPMCDJ@?$AAu?$AAz?$AA?9?$AAu?$AAz?$AA?9?$AAc?$AAy?$AAr?$AAl@ 000000014005cf58     libucrtd:lcidtoname_downlevel.obj
 0002:0000ff70       ??_C@_1BG@EGGKJILM@?$AAu?$AAz?$AA?9?$AAu?$AAz?$AA?9?$AAl?$AAa?$AAt?$AAn@ 000000014005cf70     libucrtd:lcidtoname_downlevel.obj
 0002:0000ff88       ??_C@_1M@GFOCLFF@?$AAv?$AAi?$AA?9?$AAv?$AAn@ 000000014005cf88     libucrtd:lcidtoname_downlevel.obj
 0002:0000ff98       ??_C@_1M@CPAMEDFI@?$AAx?$AAh?$AA?9?$AAz?$AAa@ 000000014005cf98     libucrtd:lcidtoname_downlevel.obj
 0002:0000ffa8       ??_C@_1O@EBKIFIGN@?$AAz?$AAh?$AA?9?$AAc?$AAh?$AAs@ 000000014005cfa8     libucrtd:lcidtoname_downlevel.obj
 0002:0000ffb8       ??_C@_1O@NMHPGANE@?$AAz?$AAh?$AA?9?$AAc?$AAh?$AAt@ 000000014005cfb8     libucrtd:lcidtoname_downlevel.obj
 0002:0000ffc8       ??_C@_1M@LPINJOMC@?$AAz?$AAh?$AA?9?$AAc?$AAn@ 000000014005cfc8     libucrtd:lcidtoname_downlevel.obj
 0002:0000ffd8       ??_C@_1M@OCJEJODD@?$AAz?$AAh?$AA?9?$AAh?$AAk@ 000000014005cfd8     libucrtd:lcidtoname_downlevel.obj
 0002:0000ffe8       ??_C@_1M@DNDLJINH@?$AAz?$AAh?$AA?9?$AAm?$AAo@ 000000014005cfe8     libucrtd:lcidtoname_downlevel.obj
 0002:0000fff8       ??_C@_1M@MBFDNDND@?$AAz?$AAh?$AA?9?$AAs?$AAg@ 000000014005cff8     libucrtd:lcidtoname_downlevel.obj
 0002:00010008       ??_C@_1M@IMEPLEPE@?$AAz?$AAh?$AA?9?$AAt?$AAw@ 000000014005d008     libucrtd:lcidtoname_downlevel.obj
 0002:00010018       ??_C@_1M@BBGHNHJP@?$AAz?$AAu?$AA?9?$AAz?$AAa@ 000000014005d018     libucrtd:lcidtoname_downlevel.obj
 0002:00010050       ??_C@_1GA@MPOOLHCO@?$AAm?$AAi?$AAn?$AAk?$AAe?$AAr?$AAn?$AAe?$AAl?$AA?2?$AAc?$AAr?$AAt?$AAs?$AA?2@ 000000014005d050     libucrtd:commit.obj
 0002:000100b0       ??_C@_1BA@FLNMBBIM@?$AA_?$AAc?$AAo?$AAm?$AAm?$AAi?$AAt@ 000000014005d0b0     libucrtd:commit.obj
 0002:000100c0       ??_C@_1BO@JGGHCINF@?$AAl?$AAh?$AAs?$AA?5?$AA?$CB?$AA?$DN?$AA?5?$AAn?$AAu?$AAl?$AAl?$AAp?$AAt?$AAr@ 000000014005d0c0     libucrtd:wcsnicmp.obj
 0002:000100e0       ??_C@_1BO@FHLPEAOG@?$AAr?$AAh?$AAs?$AA?5?$AA?$CB?$AA?$DN?$AA?5?$AAn?$AAu?$AAl?$AAl?$AAp?$AAt?$AAr@ 000000014005d0e0     libucrtd:wcsnicmp.obj
 0002:00010100       ??_C@_1GG@FIFJEMIA@?$AAm?$AAi?$AAn?$AAk?$AAe?$AAr?$AAn?$AAe?$AAl?$AA?2?$AAc?$AAr?$AAt?$AAs?$AA?2@ 000000014005d100     libucrtd:strnicmp.obj
 0002:00010168       ??_C@_1BI@BJLEPLEF@?$AA_?$AAs?$AAt?$AAr?$AAn?$AAi?$AAc?$AAm?$AAp?$AA_?$AAl@ 000000014005d168     libucrtd:strnicmp.obj
 0002:00010180       ??_C@_1CC@JLPHKJPH@?$AAc?$AAo?$AAu?$AAn?$AAt?$AA?5?$AA?$DM?$AA?$DN?$AA?5?$AAI?$AAN?$AAT?$AA_?$AAM?$AAA@ 000000014005d180     libucrtd:strnicmp.obj
 0002:000101a8       ??_C@_1BE@BHJDFFNA@?$AA_?$AAs?$AAt?$AAr?$AAn?$AAi?$AAc?$AAm?$AAp@ 000000014005d1a8     libucrtd:strnicmp.obj
 0002:000101c0       ??_C@_1DC@MDAAFACM@?$AA?$CI?$AA?$CC?$AAI?$AAn?$AAv?$AAa?$AAl?$AAi?$AAd?$AA?5?$AAo?$AAp?$AAe?$AAn?$AA?5@ 000000014005d1c0     libucrtd:open.obj
 0002:00010200       ??_C@_1FM@EFELGMIP@?$AAm?$AAi?$AAn?$AAk?$AAe?$AAr?$AAn?$AAe?$AAl?$AA?2?$AAc?$AAr?$AAt?$AAs?$AA?2@ 000000014005d200     libucrtd:open.obj
 0002:00010260       ??_C@_1CI@CBNKIJOA@?$AAd?$AAe?$AAc?$AAo?$AAd?$AAe?$AA_?$AAa?$AAc?$AAc?$AAe?$AAs?$AAs?$AA_?$AAf@ 000000014005d260     libucrtd:open.obj
 0002:00010288       ??_C@_1DC@MNGJFJEL@?$AAd?$AAe?$AAc?$AAo?$AAd?$AAe?$AA_?$AAo?$AAp?$AAe?$AAn?$AA_?$AAc?$AAr?$AAe@ 000000014005d288     libucrtd:open.obj
 0002:000102c0       ??_C@_1DI@OAOBKLOM@?$AA?$CI?$AA?$CC?$AAI?$AAn?$AAv?$AAa?$AAl?$AAi?$AAd?$AA?5?$AAs?$AAh?$AAa?$AAr?$AAi@ 000000014005d2c0     libucrtd:open.obj
 0002:000102f8       ??_C@_1CK@LFHOGGAL@?$AAd?$AAe?$AAc?$AAo?$AAd?$AAe?$AA_?$AAs?$AAh?$AAa?$AAr?$AAi?$AAn?$AAg?$AA_@ 000000014005d2f8     libucrtd:open.obj
 0002:00010328       ??_C@_1BK@MIHMAFGB@?$AAi?$AAs?$AA_?$AAt?$AAe?$AAx?$AAt?$AA_?$AAm?$AAo?$AAd?$AAe@ 000000014005d328     libucrtd:open.obj
 0002:00010348       ??_C@_1CG@ICBEBDJJ@?$AA_?$AAg?$AAe?$AAt?$AA_?$AAf?$AAm?$AAo?$AAd?$AAe?$AA?$CI?$AA?$CG?$AAf?$AAm?$AAo@ 000000014005d348     libucrtd:open.obj
 0002:00010370       ??_C@_1CI@FIBMFMKJ@?$AAc?$AAo?$AAn?$AAf?$AAi?$AAg?$AAu?$AAr?$AAe?$AA_?$AAt?$AAe?$AAx?$AAt?$AA_@ 000000014005d370     libucrtd:open.obj
 0002:00010398       ??_C@_1DM@GAGCJPHI@?$AA?$CI?$AAo?$AAf?$AAl?$AAa?$AAg?$AA?5?$AA?$CG?$AA?5?$AAt?$AAe?$AAx?$AAt?$AA_?$AAm@ 000000014005d398     libucrtd:open.obj
 0002:000103d8       ??_C@_1CM@IDLMKMPG@?$AA0?$AA?5?$AA?$CG?$AA?$CG?$AA?5?$AA?$CC?$AAI?$AAn?$AAt?$AAe?$AAr?$AAn?$AAa?$AAl?$AA?5@ 000000014005d3d8     libucrtd:open.obj
 0002:00010410       ??_C@_1IA@IENOJNJF@?$AA0?$AA?5?$AA?$CG?$AA?$CG?$AA?5?$AA?$CC?$AAO?$AAn?$AAl?$AAy?$AA?5?$AAU?$AAT?$AAF?$AA?9@ 000000014005d410     libucrtd:open.obj
 0002:00010490       ??_C@_1CA@DFHJGMAL@?$AAp?$AAa?$AAt?$AAh?$AA?5?$AA?$CB?$AA?$DN?$AA?5?$AAn?$AAu?$AAl?$AAl?$AAp?$AAt?$AAr@ 000000014005d490     libucrtd:open.obj
 0002:000104b0       ??_C@_1BO@CKEBPLGM@?$AAp?$AAf?$AAh?$AA?5?$AA?$CB?$AA?$DN?$AA?5?$AAn?$AAu?$AAl?$AAl?$AAp?$AAt?$AAr@ 000000014005d4b0     libucrtd:open.obj
 0002:000104d0       ??_C@_1CM@DJGGMBLF@?$AAc?$AAo?$AAm?$AAm?$AAo?$AAn?$AA_?$AAs?$AAo?$AAp?$AAe?$AAn?$AA_?$AAd?$AAi@ 000000014005d4d0     libucrtd:open.obj
 0002:00010500       ??_C@_1FC@KMHFBDGJ@?$AA?$CI?$AAp?$AAm?$AAo?$AAd?$AAe?$AA?5?$AA?$CG?$AA?5?$AA?$CI?$AA?$HO?$AA?$CI?$AA_?$AAS?$AA_@ 000000014005d500     libucrtd:open.obj
 0002:00010560       ??_C@_1GA@DEPMKPD@?$AAm?$AAi?$AAn?$AAk?$AAe?$AAr?$AAn?$AAe?$AAl?$AA?2?$AAc?$AAr?$AAt?$AAs?$AA?2@ 000000014005d560     libucrtd:isatty.obj
 0002:000105c0       ??_C@_1BA@LEBDGIHM@?$AA_?$AAi?$AAs?$AAa?$AAt?$AAt?$AAy@ 000000014005d5c0     libucrtd:isatty.obj
 0002:000105d0       ??_C@_1GC@DLDMJFMI@?$AAm?$AAi?$AAn?$AAk?$AAe?$AAr?$AAn?$AAe?$AAl?$AA?2?$AAc?$AAr?$AAt?$AAs?$AA?2@ 000000014005d5d0     libucrtd:_getbuf.obj
 0002:00010638       ??_C@_0DB@LKJPMJPL@minkernel?2crts?2ucrt?2src?2appcrt?2@ 000000014005d638     libucrtd:_getbuf.obj
 0002:00010670       ??_C@_1GG@MCCIENJO@?$AAm?$AAi?$AAn?$AAk?$AAe?$AAr?$AAn?$AAe?$AAl?$AA?2?$AAc?$AAr?$AAt?$AAs?$AA?2@ 000000014005d670     libucrtd:mbrtowc.obj
 0002:000106e0       ??_C@_1EK@MCEFBPIK@?$AAr?$AAe?$AAt?$AAv?$AAa?$AAl?$AA?5?$AA?$CB?$AA?$DN?$AA?5?$AA_?$AA_?$AAc?$AAr?$AAt@ 000000014005d6e0     libucrtd:mbrtowc.obj
 0002:00010730       ??_C@_1GI@IMEEHIAK@?$AAm?$AAi?$AAn?$AAk?$AAe?$AAr?$AAn?$AAe?$AAl?$AA?2?$AAc?$AAr?$AAt?$AAs?$AA?2@ 000000014005d730     libucrtd:_fptostr.obj
 0002:00010798       ??_C@_1DG@NMGBKPMI@?$AA_?$AA_?$AAa?$AAc?$AAr?$AAt?$AA_?$AAf?$AAp?$AA_?$AAs?$AAt?$AAr?$AAf?$AAl@ 000000014005d798     libucrtd:_fptostr.obj
 0002:000107d0       ??_C@_1CC@ONIJBMJF@?$AAb?$AAu?$AAf?$AAf?$AAe?$AAr?$AA_?$AAc?$AAo?$AAu?$AAn?$AAt?$AA?5?$AA?$DO?$AA?5@ 000000014005d7d0     libucrtd:_fptostr.obj
 0002:00010800       ??_C@_1IE@EAOKIIFP@?$AAb?$AAu?$AAf?$AAf?$AAe?$AAr?$AA_?$AAc?$AAo?$AAu?$AAn?$AAt?$AA?5?$AA?$DO?$AA?5@ 000000014005d800     libucrtd:_fptostr.obj
 0002:00010888       ??_C@_1CA@EDEEBMBB@?$AAp?$AAf?$AAl?$AAt?$AA?5?$AA?$CB?$AA?$DN?$AA?5?$AAn?$AAu?$AAl?$AAl?$AAp?$AAt?$AAr@ 000000014005d888     libucrtd:_fptostr.obj
 0002:000108b0       ?large_power_data@?1??multiply_by_power_of_ten@__crt_strtox@@YA_NAEAUbig_integer@2@I@Z@4QBIB 000000014005d8b0     libucrtd:cfout.obj
 0002:000111c0       ?large_power_indices@?1??multiply_by_power_of_ten@__crt_strtox@@YA_NAEAUbig_integer@2@I@Z@4QBUunpack_index@?1??12@YA_N0I@Z@B 000000014005e1c0     libucrtd:cfout.obj
 0002:00011258       ?small_powers_of_ten@?1??multiply_by_power_of_ten@__crt_strtox@@YA_NAEAUbig_integer@2@I@Z@4QBIB 000000014005e258     libucrtd:cfout.obj
 0002:00011280       ??_C@_1DI@GICAMMFM@?$AA?$CI?$AA?$CC?$AAD?$AAi?$AAv?$AAi?$AAs?$AAi?$AAo?$AAn?$AA?5?$AAb?$AAy?$AA?5?$AAz@ 000000014005e280     libucrtd:cfout.obj
 0002:000112c0       ??_C@_1GO@BFGDDONN@?$AAm?$AAi?$AAn?$AAk?$AAe?$AAr?$AAn?$AAe?$AAl?$AA?2?$AAc?$AAr?$AAt?$AAs?$AA?2@ 000000014005e2c0     libucrtd:cfout.obj
 0002:00011330       ??_C@_1GC@DDAKNBNC@?$AAm?$AAi?$AAn?$AAk?$AAe?$AAr?$AAn?$AAe?$AAl?$AA?2?$AAc?$AAr?$AAt?$AAs?$AA?2@ 000000014005e330     libucrtd:cfout.obj
 0002:00011398       ??_C@_1BM@FAAOAKKO@?$AA_?$AA_?$AAa?$AAc?$AAr?$AAt?$AA_?$AAf?$AAl?$AAt?$AAo?$AAu?$AAt@ 000000014005e398     libucrtd:cfout.obj
 0002:000113c0       ??_C@_1EI@OACEJKEP@?$AAs?$AAt?$AAr?$AAc?$AAp?$AAy?$AA_?$AAs?$AA?$CI?$AAr?$AAe?$AAs?$AAu?$AAl?$AAt@ 000000014005e3c0     libucrtd:cfout.obj
 0002:00011408       ??_C@_01GBGANLPD@0@        000000014005e408     libucrtd:cfout.obj
 0002:00011410       ??_C@_1FC@KIECGFMP@?$AAs?$AAt?$AAr?$AAc?$AAp?$AAy?$AA_?$AAs?$AA?$CI?$AAr?$AAe?$AAs?$AAu?$AAl?$AAt@ 000000014005e410     libucrtd:cfout.obj
 0002:00011464       ??_C@_05DNEBIAHO@1?$CDINF@ 000000014005e464     libucrtd:cfout.obj
 0002:00011470       ??_C@_1FC@NFPJEIBD@?$AAs?$AAt?$AAr?$AAc?$AAp?$AAy?$AA_?$AAs?$AA?$CI?$AAr?$AAe?$AAs?$AAu?$AAl?$AAt@ 000000014005e470     libucrtd:cfout.obj
 0002:000114c4       ??_C@_06IMKFLFPG@1?$CDQNAN@ 000000014005e4c4     libucrtd:cfout.obj
 0002:000114d0       ??_C@_1FC@DEJHIMLO@?$AAs?$AAt?$AAr?$AAc?$AAp?$AAy?$AA_?$AAs?$AA?$CI?$AAr?$AAe?$AAs?$AAu?$AAl?$AAt@ 000000014005e4d0     libucrtd:cfout.obj
 0002:00011524       ??_C@_06PGGFOGJG@1?$CDSNAN@ 000000014005e524     libucrtd:cfout.obj
 0002:00011530       ??_C@_1FC@KMLHLFPC@?$AAs?$AAt?$AAr?$AAc?$AAp?$AAy?$AA_?$AAs?$AA?$CI?$AAr?$AAe?$AAs?$AAu?$AAl?$AAt@ 000000014005e530     libucrtd:cfout.obj
 0002:00011584       ??_C@_05PHHOCPM@1?$CDIND@  000000014005e584     libucrtd:cfout.obj
 0002:00011590       ??_C@_1DE@KHKADFOO@?$AAm?$AAa?$AAn?$AAt?$AAi?$AAs?$AAs?$AAa?$AA_?$AAb?$AAu?$AAf?$AAf?$AAe?$AAr@ 000000014005e590     libucrtd:cfout.obj
 0002:000115d0       ??_C@_1FI@LFKLOPAC@?$AA?$CI?$AA?$CC?$AAu?$AAn?$AAe?$AAx?$AAp?$AAe?$AAc?$AAt?$AAe?$AAd?$AA?5?$AAi?$AAn@ 000000014005e5d0     libucrtd:cfout.obj
 0002:00011630       ??_C@_1FG@MLHBDPBG@?$AAq?$AAu?$AAo?$AAt?$AAi?$AAe?$AAn?$AAt?$AA?5?$AA?$DM?$AA?5?$AAd?$AAi?$AAg?$AAi@ 000000014005e630     libucrtd:cfout.obj
 0002:00011690       ??_C@_1EK@OANGPA@?$AA1?$AA?5?$AA?$DM?$AA?$DN?$AA?5?$AAt?$AAr?$AAa?$AAi?$AAl?$AA_?$AAb?$AAy?$AAt?$AAe@ 000000014005e690     libucrtd:c32rtomb.obj
 0002:000116e0       ??_C@_1GI@FBFKMNDD@?$AAm?$AAi?$AAn?$AAk?$AAe?$AAr?$AAn?$AAe?$AAl?$AA?2?$AAc?$AAr?$AAt?$AAs?$AA?2@ 000000014005e6e0     libucrtd:c32rtomb.obj
 0002:00011750       ??_C@_1EA@DDDCIHI@?$AAc?$AA3?$AA2?$AA?5?$AA?$DM?$AA?5?$AA?$CI?$AA1?$AAu?$AA?5?$AA?$DM?$AA?$DM?$AA?5?$AA?$CI?$AA7@ 000000014005e750     libucrtd:c32rtomb.obj
 0002:000117b8       ??_C@_1DI@OOEEHOBJ@?$AAb?$AAa?$AAs?$AAe?$AA?5?$AA?$CB?$AA?$DN?$AA?5?$AAn?$AAu?$AAl?$AAl?$AAp?$AAt?$AAr@ 000000014005e7b8     libucrtd:qsort.obj
 0002:000117f0       ??_C@_1GA@KPPCKKGE@?$AAm?$AAi?$AAn?$AAk?$AAe?$AAr?$AAn?$AAe?$AAl?$AA?2?$AAc?$AAr?$AAt?$AAs?$AA?2@ 000000014005e7f0     libucrtd:qsort.obj
 0002:00011850       ??_C@_1M@INMHODIG@?$AAq?$AAs?$AAo?$AAr?$AAt@ 000000014005e850     libucrtd:qsort.obj
 0002:00011860       ??_C@_1BE@NJBEBBME@?$AAw?$AAi?$AAd?$AAt?$AAh?$AA?5?$AA?$DO?$AA?5?$AA0@ 000000014005e860     libucrtd:qsort.obj
 0002:00011878       ??_C@_1CA@LIDFOMIN@?$AAc?$AAo?$AAm?$AAp?$AA?5?$AA?$CB?$AA?$DN?$AA?5?$AAn?$AAu?$AAl?$AAl?$AAp?$AAt?$AAr@ 000000014005e878     libucrtd:qsort.obj
 0002:00011898       ??_C@_1CE@BLLJFLOH@?$AAs?$AAt?$AAr?$AAi?$AAn?$AAg?$AA?5?$AA?$CB?$AA?$DN?$AA?5?$AAn?$AAu?$AAl?$AAl?$AAp@ 000000014005e898     libucrtd:mbsdec.obj
 0002:000118c0       ??_C@_1GO@DDOMFNGF@?$AAm?$AAi?$AAn?$AAk?$AAe?$AAr?$AAn?$AAe?$AAl?$AA?2?$AAc?$AAr?$AAt?$AAs?$AA?2@ 000000014005e8c0     libucrtd:mbsdec.obj
 0002:00011930       ??_C@_1BE@KLNCOLCD@?$AA_?$AAm?$AAb?$AAs?$AAd?$AAe?$AAc?$AA_?$AAl@ 000000014005e930     libucrtd:mbsdec.obj
 0002:00011948       ??_C@_1CG@CMGPGAOD@?$AAc?$AAu?$AAr?$AAr?$AAe?$AAn?$AAt?$AA?5?$AA?$CB?$AA?$DN?$AA?5?$AAn?$AAu?$AAl?$AAl@ 000000014005e948     libucrtd:mbsdec.obj
 0002:00011970       ??_C@_0DH@IKPCBLP@minkernel?2crts?2ucrt?2src?2appcrt?2@ 000000014005e970     libucrtd:lcmapstringa.obj
 0002:000119a8       ??_C@_1CI@CCKDLILB@?$AA_?$AAs?$AAt?$AAr?$AAi?$AAn?$AAg?$AA1?$AA?5?$AA?$CB?$AA?$DN?$AA?5?$AAn?$AAu?$AAl@ 000000014005e9a8     libucrtd:wcsnicol.obj
 0002:000119d0       ??_C@_1CI@NAPEFFEJ@?$AA_?$AAs?$AAt?$AAr?$AAi?$AAn?$AAg?$AA2?$AA?5?$AA?$CB?$AA?$DN?$AA?5?$AAn?$AAu?$AAl@ 000000014005e9d0     libucrtd:wcsnicol.obj
 0002:00011a00       ??_C@_1GG@LACFCIFA@?$AAm?$AAi?$AAn?$AAk?$AAe?$AAr?$AAn?$AAe?$AAl?$AA?2?$AAc?$AAr?$AAt?$AAs?$AA?2@ 000000014005ea00     libucrtd:strnicol.obj
 0002:00011a68       ??_C@_1BK@IOJEBPLP@?$AA_?$AAs?$AAt?$AAr?$AAn?$AAi?$AAc?$AAo?$AAl?$AAl?$AA_?$AAl@ 000000014005ea68     libucrtd:strnicol.obj
 0002:00011a90       ??_C@_1GA@HBEFGMHK@?$AAm?$AAi?$AAn?$AAk?$AAe?$AAr?$AAn?$AAe?$AAl?$AA?2?$AAc?$AAr?$AAt?$AAs?$AA?2@ 000000014005ea90     libucrtd:xtoa.obj
 0002:00011af0       ??_C@_1BM@HMPEMLNP@?$AAc?$AAo?$AAm?$AAm?$AAo?$AAn?$AA_?$AAx?$AAt?$AAo?$AAx?$AA_?$AAs@ 000000014005eaf0     libucrtd:xtoa.obj
 0002:00011b10       ??_C@_1HA@JFIOFNKD@?$AAb?$AAu?$AAf?$AAf?$AAe?$AAr?$AA_?$AAc?$AAo?$AAu?$AAn?$AAt?$AA?5?$AA?$DO?$AA?5@ 000000014005eb10     libucrtd:xtoa.obj
 0002:00011b80       ??_C@_1DE@PCJGDBBD@?$AA2?$AA?5?$AA?$DM?$AA?$DN?$AA?5?$AAr?$AAa?$AAd?$AAi?$AAx?$AA?5?$AA?$CG?$AA?$CG?$AA?5?$AAr@ 000000014005eb80     libucrtd:xtoa.obj
 0002:00011bb8       ??_C@_1CM@LONILNIJ@?$AAl?$AAe?$AAn?$AAg?$AAt?$AAh?$AA?5?$AA?$DM?$AA?5?$AAb?$AAu?$AAf?$AAf?$AAe?$AAr@ 000000014005ebb8     libucrtd:xtoa.obj
 0002:00011be8       ??_C@_1BI@OLPLFKOE@?$AAc?$AAo?$AAm?$AAm?$AAo?$AAn?$AA_?$AAx?$AAt?$AAo?$AAx@ 000000014005ebe8     libucrtd:xtoa.obj
 0002:00011c28       ??_C@_1BK@FPAMLIDG@?$AAs?$AA?5?$AA?$CB?$AA?$DN?$AA?5?$AAn?$AAu?$AAl?$AAl?$AAp?$AAt?$AAr@ 000000014005ec28     libucrtd:mbstowcs.obj
 0002:00011c50       ??_C@_1GI@KABMHNPH@?$AAm?$AAi?$AAn?$AAk?$AAe?$AAr?$AAn?$AAe?$AAl?$AA?2?$AAc?$AAr?$AAt?$AAs?$AA?2@ 000000014005ec50     libucrtd:mbstowcs.obj
 0002:00011cb8       ??_C@_1CG@JEHFHLNG@?$AA_?$AAm?$AAb?$AAs?$AAt?$AAo?$AAw?$AAc?$AAs?$AA_?$AAl?$AA_?$AAh?$AAe?$AAl@ 000000014005ecb8     libucrtd:mbstowcs.obj
 0002:00011ce0       ??_C@_1JM@MEKBACIG@?$AA?$CI?$AAp?$AAw?$AAc?$AAs?$AA?5?$AA?$DN?$AA?$DN?$AA?5?$AAn?$AAu?$AAl?$AAl?$AAp?$AAt@ 000000014005ece0     libucrtd:mbstowcs.obj
 0002:00011d80       ??_C@_1CG@BILJJDPK@?$AA_?$AAm?$AAb?$AAs?$AAt?$AAo?$AAw?$AAc?$AAs?$AA_?$AAi?$AAn?$AAt?$AAe?$AAr@ 000000014005ed80     libucrtd:mbstowcs.obj
 0002:00011da8       ??_C@_1CM@LLECFMFH@?$AAb?$AAu?$AAf?$AAf?$AAe?$AAr?$AAS?$AAi?$AAz?$AAe?$AA?5?$AA?$DM?$AA?$DN?$AA?5?$AAI@ 000000014005eda8     libucrtd:mbstowcs.obj
 0002:00011dd8       ??_C@_1CO@JNPEPJAL@?$AAr?$AAe?$AAt?$AAs?$AAi?$AAz?$AAe?$AA?5?$AA?$DM?$AA?$DN?$AA?5?$AAs?$AAi?$AAz?$AAe@ 000000014005edd8     libucrtd:mbstowcs.obj
 0002:00011e08       ??_C@_1CA@NOKNKDIG@?$AAp?$AAw?$AAc?$AAs?$AA?5?$AA?$CB?$AA?$DN?$AA?5?$AAn?$AAu?$AAl?$AAl?$AAp?$AAt?$AAr@ 000000014005ee08     libucrtd:wcstombs.obj
 0002:00011e30       ??_C@_1GI@EEJDEALP@?$AAm?$AAi?$AAn?$AAk?$AAe?$AAr?$AAn?$AAe?$AAl?$AA?2?$AAc?$AAr?$AAt?$AAs?$AA?2@ 000000014005ee30     libucrtd:wcstombs.obj
 0002:00011e98       ??_C@_1CG@LLJCAOHF@?$AA_?$AAw?$AAc?$AAs?$AAt?$AAo?$AAm?$AAb?$AAs?$AA_?$AAl?$AA_?$AAh?$AAe?$AAl@ 000000014005ee98     libucrtd:wcstombs.obj
 0002:00011ec0       ??_C@_1JI@DFNKFCLG@?$AA?$CI?$AAd?$AAs?$AAt?$AA?5?$AA?$CB?$AA?$DN?$AA?5?$AAn?$AAu?$AAl?$AAl?$AAp?$AAt?$AAr@ 000000014005eec0     libucrtd:wcstombs.obj
 0002:00011f58       ??_C@_1CG@DHFOOGFJ@?$AA_?$AAw?$AAc?$AAs?$AAt?$AAo?$AAm?$AAb?$AAs?$AA_?$AAi?$AAn?$AAt?$AAe?$AAr@ 000000014005ef58     libucrtd:wcstombs.obj
 0002:00011f80       ??_C@_1CM@KEOGBFLI@?$AAs?$AAi?$AAz?$AAe?$AAI?$AAn?$AAB?$AAy?$AAt?$AAe?$AAs?$AA?5?$AA?$DO?$AA?5?$AAr@ 000000014005ef80     libucrtd:wcstombs.obj
 0002:00011fb0       ??_C@_0DA@IEKPAGFB@minkernel?2crts?2ucrt?2src?2appcrt?2@ 000000014005efb0     libucrtd:chsize.obj
 0002:00012008       ??_C@_1BA@BALFACEM@?$AAC?$AAO?$AAN?$AAO?$AAU?$AAT?$AA$@ 000000014005f008     libucrtd:initcon.obj
 0002:00012270       __real@3ff0000000000000    000000014005f270     libucrtd:ceil.obj
 0002:00012278       ??_C@_1DG@JNDMIEJL@?$AA?$CI?$AA?$CC?$AAI?$AAn?$AAv?$AAa?$AAl?$AAi?$AAd?$AA?5?$AAi?$AAn?$AAp?$AAu?$AAt@ 000000014005f278     libucrtd:contrlfp.obj
 0002:000122b0       ??_C@_1FO@HHLKCIKB@?$AAm?$AAi?$AAn?$AAk?$AAe?$AAr?$AAn?$AAe?$AAl?$AA?2?$AAc?$AAr?$AAt?$AAs?$AA?2@ 000000014005f2b0     libucrtd:contrlfp.obj
 0002:00012310       ??_C@_1BK@CDOALEA@?$AA_?$AAc?$AAo?$AAn?$AAt?$AAr?$AAo?$AAl?$AAf?$AAp?$AA_?$AAs@ 000000014005f310     libucrtd:contrlfp.obj
 0002:00012330       ??_C@_1HK@ELDMAMK@?$AAc?$AAc?$AAh?$AAC?$AAo?$AAu?$AAn?$AAt?$AA1?$AA?$DN?$AA?$DN?$AA0?$AA?5?$AA?$CG?$AA?$CG@ 000000014005f330     libucrtd:comparestringa.obj
 0002:000123b0       ??_C@_1HC@NLKDIKED@?$AAm?$AAi?$AAn?$AAk?$AAe?$AAr?$AAn?$AAe?$AAl?$AA?2?$AAc?$AAr?$AAt?$AAs?$AA?2@ 000000014005f3b0     libucrtd:comparestringa.obj
 0002:00012428       ??_C@_0DJ@MBLHFEOE@minkernel?2crts?2ucrt?2src?2appcrt?2@ 000000014005f428     libucrtd:comparestringa.obj
 0002:00012470       __log10_256_lead           000000014005f470     libucrtd:log10_256_lead_tail_table.obj
 0002:00012c80       __log10_256_tail           000000014005fc80     libucrtd:log10_256_lead_tail_table.obj
 0002:00013490       __log_F_inv_qword          0000000140060490     libucrtd:log_f_inv_qword_table.obj
 0002:00013ca0       ??_C@_05HGHHAHAP@log10@    0000000140060ca0     libucrtd:log_special.obj
 0002:00013cb0       ??_C@_1EK@PDBKILLM@?$AA?$CI?$AAm?$AAa?$AAs?$AAk?$AA?$CG?$AA?$HO?$AA?$CI?$AA_?$AAM?$AAC?$AAW?$AA_?$AAD?$AAN@ 0000000140060cb0     libucrtd:ieee.obj
 0002:00013d00       ??_C@_1GC@IEFABLII@?$AAm?$AAi?$AAn?$AAk?$AAe?$AAr?$AAn?$AAe?$AAl?$AA?2?$AAc?$AAr?$AAt?$AAs?$AA?2@ 0000000140060d00     libucrtd:ieee.obj
 0002:00013d88       ??_7type_info@@6B@         0000000140060d88     LIBCMTD:std_type_info_static.obj
 0002:00013d90       __xmm@00000000000000000000000000000000 0000000140060d90     libvcruntimed:strrchr.obj
 0002:00013da0       _load_config_used          0000000140060da0     LIBCMTD:loadcfg.obj
 0002:00013f80       ??_R4exception@std@@6B@    0000000140060f80     libvcruntimed:frame.obj
 0002:00013fa8       ??_R3exception@std@@8      0000000140060fa8     libvcruntimed:frame.obj
 0002:00013fc0       ??_R2exception@std@@8      0000000140060fc0     libvcruntimed:frame.obj
 0002:00013fd0       ??_R1A@?0A@EA@exception@std@@8 0000000140060fd0     libvcruntimed:frame.obj
 0002:00013ff8       ??_R4bad_exception@std@@6B@ 0000000140060ff8     libvcruntimed:frame.obj
 0002:00014020       ??_R3bad_exception@std@@8  0000000140061020     libvcruntimed:frame.obj
 0002:00014038       ??_R2bad_exception@std@@8  0000000140061038     libvcruntimed:frame.obj
 0002:00014050       ??_R1A@?0A@EA@bad_exception@std@@8 0000000140061050     libvcruntimed:frame.obj
 0002:00014078       ??_R4type_info@@6B@        0000000140061078     LIBCMTD:std_type_info_static.obj
 0002:000140a0       ??_R3type_info@@8          00000001400610a0     LIBCMTD:std_type_info_static.obj
 0002:000140b8       ??_R2type_info@@8          00000001400610b8     LIBCMTD:std_type_info_static.obj
 0002:000140c8       ??_R1A@?0A@EA@type_info@@8 00000001400610c8     LIBCMTD:std_type_info_static.obj
 0002:000140ec       __volatile_metadata        00000001400610ec     <linker-defined>
 0002:00014528       __rtc_iaa                  0000000140061528     LIBCMTD:initsect.obj
 0002:00014530       __rtc_izz                  0000000140061530     LIBCMTD:initsect.obj
 0002:00014538       __rtc_taa                  0000000140061538     LIBCMTD:initsect.obj
 0002:00014540       __rtc_tzz                  0000000140061540     LIBCMTD:initsect.obj
 0002:00015a80       _TI2?AVbad_exception@std@@ 0000000140062a80     libvcruntimed:frame.obj
 0002:00015aa0       _CTA2?AVbad_exception@std@@ 0000000140062aa0     libvcruntimed:frame.obj
 0002:00015ab8       _CT??_R0?AVbad_exception@std@@@8??0bad_exception@std@@QEAA@AEBV01@@Z24 0000000140062ab8     libvcruntimed:frame.obj
 0002:00015ae0       _CT??_R0?AVexception@std@@@8??0exception@std@@QEAA@AEBV01@@Z24 0000000140062ae0     libvcruntimed:frame.obj
 0002:00015b04       __IMPORT_DESCRIPTOR_KERNEL32 0000000140062b04     kernel32:KERNEL32.dll
 0002:00015b18       __NULL_IMPORT_DESCRIPTOR   0000000140062b18     kernel32:KERNEL32.dll
 0003:00000000       __scrt_native_dllmain_reason 0000000140064000     LIBCMTD:utility.obj
 0003:00000004       __scrt_default_matherr     0000000140064004     LIBCMTD:matherr.obj
 0003:00000008       __isa_available            0000000140064008     LIBCMTD:cpu_disp.obj
 0003:0000000c       __isa_enabled              000000014006400c     LIBCMTD:cpu_disp.obj
 0003:00000010       __memset_fast_string_threshold 0000000140064010     LIBCMTD:cpu_disp.obj
 0003:00000018       __memset_nt_threshold      0000000140064018     LIBCMTD:cpu_disp.obj
 0003:00000020       __security_cookie_complement 0000000140064020     LIBCMTD:gs_cookie.obj
 0003:00000028       __security_cookie          0000000140064028     LIBCMTD:gs_cookie.obj
 0003:00000040       _iob                       0000000140064040     libucrtd:_file.obj
 0003:0000014c       _crtDbgFlag                000000014006414c     libucrtd:debug_heap.obj
 0003:00000150       _crtBreakAlloc             0000000140064150     libucrtd:debug_heap.obj
 0003:00000160       __abort_behavior           0000000140064160     libucrtd:abort.obj
 0003:00000180       __badioinfo                0000000140064180     libucrtd:ioinit.obj
 0003:000001d0       __acrt_initial_locale_data 00000001400641d0     libucrtd:nlsdata.obj
 0003:00000328       __acrt_initial_locale_pointers 0000000140064328     libucrtd:nlsdata.obj
 0003:00000338       __acrt_wide_c_locale_string 0000000140064338     libucrtd:nlsdata.obj
 0003:00000340       _lookuptrailbytes          0000000140064340     libucrtd:read.obj
 0003:00000450       __acrt_initial_multibyte_data 0000000140064450     libucrtd:mbctype.obj
 0003:00000990       __acrt_lconv_c             0000000140064990     libucrtd:localeconv.obj
 0003:00000a28       __acrt_lconv_static_decimal 0000000140064a28     libucrtd:localeconv.obj
 0003:00000a2c       __acrt_lconv_static_W_decimal 0000000140064a2c     libucrtd:localeconv.obj
 0003:00000a30       __globallocalestatus       0000000140064a30     libucrtd:glstatus.obj
 0003:00000a38       _pfnAllocHook              0000000140064a38     libucrtd:debug_heap_hook.obj
 0003:00000a40       _crtAssertBusy             0000000140064a40     libucrtd:dbgrptt.obj
 0003:00000a48       _CrtDbgMode                0000000140064a48     libucrtd:dbgrptt.obj
 0003:00000a58       _CrtDbgFile                0000000140064a58     libucrtd:dbgrptt.obj
 0003:00000a90       _fltused                   0000000140064a90     LIBCMTD:fltused.obj
 0003:00000aa0       ??_R0?AVbad_exception@std@@@8 0000000140064aa0     libvcruntimed:frame.obj
 0003:00000ac8       ??_R0?AVexception@std@@@8  0000000140064ac8     libvcruntimed:frame.obj
 0003:00000af0       ??_R0?AVtype_info@@@8      0000000140064af0     LIBCMTD:std_type_info_static.obj
 0003:00000b10       ?_OptionsStorage@?1??__local_stdio_printf_options@@9@4_KA 0000000140064b10     wav.obj
 0003:00000b18       __scrt_current_native_startup_state 0000000140064b18     LIBCMTD:utility.obj
 0003:00000b20       __scrt_native_startup_lock 0000000140064b20     LIBCMTD:utility.obj
 0003:00000b60       ?__type_info_root_node@@3U__type_info_node@@A 0000000140064b60     LIBCMTD:tncleanup.obj
 0003:00000b70       ?_OptionsStorage@?1??__local_stdio_scanf_options@@9@4_KA 0000000140064b70     LIBCMTD:default_local_stdio_options.obj
 0003:00000b78       __scrt_debugger_hook_flag  0000000140064b78     LIBCMTD:utility_desktop.obj
 0003:00000b7c       __favor                    0000000140064b7c     LIBCMTD:cpu_disp.obj
 0003:000010f0       ?__WinRTOutOfMemoryExceptionCallback@@3P6APEAXXZEA 00000001400650f0     libvcruntimed:ehhelpers.obj
 0003:000011b0       ?pArgList@UnDecorator@@0PEAVReplicator@@EA 00000001400651b0     libvcruntimed:undname.obj
 0003:000011b8       ?pZNameList@UnDecorator@@0PEAVReplicator@@EA 00000001400651b8     libvcruntimed:undname.obj
 0003:000011c0       ?pTemplateArgList@UnDecorator@@0PEAVReplicator@@EA 00000001400651c0     libvcruntimed:undname.obj
 0003:000011c8       ?gName@UnDecorator@@0PEBDEB 00000001400651c8     libvcruntimed:undname.obj
 0003:000011d0       ?name@UnDecorator@@0PEBDEB 00000001400651d0     libvcruntimed:undname.obj
 0003:000011d8       ?disableFlags@UnDecorator@@0KA 00000001400651d8     libvcruntimed:undname.obj
 0003:000011dc       ?fExplicitTemplateParams@UnDecorator@@0_NA 00000001400651dc     libvcruntimed:undname.obj
 0003:000011dd       ?fGetTemplateArgumentList@UnDecorator@@0_NA 00000001400651dd     libvcruntimed:undname.obj
 0003:000011e0       ?m_pGetParameter@UnDecorator@@0P6APEADJ@ZEA 00000001400651e0     libvcruntimed:undname.obj
 0003:000011e8       ?m_CHPENameOffset@UnDecorator@@0KA 00000001400651e8     libvcruntimed:undname.obj
 0003:000011ec       ?m_recursionLevel@UnDecorator@@0KA 00000001400651ec     libvcruntimed:undname.obj
 0003:00001258       __pPurecall                0000000140065258     libvcruntimed:purevirt_data.obj
 0003:00001260       _nstream                   0000000140065260     libucrtd:_file.obj
 0003:00001268       __piob                     0000000140065268     libucrtd:_file.obj
 0003:00001270       _cflush                    0000000140065270     libucrtd:_file.obj
 0003:000019b8       _environ_table             00000001400659b8     libucrtd:environment_initialization.obj
 0003:000019c0       _wenviron_table            00000001400659c0     libucrtd:environment_initialization.obj
 0003:000019c8       __dcrt_initial_wide_environment 00000001400659c8     libucrtd:environment_initialization.obj
 0003:000019d0       __dcrt_initial_narrow_environment 00000001400659d0     libucrtd:environment_initialization.obj
 0003:000019e8       ?c_exit_complete@?1???R<lambda_6e4b09c48022b2350581041d5f6b0c4c>@@QEBA@XZ@4_NA 00000001400659e8     libucrtd:exit.obj
 0003:000019f0       _pgmptr                    00000001400659f0     libucrtd:argv_data.obj
 0003:000019f8       __argc                     00000001400659f8     libucrtd:argv_data.obj
 0003:00001a00       __argv                     0000000140065a00     libucrtd:argv_data.obj
 0003:00001a08       __wargv                    0000000140065a08     libucrtd:argv_data.obj
 0003:00001a10       _acmdln                    0000000140065a10     libucrtd:argv_data.obj
 0003:00001a18       _wcmdln                    0000000140065a18     libucrtd:argv_data.obj
 0003:00001a20       __acrt_locale_changed_data 0000000140065a20     libucrtd:wsetlocale.obj
 0003:00001a28       _commode                   0000000140065a28     libucrtd:ncommode.obj
 0003:00001a30       __acrt_atexit_table        0000000140065a30     libucrtd:onexit.obj
 0003:00001a48       __acrt_at_quick_exit_table 0000000140065a48     libucrtd:onexit.obj
 0003:00001a90       _pfnDumpClient             0000000140065a90     libucrtd:debug_heap.obj
 0003:00001c40       __pioinfo                  0000000140065c40     libucrtd:ioinit.obj
 0003:00002040       _nhandle                   0000000140066040     libucrtd:ioinit.obj
 0003:00002048       __acrt_current_locale_data 0000000140066048     libucrtd:nlsdata.obj
 0003:00002050       __acrt_stdout_buffer       0000000140066050     libucrtd:_sftbuf.obj
 0003:00002058       __acrt_stderr_buffer       0000000140066058     libucrtd:_sftbuf.obj
 0003:00002078       _mbctype                   0000000140066078     libucrtd:mbctype.obj
 0003:00002080       _mbcasemap                 0000000140066080     libucrtd:mbctype.obj
 0003:00002088       __acrt_current_multibyte_data 0000000140066088     libucrtd:mbctype.obj
 0003:000022dc       _fmode                     00000001400662dc     libucrtd:txtmode.obj
 0003:000022e0       __acrt_lconv_static_null   00000001400662e0     libucrtd:localeconv.obj
 0003:000022e4       __acrt_lconv_static_W_null 00000001400662e4     libucrtd:localeconv.obj
 0003:000022e8       __acrt_heap                00000001400662e8     libucrtd:heap_handle.obj
 0003:00002318       _pfnReportHook             0000000140066318     libucrtd:dbgrptt.obj
 0003:00002320       _pReportHookList           0000000140066320     libucrtd:dbgrptt.obj
 0003:00002328       _pReportHookListW          0000000140066328     libucrtd:dbgrptt.obj
 0003:00002330       _umaskval                  0000000140066330     libucrtd:umask.obj
 0003:00002340       __fma3_is_available        0000000140066340     libucrtd:fma3_available.obj
 0003:00002344       __use_fma3_lib             0000000140066344     libucrtd:fma3_available.obj
 0003:00002350       __scrt_ucrt_dll_is_in_use  0000000140066350     <common>
 0003:00002358       __dyn_tls_dtor_callback    0000000140066358     <common>
 0003:00002360       __dyn_tls_init_callback    0000000140066360     <common>

 entry point at        0001:00000b10

 Static symbols

 0000:fff93000       .debug$S                   0000000140000000     kernel32:KERNEL32.dll
 0000:fff93000       .debug$S                   0000000140000000     kernel32:KERNEL32.dll
 0000:fff93000       .debug$S                   0000000140000000     kernel32:KERNEL32.dll
 0000:fff93000       .debug$S                   0000000140000000     kernel32:KERNEL32.dll
 0000:fff93000       .debug$S                   0000000140000000     kernel32:KERNEL32.dll
 0000:fff93000       .debug$S                   0000000140000000     kernel32:KERNEL32.dll
 0000:fff93000       .debug$S                   0000000140000000     kernel32:KERNEL32.dll
 0000:fff93000       .debug$S                   0000000140000000     kernel32:KERNEL32.dll
 0000:fff93000       .debug$S                   0000000140000000     kernel32:KERNEL32.dll
 0000:fff93000       .debug$S                   0000000140000000     kernel32:KERNEL32.dll
 0000:fff93000       .debug$S                   0000000140000000     kernel32:KERNEL32.dll
 0000:fff93000       .debug$S                   0000000140000000     kernel32:KERNEL32.dll
 0000:fff93000       .debug$S                   0000000140000000     kernel32:KERNEL32.dll
 0000:fff93000       .debug$S                   0000000140000000     kernel32:KERNEL32.dll
 0000:fff93000       .debug$S                   0000000140000000     kernel32:KERNEL32.dll
 0000:fff93000       .debug$S                   0000000140000000     kernel32:KERNEL32.dll
 0000:fff93000       .debug$S                   0000000140000000     kernel32:KERNEL32.dll
 0000:fff93000       .debug$S                   0000000140000000     kernel32:KERNEL32.dll
 0000:fff93000       .debug$S                   0000000140000000     kernel32:KERNEL32.dll
 0000:fff93000       .debug$S                   0000000140000000     kernel32:KERNEL32.dll
 0000:fff93000       .debug$S                   0000000140000000     kernel32:KERNEL32.dll
 0000:fff93000       .debug$S                   0000000140000000     kernel32:KERNEL32.dll
 0000:fff93000       .debug$S                   0000000140000000     kernel32:KERNEL32.dll
 0000:fff93000       .debug$S                   0000000140000000     kernel32:KERNEL32.dll
 0000:fff93000       .debug$S                   0000000140000000     kernel32:KERNEL32.dll
 0000:fff93000       .debug$S                   0000000140000000     kernel32:KERNEL32.dll
 0000:fff93000       .debug$S                   0000000140000000     kernel32:KERNEL32.dll
 0000:fff93000       .debug$S                   0000000140000000     kernel32:KERNEL32.dll
 0000:fff93000       .debug$S                   0000000140000000     kernel32:KERNEL32.dll
 0000:fff93000       .debug$S                   0000000140000000     kernel32:KERNEL32.dll
 0000:fff93000       .debug$S                   0000000140000000     kernel32:KERNEL32.dll
 0000:fff93000       .debug$S                   0000000140000000     kernel32:KERNEL32.dll
 0000:fff93000       .debug$S                   0000000140000000     kernel32:KERNEL32.dll
 0000:fff93000       .debug$S                   0000000140000000     kernel32:KERNEL32.dll
 0000:fff93000       .debug$S                   0000000140000000     kernel32:KERNEL32.dll
 0000:fff93000       .debug$S                   0000000140000000     kernel32:KERNEL32.dll
 0000:fff93000       .debug$S                   0000000140000000     kernel32:KERNEL32.dll
 0000:fff93000       .debug$S                   0000000140000000     kernel32:KERNEL32.dll
 0000:fff93000       .debug$S                   0000000140000000     kernel32:KERNEL32.dll
 0000:fff93000       .debug$S                   0000000140000000     kernel32:KERNEL32.dll
 0000:fff93000       .debug$S                   0000000140000000     kernel32:KERNEL32.dll
 0000:fff93000       .debug$S                   0000000140000000     kernel32:KERNEL32.dll
 0000:fff93000       .debug$S                   0000000140000000     kernel32:KERNEL32.dll
 0000:fff93000       .debug$S                   0000000140000000     kernel32:KERNEL32.dll
 0000:fff93000       .debug$S                   0000000140000000     kernel32:KERNEL32.dll
 0000:fff93000       .debug$S                   0000000140000000     kernel32:KERNEL32.dll
 0000:fff93000       .debug$S                   0000000140000000     kernel32:KERNEL32.dll
 0000:fff93000       .debug$S                   0000000140000000     kernel32:KERNEL32.dll
 0000:fff93000       .debug$S                   0000000140000000     kernel32:KERNEL32.dll
 0000:fff93000       .debug$S                   0000000140000000     kernel32:KERNEL32.dll
 0000:fff93000       .debug$S                   0000000140000000     kernel32:KERNEL32.dll
 0000:fff93000       .debug$S                   0000000140000000     kernel32:KERNEL32.dll
 0000:fff93000       .debug$S                   0000000140000000     kernel32:KERNEL32.dll
 0000:fff93000       .debug$S                   0000000140000000     kernel32:KERNEL32.dll
 0000:fff93000       .debug$S                   0000000140000000     kernel32:KERNEL32.dll
 0000:fff93000       .debug$S                   0000000140000000     kernel32:KERNEL32.dll
 0000:fff93000       .debug$S                   0000000140000000     kernel32:KERNEL32.dll
 0000:fff93000       .debug$S                   0000000140000000     kernel32:KERNEL32.dll
 0000:fff93000       .debug$S                   0000000140000000     kernel32:KERNEL32.dll
 0000:fff93000       .debug$S                   0000000140000000     kernel32:KERNEL32.dll
 0000:fff93000       .debug$S                   0000000140000000     kernel32:KERNEL32.dll
 0000:fff93000       .debug$S                   0000000140000000     kernel32:KERNEL32.dll
 0000:fff93000       .debug$S                   0000000140000000     kernel32:KERNEL32.dll
 0000:fff93000       .debug$S                   0000000140000000     kernel32:KERNEL32.dll
 0000:fff93000       .debug$S                   0000000140000000     kernel32:KERNEL32.dll
 0000:fff93000       .debug$S                   0000000140000000     kernel32:KERNEL32.dll
 0000:fff93000       .debug$S                   0000000140000000     kernel32:KERNEL32.dll
 0000:fff93000       .debug$S                   0000000140000000     kernel32:KERNEL32.dll
 0000:fff93000       .debug$S                   0000000140000000     kernel32:KERNEL32.dll
 0000:fff93000       .debug$S                   0000000140000000     kernel32:KERNEL32.dll
 0000:fff93000       .debug$S                   0000000140000000     kernel32:KERNEL32.dll
 0000:fff93000       .debug$S                   0000000140000000     kernel32:KERNEL32.dll
 0000:fff93000       .debug$S                   0000000140000000     kernel32:KERNEL32.dll
 0000:fff93000       .debug$S                   0000000140000000     kernel32:KERNEL32.dll
 0000:fff93000       .debug$S                   0000000140000000     kernel32:KERNEL32.dll
 0000:fff93000       .debug$S                   0000000140000000     kernel32:KERNEL32.dll
 0000:fff93000       .debug$S                   0000000140000000     kernel32:KERNEL32.dll
 0000:fff93000       .debug$S                   0000000140000000     kernel32:KERNEL32.dll
 0000:fff93000       .debug$S                   0000000140000000     kernel32:KERNEL32.dll
 0000:fff93000       .debug$S                   0000000140000000     kernel32:KERNEL32.dll
 0000:fff93000       .debug$S                   0000000140000000     kernel32:KERNEL32.dll
 0000:fff93000       .debug$S                   0000000140000000     kernel32:KERNEL32.dll
 0000:fff93000       .debug$S                   0000000140000000     kernel32:KERNEL32.dll
 0000:fff93000       .debug$S                   0000000140000000     kernel32:KERNEL32.dll
 0000:fff93000       .debug$S                   0000000140000000     kernel32:KERNEL32.dll
 0000:fff93000       .debug$S                   0000000140000000     kernel32:KERNEL32.dll
 0000:fff93000       .debug$S                   0000000140000000     kernel32:KERNEL32.dll
 0000:fff93000       .debug$S                   0000000140000000     kernel32:KERNEL32.dll
 0000:fff93000       .debug$S                   0000000140000000     kernel32:KERNEL32.dll
 0000:fff93000       .debug$S                   0000000140000000     kernel32:KERNEL32.dll
 0000:fff93000       .debug$S                   0000000140000000     kernel32:KERNEL32.dll
 0000:fff93000       .debug$S                   0000000140000000     kernel32:KERNEL32.dll
 0001:00000790       ?pre_c_initialization@@YAHXZ 0000000140001790 f   LIBCMTD:exe_main.obj
 0001:00000850       ?post_pgo_initialization@@YAHXZ 0000000140001850 f   LIBCMTD:exe_main.obj
 0001:00000860       ?pre_cpp_initialization@@YAXXZ 0000000140001860 f   LIBCMTD:exe_main.obj
 0001:00000880       ?__scrt_common_main@@YAHXZ 0000000140001880 f   LIBCMTD:exe_main.obj
 0001:000008a0       ?__scrt_common_main_seh@@YAHXZ 00000001400018a0 f   LIBCMTD:exe_main.obj
 0001:00000a70       ?invoke_main@@YAHXZ        0000000140001a70 f   LIBCMTD:exe_main.obj
 0001:00000b30       ?find_pe_section@@YAPEAU_IMAGE_SECTION_HEADER@@QEAE_K@Z 0000000140001b30 f   LIBCMTD:utility.obj
 0001:00000c00       ?is_potentially_valid_image_base@@YA_NQEAX@Z 0000000140001c00 f   LIBCMTD:utility.obj
 0001:00001030       __get_entropy              0000000140002030 f   LIBCMTD:gs_support.obj
 0001:00001190       ?get_invalid_value@environment_strings_traits@?A0x1bf47908@@SAPEA_WXZ 0000000140002190 f   libucrtd:get_environment_from_os.obj
 0001:000011d0       initialize_environment     00000001400021d0 f   libucrtd:initialization.obj
 0001:000011d0       initialize_global_state_isolation 00000001400021d0 f   libucrtd:initialization.obj
 0001:000011e0       init_memcpy_functions      00000001400021e0 f   libvcruntimed:initialization.obj
 0001:00001c20       $$000000                   0000000140002c20     LIBCMTD:amdsecgs.obj
 0001:00001e30       ?capture_current_context@@YAXQEAU_CONTEXT@@@Z 0000000140002e30 f   libucrtd:invalid_parameter.obj
 0001:00001e30       capture_current_context    0000000140002e30 f   LIBCMTD:gs_report.obj
 0001:00001ed0       capture_previous_context   0000000140002ed0 f   LIBCMTD:gs_report.obj
 0001:00002490       ??0?$__crt_unique_handle_t@Uenvironment_strings_traits@?A0x1bf47908@@@@QEAA@QEA_W@Z 0000000140003490 f i libucrtd:get_environment_from_os.obj
 0001:00002490       ??0<lambda_8d0ee55de4b1038c4002e0adecdf1839>@@QEAA@AEBQEAU__acrt_ptd@@@Z 0000000140003490 f i libucrtd:per_thread_data.obj
 0001:00002490       ??0<lambda_8f455de75cd7d7f24b4096f044d8b9e6>@@QEAA@AEBQEAU__acrt_ptd@@@Z 0000000140003490 f i libucrtd:per_thread_data.obj
 0001:00002490       ??0<lambda_e157831efee4ea0afb0a2ace5dd5fd0d>@@QEAA@AEBQEAU__acrt_ptd@@@Z 0000000140003490 f i libucrtd:per_thread_data.obj
 0001:00002490       ??0<lambda_3e4146214822e0ea86c47ff907aef2ff>@@QEAA@AEBH@Z 0000000140003490 f i libucrtd:commit.obj
 0001:00002490       ??0<lambda_df1553121bfa390f1154bd84936f2730>@@QEAA@AEAV?$__crt_unique_heap_ptr@PEADU__crt_internal_free_policy@@@@@Z 0000000140003490 f i libucrtd:argv_parsing.obj
 0001:00002490       ??0<lambda_d121dba8a4adeaf3a9819e48611155df>@@QEAA@AEBQEAU_onexit_table_t@@@Z 0000000140003490 f i libucrtd:onexit.obj
 0001:00002510       ?get@?$__crt_unique_handle_t@Uenvironment_strings_traits@?A0x1bf47908@@@@QEBAPEA_WXZ 0000000140003510 f i libucrtd:get_environment_from_os.obj
 0001:00002510       ?begin@?$argument_list@D@?A0x5f5c8891@@QEBAPEAPEADXZ 0000000140003510 f i libucrtd:argv_wildcards.obj
 0001:000026f0       ?_FilterSetCurrentException@@YAKPEAU_EXCEPTION_POINTERS@@E@Z 00000001400036f0 f   libvcruntimed:ehhelpers.obj
 0001:00002950       $$000000                   0000000140003950     libvcruntimed:notify.obj
 0001:00002a00       ??0scoped_get_last_error_reset@?A0xf875a351@@QEAA@XZ 0000000140003a00 f   libvcruntimed:per_thread_data.obj
 0001:00002a20       ??1scoped_get_last_error_reset@?A0xf875a351@@QEAA@XZ 0000000140003a20 f   libvcruntimed:per_thread_data.obj
 0001:00002a70       ?store_and_initialize_ptd@@YA_NQEAU__vcrt_ptd@@@Z 0000000140003a70 f   libvcruntimed:per_thread_data.obj
 0001:00002f20       ?invalid_function_sentinel@@YAPEAXXZ 0000000140003f20 f   libucrtd:winapi_thunks.obj
 0001:00002f20       ?invalid_function_sentinel@@YAPEAXXZ 0000000140003f20 f   libvcruntimed:winapi_downlevel.obj
 0001:00002f30       ?try_get_FlsAlloc@@YAP6AKP6AXPEAX@Z@ZXZ 0000000140003f30 f   libvcruntimed:winapi_downlevel.obj
 0001:00002f60       ?try_get_FlsFree@@YAP6AHK@ZXZ 0000000140003f60 f   libvcruntimed:winapi_downlevel.obj
 0001:00002f90       ?try_get_FlsGetValue@@YAP6APEAXK@ZXZ 0000000140003f90 f   libvcruntimed:winapi_downlevel.obj
 0001:00002fc0       ?try_get_FlsSetValue@@YAP6AHKPEAX@ZXZ 0000000140003fc0 f   libvcruntimed:winapi_downlevel.obj
 0001:00002ff0       ?try_get_InitializeCriticalSectionEx@@YAP6AHPEAU_RTL_CRITICAL_SECTION@@KK@ZXZ 0000000140003ff0 f   libvcruntimed:winapi_downlevel.obj
 0001:00003020       ?try_get_first_available_module@@YAPEAUHINSTANCE__@@QEBW4module_id@?A0x14174aea@@0@Z 0000000140004020 f   libvcruntimed:winapi_downlevel.obj
 0001:00003080       ?try_get_function@@YAPEAXW4function_id@?A0x14174aea@@QEBDQEBW4module_id@2@2@Z 0000000140004080 f   libvcruntimed:winapi_downlevel.obj
 0001:000031f0       ?try_get_module@@YAPEAUHINSTANCE__@@W4module_id@?A0x14174aea@@@Z 00000001400041f0 f   libvcruntimed:winapi_downlevel.obj
 0001:00003350       ?try_get_proc_address_from_first_available_module@@YAPEAXQEBDQEBW4module_id@?A0x14174aea@@1@Z 0000000140004350 f   libvcruntimed:winapi_downlevel.obj
 0001:000033a0       ?try_load_library_from_system_directory@@YAPEAUHINSTANCE__@@QEB_W@Z 00000001400043a0 f   libvcruntimed:winapi_downlevel.obj
 0001:000035d0       $$000000                   00000001400045d0     libvcruntimed:memcpy.obj
 0001:00003ce0       ??$SehTransFilter@V__FrameHandler3@@@@YAHPEAU_EXCEPTION_POINTERS@@PEAUEHExceptionRecord@@PEA_KPEAU_CONTEXT@@PEAU_xDISPATCHER_CONTEXT@@PEBU_s_FuncInfo@@HPEAH@Z 0000000140004ce0 f   libvcruntimed:risctrnsctrl.obj
 0001:00004a10       ?adjustIp@@YA_KPEAU_xDISPATCHER_CONTEXT@@_K@Z 0000000140005a10 f   libvcruntimed:ehstate.obj
 0001:00004a20       ??$BuildCatchObjectHelperInternal@V__FrameHandler3@@@@YAHPEAUEHExceptionRecord@@PEAXPEBU_s_HandlerType@@PEBU_s_CatchableType@@@Z 0000000140005a20 f   libvcruntimed:frame.obj
 0001:00004e00       ??$BuildCatchObjectInternal@V__FrameHandler3@@@@YAXPEAUEHExceptionRecord@@PEAXPEBU_s_HandlerType@@PEBU_s_CatchableType@@@Z 0000000140005e00 f   libvcruntimed:frame.obj
 0001:00004f50       ??$CatchIt@V__FrameHandler3@@@@YAXPEAUEHExceptionRecord@@PEA_KPEAU_CONTEXT@@PEAU_xDISPATCHER_CONTEXT@@PEBU_s_FuncInfo@@PEBU_s_HandlerType@@PEBU_s_CatchableType@@PEBU_s_TryBlockMapEntry@@H1EE@Z 0000000140005f50 f   libvcruntimed:frame.obj
 0001:00005090       ??$FindHandler@V__FrameHandler3@@@@YAXPEAUEHExceptionRecord@@PEA_KPEAU_CONTEXT@@PEAU_xDISPATCHER_CONTEXT@@PEBU_s_FuncInfo@@EH1@Z 0000000140006090 f   libvcruntimed:frame.obj
 0001:00005860       ??$FindHandlerForForeignException@V__FrameHandler3@@@@YAXPEAUEHExceptionRecord@@PEA_KPEAU_CONTEXT@@PEAU_xDISPATCHER_CONTEXT@@PEBU_s_FuncInfo@@HH1@Z 0000000140006860 f   libvcruntimed:frame.obj
 0001:000062f0       ??0<lambda_92619d2358a28f41a33ba319515a20b9>@@QEAA@AEBQEAU__acrt_ptd@@AEBQEAPEAU__crt_locale_data@@@Z 00000001400072f0 f i libucrtd:per_thread_data.obj
 0001:000062f0       ??0<lambda_af29824b49a67d335554598d6cad2be6>@@QEAA@AEBHAEAV__crt_cached_ptd_host@@@Z 00000001400072f0 f i libucrtd:close.obj
 0001:000062f0       ??0<lambda_bd5a608237428601b7e45fbdc72b1ae8>@@QEAA@AEBQEAU__acrt_ptd@@AEBQEAPEAU__crt_multibyte_data@@@Z 00000001400072f0 f i libucrtd:mbctype.obj
 0001:000062f0       ??0<lambda_208ce30acdd7200aa596f2796f4d5154>@@QEAA@AEBQEAU_onexit_table_t@@AEBQ6AHXZ@Z 00000001400072f0 f i libucrtd:onexit.obj
 0001:000069b0       ?ExFilterRethrow@@YAHPEAU_EXCEPTION_POINTERS@@PEAUEHExceptionRecord@@PEAH@Z 00000001400079b0 f   libvcruntimed:frame.obj
 0001:00006dd0       ?IsInExceptionSpec@@YAEPEAUEHExceptionRecord@@PEBU_s_ESTypeList@@@Z 0000000140007dd0 f   libvcruntimed:frame.obj
 0001:00006ef0       ?Is_bad_exception_allowed@@YAEPEBU_s_ESTypeList@@@Z 0000000140007ef0 f   libvcruntimed:frame.obj
 0001:00007070       ?__RethrowException@@YAXPEAUEHExceptionRecord@@@Z 0000000140008070 f   libvcruntimed:frame.obj
 0001:00007290       $$000000                   0000000140008290     libvcruntimed:memset.obj
 0001:00007650       $$000000                   0000000140008650     libvcruntimed:handlers.obj
 0001:00007fb0       ?_fclose_internal@@YAHQEAU_iobuf@@AEAV__crt_cached_ptd_host@@@Z 0000000140008fb0 f   libucrtd:fclose.obj
 0001:00008110       ?_fclose_nolock_internal@@YAHQEAU_iobuf@@AEAV__crt_cached_ptd_host@@@Z 0000000140009110 f   libucrtd:fclose.obj
 0001:000086e0       ??$common_fsopen@D@@YAPEAU_iobuf@@QEBD0H@Z 00000001400096e0 f   libucrtd:fopen.obj
 0001:00009660       memcpy_s                   000000014000a660 f   libucrtd:cfout.obj
 0001:00009660       memcpy_s                   000000014000a660 f   libucrtd:mbctype.obj
 0001:00009660       memcpy_s                   000000014000a660 f   libucrtd:fread.obj
 0001:00009880       ?common_fseek@@YAHV__crt_stdio_stream@@_JHAEAV__crt_cached_ptd_host@@@Z 000000014000a880 f   libucrtd:fseek.obj
 0001:00009ab0       ?common_fseek_binary_mode_read_only_fast_track_nolock@@YA_NV__crt_stdio_stream@@_JH@Z 000000014000aab0 f   libucrtd:fseek.obj
 0001:00009d30       ?common_fseek_nolock@@YAHV__crt_stdio_stream@@_JHAEAV__crt_cached_ptd_host@@@Z 000000014000ad30 f   libucrtd:fseek.obj
 0001:0000a000       ??$common_ftell@J@@YAJV__crt_stdio_stream@@AEAV__crt_cached_ptd_host@@@Z 000000014000b000 f   libucrtd:ftell.obj
 0001:0000a130       ??$common_ftell_nolock@J@@YAJV__crt_stdio_stream@@AEAV__crt_cached_ptd_host@@@Z 000000014000b130 f   libucrtd:ftell.obj
 0001:0000a190       ??$common_ftell_nolock@_J@@YA_JV__crt_stdio_stream@@AEAV__crt_cached_ptd_host@@@Z 000000014000b190 f   libucrtd:ftell.obj
 0001:0000a540       ??$count_newlines_of_type@D@@YA_JQEBD0@Z 000000014000b540 f   libucrtd:ftell.obj
 0001:0000a610       ??$count_newlines_of_type@_W@@YA_JQEBD0@Z 000000014000b610 f   libucrtd:ftell.obj
 0001:0000a6f0       ?buffer_character_size@@YA_KW4__crt_lowio_text_mode@@@Z 000000014000b6f0 f   libucrtd:ftell.obj
 0001:0000a730       ?buffer_contains_wide_characters@@YA_NW4__crt_lowio_text_mode@@@Z 000000014000b730 f   libucrtd:ftell.obj
 0001:0000a760       ?common_ftell_read_mode_nolock@@YA_JV__crt_stdio_stream@@_J1AEAV__crt_cached_ptd_host@@@Z 000000014000b760 f   libucrtd:ftell.obj
 0001:0000aa80       ?common_ftell_translated_utf8_nolock@@YA_JV__crt_stdio_stream@@_JAEAV__crt_cached_ptd_host@@@Z 000000014000ba80 f   libucrtd:ftell.obj
 0001:0000ad40       ?count_newline_bytes@@YA_JQEBD0W4__crt_lowio_text_mode@@@Z 000000014000bd40 f   libucrtd:ftell.obj
 0001:0000aeb0       ??$?RV<lambda_a2589f19c515cac03caf6db9c38355e9>@@AEAV<lambda_26974eb511f701c600fccfa2a97a8e1b>@@V<lambda_ad9ce2f38261e34e8a422b9cc35dfe8d>@@@?$__crt_seh_guarded_call@_K@@QEAA_K$$QEAV<lambda_a2589f19c515cac03caf6db9c38355e9>@@AEAV<lambda_26974eb511f701c600fccfa2a97a8e1b>@@$$QEAV<lambda_ad9ce2f38261e34e8a422b9cc35dfe8d>@@@Z 000000014000beb0 f   libucrtd:fwrite.obj
 0001:0000af00       ??$__acrt_lock_stream_and_call@V<lambda_26974eb511f701c600fccfa2a97a8e1b>@@@@YA_KQEAU_iobuf@@$$QEAV<lambda_26974eb511f701c600fccfa2a97a8e1b>@@@Z 000000014000bf00 f   libucrtd:fwrite.obj
 0001:0000af60       ??0<lambda_26974eb511f701c600fccfa2a97a8e1b>@@QEAA@AEBQEAU_iobuf@@AEAV__crt_cached_ptd_host@@AEBQEBXAEB_K3@Z 000000014000bf60 f   libucrtd:fwrite.obj
 0001:0000af60       ??0<lambda_303760bc4008a2b3ec4768a30b06a80c>@@QEAA@AEBQEAU_iobuf@@AEAV__crt_cached_ptd_host@@AEB_KAEBQEBDAEBQEAD@Z 000000014000bf60 f   libucrtd:output.obj
 0001:0000afc0       ??0<lambda_842d9ff0dc9ef11c61343bbaebe7f885>@@QEAA@AEBQEAU_iobuf@@@Z 000000014000bfc0 f   libucrtd:fflush.obj
 0001:0000afc0       ??0<lambda_d90129c13df834fdcbf8d2b88dafcf2d>@@QEAA@AEBQEAU_iobuf@@@Z 000000014000bfc0 f   libucrtd:fflush.obj
 0001:0000afc0       ??0<lambda_a2589f19c515cac03caf6db9c38355e9>@@QEAA@AEBQEAU_iobuf@@@Z 000000014000bfc0 f   libucrtd:fwrite.obj
 0001:0000afc0       ??0<lambda_ad9ce2f38261e34e8a422b9cc35dfe8d>@@QEAA@AEBQEAU_iobuf@@@Z 000000014000bfc0 f   libucrtd:fwrite.obj
 0001:0000afc0       ??0<lambda_4780a7ea4f8cbd2590aec34bd14e2bbf>@@QEAA@AEBQEAU_iobuf@@@Z 000000014000bfc0 f   libucrtd:output.obj
 0001:0000afc0       ??0<lambda_d854c62834386a3b23916ad6dae2782d>@@QEAA@AEBQEAU_iobuf@@@Z 000000014000bfc0 f   libucrtd:output.obj
 0001:0000b060       ??R<lambda_26974eb511f701c600fccfa2a97a8e1b>@@QEBA_KXZ 000000014000c060 f   libucrtd:fwrite.obj
 0001:0000b0f0       ??R<lambda_842d9ff0dc9ef11c61343bbaebe7f885>@@QEBAXXZ 000000014000c0f0 f   libucrtd:fflush.obj
 0001:0000b0f0       ??R<lambda_a2589f19c515cac03caf6db9c38355e9>@@QEBAXXZ 000000014000c0f0 f   libucrtd:fwrite.obj
 0001:0000b0f0       ??R<lambda_d854c62834386a3b23916ad6dae2782d>@@QEBAXXZ 000000014000c0f0 f   libucrtd:output.obj
 0001:0000b110       ??R<lambda_d90129c13df834fdcbf8d2b88dafcf2d>@@QEBAXXZ 000000014000c110 f   libucrtd:fflush.obj
 0001:0000b110       ??R<lambda_ad9ce2f38261e34e8a422b9cc35dfe8d>@@QEBAXXZ 000000014000c110 f   libucrtd:fwrite.obj
 0001:0000b110       ??R<lambda_4780a7ea4f8cbd2590aec34bd14e2bbf>@@QEBAXXZ 000000014000c110 f   libucrtd:output.obj
 0001:0000bb50       ?_perror_internal@@YAXQEBDAEAV__crt_cached_ptd_host@@@Z 000000014000cb50 f   libucrtd:perror.obj
 0001:0000beb0       ??$?RV<lambda_d854c62834386a3b23916ad6dae2782d>@@AEAV<lambda_303760bc4008a2b3ec4768a30b06a80c>@@V<lambda_4780a7ea4f8cbd2590aec34bd14e2bbf>@@@?$__crt_seh_guarded_call@H@@QEAAH$$QEAV<lambda_d854c62834386a3b23916ad6dae2782d>@@AEAV<lambda_303760bc4008a2b3ec4768a30b06a80c>@@$$QEAV<lambda_4780a7ea4f8cbd2590aec34bd14e2bbf>@@@Z 000000014000ceb0 f   libucrtd:output.obj
 0001:0000bf00       ??$__acrt_lock_stream_and_call@V<lambda_303760bc4008a2b3ec4768a30b06a80c>@@@@YAHQEAU_iobuf@@$$QEAV<lambda_303760bc4008a2b3ec4768a30b06a80c>@@@Z 000000014000cf00 f   libucrtd:output.obj
 0001:0000c000       ??$common_vfprintf@Vstandard_base@__crt_stdio_output@@D@@YAH_KQEAU_iobuf@@QEBDAEAV__crt_cached_ptd_host@@QEAD@Z 000000014000d000 f   libucrtd:output.obj
 0001:0000c230       ??$common_vsnprintf_s@D@@YAH_KQEAD00QEBDAEAV__crt_cached_ptd_host@@1@Z 000000014000d230 f   libucrtd:output.obj
 0001:0000c910       ??$common_vsnprintf_s@_W@@YAH_KQEA_W00QEB_WAEAV__crt_cached_ptd_host@@QEAD@Z 000000014000d910 f   libucrtd:output.obj
 0001:0000d000       ??$common_vsprintf@Vformat_validation_base@__crt_stdio_output@@D@@YAH_KQEAD0QEBDAEAV__crt_cached_ptd_host@@1@Z 000000014000e000 f   libucrtd:output.obj
 0001:0000d4c0       ??$common_vsprintf@Vformat_validation_base@__crt_stdio_output@@_W@@YAH_KQEA_W0QEB_WAEAV__crt_cached_ptd_host@@QEAD@Z 000000014000e4c0 f   libucrtd:output.obj
 0001:0000d970       ??$common_vsprintf_s@D@@YAH_KQEAD0QEBDAEAV__crt_cached_ptd_host@@1@Z 000000014000e970 f   libucrtd:output.obj
 0001:00012fb0       ??R<lambda_303760bc4008a2b3ec4768a30b06a80c>@@QEBAHXZ 0000000140013fb0 f   libucrtd:output.obj
 0001:00013da4       $LN39                      0000000140014da4     libucrtd:output.obj
 0001:00014164       $LN39                      0000000140015164     libucrtd:output.obj
 0001:00014528       $LN39                      0000000140015528     libucrtd:output.obj
 0001:0001541c       $LN54                      000000014001641c     libucrtd:output.obj
 0001:00015444       $LN53                      0000000140016444     libucrtd:output.obj
 0001:000158dc       $LN54                      00000001400168dc     libucrtd:output.obj
 0001:00015904       $LN53                      0000000140016904     libucrtd:output.obj
 0001:00015d9c       $LN54                      0000000140016d9c     libucrtd:output.obj
 0001:00015dc4       $LN53                      0000000140016dc4     libucrtd:output.obj
 0001:00016258       $LN44                      0000000140017258     libucrtd:output.obj
 0001:00016288       $LN43                      0000000140017288     libucrtd:output.obj
 0001:00016718       $LN44                      0000000140017718     libucrtd:output.obj
 0001:00016748       $LN43                      0000000140017748     libucrtd:output.obj
 0001:00016c9c       $LN44                      0000000140017c9c     libucrtd:output.obj
 0001:00016ccc       $LN43                      0000000140017ccc     libucrtd:output.obj
 0001:00016f70       $LN19                      0000000140017f70     libucrtd:output.obj
 0001:0001aa20       ?xcptlookup@@YAPEAU__crt_signal_action_t@@KQEAU1@@Z 000000014001ba20 f   libucrtd:exception_filter.obj
 0001:0001ad3c       $LN33                      000000014001bd3c     libucrtd:exception_filter.obj
 0001:0001ad60       ?issue_debug_notification@@YA_NQEB_W@Z 000000014001bd60 f   libucrtd:report_runtime_error.obj
 0001:0001adc0       ?should_write_error_to_console@@YA_NXZ 000000014001bdc0 f   libucrtd:report_runtime_error.obj
 0001:0001ae00       ?write_string_to_console@@YAXQEB_W@Z 000000014001be00 f   libucrtd:report_runtime_error.obj
 0001:0001b440       ??$common_configure_argv@D@@YAHW4_crt_argv_mode@@@Z 000000014001c440 f   libucrtd:argv_parsing.obj
 0001:0001b810       ??$parse_command_line@D@@YAXPEADPEAPEAD0PEA_K2@Z 000000014001c810 f   libucrtd:argv_parsing.obj
 0001:0001bd00       ??R<lambda_df1553121bfa390f1154bd84936f2730>@@QEBAHXZ 000000014001cd00 f   libucrtd:argv_parsing.obj
 0001:0001bd60       ?pre_initialize@@YAXD@Z    000000014001cd60 f   libucrtd:environment_initialization.obj
 0001:0001bd60       ?do_locale_initialization@@YAXD@Z 000000014001cd60 f   libucrtd:argv_parsing.obj
 0001:0001bd80       ?expand_argv_wildcards@@YAHQEAPEADQEAPEAPEAD@Z 000000014001cd80 f   libucrtd:argv_parsing.obj
 0001:0001bdb0       ?get_argv@@YAAEAPEAPEADD@Z 000000014001cdb0 f   libucrtd:argv_parsing.obj
 0001:0001bdc0       ?get_command_line@@YAPEADD@Z 000000014001cdc0 f   libucrtd:argv_parsing.obj
 0001:0001bdd0       ?should_copy_another_character@@YA_ND@Z 000000014001cdd0 f   libucrtd:argv_parsing.obj
 0001:0001bf70       ??$common_get_initial_environment@D@@YAPEAPEADXZ 000000014001cf70 f   libucrtd:environment_initialization.obj
 0001:0001bfb0       ??$common_get_or_create_environment_nolock@D@@YAPEAPEADXZ 000000014001cfb0 f   libucrtd:environment_initialization.obj
 0001:0001c020       ??$common_initialize_environment_nolock@D@@YAHXZ 000000014001d020 f   libucrtd:environment_initialization.obj
 0001:0001c140       ??$count_variables_in_environment_block@D@@YA?B_KQEAD@Z 000000014001d140 f   libucrtd:environment_initialization.obj
 0001:0001c1c0       ??$create_environment@D@@YAQEAPEADQEAD@Z 000000014001d1c0 f   libucrtd:environment_initialization.obj
 0001:0001c3d0       ??$free_environment@D@@YAXQEAPEAD@Z 000000014001d3d0 f   libucrtd:environment_initialization.obj
 0001:0001c3d0       ??$free_environment@_W@@YAXQEAPEA_W@Z 000000014001d3d0 f   libucrtd:environment_initialization.obj
 0001:0001c440       ??$initialize_environment_by_cloning_nolock@D@@YAHXZ 000000014001d440 f   libucrtd:environment_initialization.obj
 0001:0001c750       ??$uninitialize_environment_internal@D@@YAXAEAPEAPEAD@Z 000000014001d750 f   libucrtd:environment_initialization.obj
 0001:0001c790       ??$uninitialize_environment_internal@_W@@YAXAEAPEAPEA_W@Z 000000014001d790 f   libucrtd:environment_initialization.obj
 0001:0001c880       ?get_dual_state_environment_nolock@@YAAEAV?$dual_state_global@PEAPEAD@__crt_state_management@@D@Z 000000014001d880 f   libucrtd:environment_initialization.obj
 0001:0001c890       ?get_environment_nolock@@YAAEAPEAPEADD@Z 000000014001d890 f   libucrtd:environment_initialization.obj
 0001:0001c890       ?get_environment@@YAAEAPEAPEADD@Z 000000014001d890 f   libucrtd:setenv.obj
 0001:0001c8b0       ?get_environment_nolock@@YAAEAPEAPEA_W_W@Z 000000014001d8b0 f   libucrtd:environment_initialization.obj
 0001:0001c8d0       ?get_initial_environment@@YAAEAPEAPEADD@Z 000000014001d8d0 f   libucrtd:environment_initialization.obj
 0001:0001c8d0       ?get_initial_environment@@YAAEAPEAPEADD@Z 000000014001d8d0 f   libucrtd:setenv.obj
 0001:0001c8e0       ?get_initial_environment@@YAAEAPEAPEA_W_W@Z 000000014001d8e0 f   libucrtd:environment_initialization.obj
 0001:0001ca80       ??$?RV<lambda_d80eeec6fff315bfe5c115232f3240e3>@@AEAV<lambda_6e4b09c48022b2350581041d5f6b0c4c>@@V<lambda_2358e3775559c9db80273638284d5e45>@@@?$__crt_seh_guarded_call@X@@QEAAX$$QEAV<lambda_d80eeec6fff315bfe5c115232f3240e3>@@AEAV<lambda_6e4b09c48022b2350581041d5f6b0c4c>@@$$QEAV<lambda_2358e3775559c9db80273638284d5e45>@@@Z 000000014001da80 f   libucrtd:exit.obj
 0001:0001cac0       ??$__acrt_lock_and_call@V<lambda_6e4b09c48022b2350581041d5f6b0c4c>@@@@YAXW4__acrt_lock_id@@$$QEAV<lambda_6e4b09c48022b2350581041d5f6b0c4c>@@@Z 000000014001dac0 f   libucrtd:exit.obj
 0001:0001cb50       ??0<lambda_04ddeca75b7c13fd67716e8dfcef87ee>@@QEAA@AEBW4__acrt_lock_id@@@Z 000000014001db50 f   libucrtd:per_thread_data.obj
 0001:0001cb50       ??0<lambda_0ae27a3a962d80f24befdcbee591983d>@@QEAA@AEBW4__acrt_lock_id@@@Z 000000014001db50 f   libucrtd:per_thread_data.obj
 0001:0001cb50       ??0<lambda_2d41944a1d46af3157314b8a01080d33>@@QEAA@AEBW4__acrt_lock_id@@@Z 000000014001db50 f   libucrtd:per_thread_data.obj
 0001:0001cb50       ??0<lambda_6992ecaafeb10aed2b74cb1fae11a551>@@QEAA@AEBW4__acrt_lock_id@@@Z 000000014001db50 f   libucrtd:per_thread_data.obj
 0001:0001cb50       ??0<lambda_74a0ef281e44d15e1136f792f539efb3>@@QEAA@AEBW4__acrt_lock_id@@@Z 000000014001db50 f   libucrtd:per_thread_data.obj
 0001:0001cb50       ??0<lambda_aa500f224e6afead328df44964fe2772>@@QEAA@AEBW4__acrt_lock_id@@@Z 000000014001db50 f   libucrtd:per_thread_data.obj
 0001:0001cb50       ??0<lambda_aa87e3671a710a21b5dc78c0bdf72e11>@@QEAA@AEBW4__acrt_lock_id@@@Z 000000014001db50 f   libucrtd:per_thread_data.obj
 0001:0001cb50       ??0<lambda_dc504788e8f1664fe9b84e20bfb512f2>@@QEAA@AEBW4__acrt_lock_id@@@Z 000000014001db50 f   libucrtd:per_thread_data.obj
 0001:0001cb50       ??0<lambda_38119f0e861e05405d8a144b9b982f0a>@@QEAA@AEBW4__acrt_lock_id@@@Z 000000014001db50 f   libucrtd:wsetlocale.obj
 0001:0001cb50       ??0<lambda_410d79af7f07d98d83a3f525b3859a53>@@QEAA@AEBW4__acrt_lock_id@@@Z 000000014001db50 f   libucrtd:wsetlocale.obj
 0001:0001cb50       ??0<lambda_19eaff14c5fe7be5b1b106a862eb1091>@@QEAA@AEBH@Z 000000014001db50 f   libucrtd:close.obj
 0001:0001cb50       ??0<lambda_3ce37f5b621ab310299ea5f68cbdf3bb>@@QEAA@AEBH@Z 000000014001db50 f   libucrtd:close.obj
 0001:0001cb50       ??0<lambda_7d29013d608e9f25a034de83c9b9e983>@@QEAA@AEBH@Z 000000014001db50 f   libucrtd:commit.obj
 0001:0001cb50       ??0<lambda_b869e5a4e1069fcb5c3da79c0d999133>@@QEAA@AEBH@Z 000000014001db50 f   libucrtd:commit.obj
 0001:0001cb50       ??0<lambda_728235dc0fc2b1f82d1fa5b3e7102d8f>@@QEAA@AEBW4__acrt_lock_id@@@Z 000000014001db50 f   libucrtd:mbctype.obj
 0001:0001cb50       ??0<lambda_efa02eb69bf647d2f7ff0dd6f1103f72>@@QEAA@AEBW4__acrt_lock_id@@@Z 000000014001db50 f   libucrtd:mbctype.obj
 0001:0001cb50       ??0<lambda_450d765d439847d4c735a33c368b5fc0>@@QEAA@AEBW4__acrt_lock_id@@@Z 000000014001db50 f   libucrtd:signal.obj
 0001:0001cb50       ??0<lambda_601a2a7da3b7a96e9554ac7215c4b07c>@@QEAA@AEBW4__acrt_lock_id@@@Z 000000014001db50 f   libucrtd:signal.obj
 0001:0001cb50       ??0<lambda_2358e3775559c9db80273638284d5e45>@@QEAA@AEBW4__acrt_lock_id@@@Z 000000014001db50 f   libucrtd:exit.obj
 0001:0001cb50       ??0<lambda_d80eeec6fff315bfe5c115232f3240e3>@@QEAA@AEBW4__acrt_lock_id@@@Z 000000014001db50 f   libucrtd:exit.obj
 0001:0001cb50       ??0<lambda_6a47f4c8fd0152770a780fc1d70204eb>@@QEAA@AEBW4__acrt_lock_id@@@Z 000000014001db50 f   libucrtd:onexit.obj
 0001:0001cb50       ??0<lambda_6aaa2265f5b6a89667e7d7630012e97a>@@QEAA@AEBW4__acrt_lock_id@@@Z 000000014001db50 f   libucrtd:onexit.obj
 0001:0001cb50       ??0<lambda_80060f20ac3990516b753a27f211934c>@@QEAA@AEBW4__acrt_lock_id@@@Z 000000014001db50 f   libucrtd:onexit.obj
 0001:0001cb50       ??0<lambda_fd91b99c0687e8936f1d70d7d9b78e69>@@QEAA@AEBW4__acrt_lock_id@@@Z 000000014001db50 f   libucrtd:onexit.obj
 0001:0001cb50       ??0<lambda_886d6c58226a84441f68b9f2b8217b83>@@QEAA@AEBW4__acrt_lock_id@@@Z 000000014001db50 f   libucrtd:fflush.obj
 0001:0001cb50       ??0<lambda_f7f22ab5edc0698d5f6905b0d3f44752>@@QEAA@AEBW4__acrt_lock_id@@@Z 000000014001db50 f   libucrtd:fflush.obj
 0001:0001cb70       ??0<lambda_6e4b09c48022b2350581041d5f6b0c4c>@@QEAA@AEBW4_crt_exit_cleanup_mode@@AEBW4_crt_exit_return_mode@@AEA_N@Z 000000014001db70 f   libucrtd:exit.obj
 0001:0001cb70       ??0<lambda_ab61a845afdef5b7c387490eaf3616ee>@@QEAA@AEAHAEB_N0@Z 000000014001db70 f   libucrtd:fflush.obj
 0001:0001cbe0       ??R<lambda_04ddeca75b7c13fd67716e8dfcef87ee>@@QEBAXXZ 000000014001dbe0 f   libucrtd:per_thread_data.obj
 0001:0001cbe0       ??R<lambda_6992ecaafeb10aed2b74cb1fae11a551>@@QEBAXXZ 000000014001dbe0 f   libucrtd:per_thread_data.obj
 0001:0001cbe0       ??R<lambda_aa500f224e6afead328df44964fe2772>@@QEBAXXZ 000000014001dbe0 f   libucrtd:per_thread_data.obj
 0001:0001cbe0       ??R<lambda_dc504788e8f1664fe9b84e20bfb512f2>@@QEBAXXZ 000000014001dbe0 f   libucrtd:per_thread_data.obj
 0001:0001cbe0       ??R<lambda_38119f0e861e05405d8a144b9b982f0a>@@QEBAXXZ 000000014001dbe0 f   libucrtd:wsetlocale.obj
 0001:0001cbe0       ??R<lambda_728235dc0fc2b1f82d1fa5b3e7102d8f>@@QEBAXXZ 000000014001dbe0 f   libucrtd:mbctype.obj
 0001:0001cbe0       ??R<lambda_601a2a7da3b7a96e9554ac7215c4b07c>@@QEBAXXZ 000000014001dbe0 f   libucrtd:signal.obj
 0001:0001cbe0       ??R<lambda_2358e3775559c9db80273638284d5e45>@@QEBAXXZ 000000014001dbe0 f   libucrtd:exit.obj
 0001:0001cbe0       ??R<lambda_6aaa2265f5b6a89667e7d7630012e97a>@@QEBAXXZ 000000014001dbe0 f   libucrtd:onexit.obj
 0001:0001cbe0       ??R<lambda_fd91b99c0687e8936f1d70d7d9b78e69>@@QEBAXXZ 000000014001dbe0 f   libucrtd:onexit.obj
 0001:0001cbe0       ??R<lambda_f7f22ab5edc0698d5f6905b0d3f44752>@@QEBAXXZ 000000014001dbe0 f   libucrtd:fflush.obj
 0001:0001cc00       ??R<lambda_6e4b09c48022b2350581041d5f6b0c4c>@@QEBA@XZ 000000014001dc00 f   libucrtd:exit.obj
 0001:0001cd20       ??R<lambda_0ae27a3a962d80f24befdcbee591983d>@@QEBAXXZ 000000014001dd20 f   libucrtd:per_thread_data.obj
 0001:0001cd20       ??R<lambda_2d41944a1d46af3157314b8a01080d33>@@QEBAXXZ 000000014001dd20 f   libucrtd:per_thread_data.obj
 0001:0001cd20       ??R<lambda_74a0ef281e44d15e1136f792f539efb3>@@QEBAXXZ 000000014001dd20 f   libucrtd:per_thread_data.obj
 0001:0001cd20       ??R<lambda_aa87e3671a710a21b5dc78c0bdf72e11>@@QEBAXXZ 000000014001dd20 f   libucrtd:per_thread_data.obj
 0001:0001cd20       ??R<lambda_410d79af7f07d98d83a3f525b3859a53>@@QEBAXXZ 000000014001dd20 f   libucrtd:wsetlocale.obj
 0001:0001cd20       ??R<lambda_efa02eb69bf647d2f7ff0dd6f1103f72>@@QEBAXXZ 000000014001dd20 f   libucrtd:mbctype.obj
 0001:0001cd20       ??R<lambda_450d765d439847d4c735a33c368b5fc0>@@QEBAXXZ 000000014001dd20 f   libucrtd:signal.obj
 0001:0001cd20       ??R<lambda_d80eeec6fff315bfe5c115232f3240e3>@@QEBAXXZ 000000014001dd20 f   libucrtd:exit.obj
 0001:0001cd20       ??R<lambda_6a47f4c8fd0152770a780fc1d70204eb>@@QEBAXXZ 000000014001dd20 f   libucrtd:onexit.obj
 0001:0001cd20       ??R<lambda_80060f20ac3990516b753a27f211934c>@@QEBAXXZ 000000014001dd20 f   libucrtd:onexit.obj
 0001:0001cd20       ??R<lambda_886d6c58226a84441f68b9f2b8217b83>@@QEBAXXZ 000000014001dd20 f   libucrtd:fflush.obj
 0001:0001cd70       ?atexit_exception_filter@@YAHK@Z 000000014001dd70 f   libucrtd:exit.obj
 0001:0001ce10       ?common_exit@@YAXHW4_crt_exit_cleanup_mode@@W4_crt_exit_return_mode@@@Z 000000014001de10 f   libucrtd:exit.obj
 0001:0001ceb0       ?exit_or_terminate_process@@YAXI@Z 000000014001deb0 f   libucrtd:exit.obj
 0001:0001cef0       ?is_managed_app@@YA_NXZ    000000014001def0 f   libucrtd:exit.obj
 0001:0001cfa0       ?should_call_terminate_process@@YA_NXZ 000000014001dfa0 f   libucrtd:exit.obj
 0001:0001d000       ?try_cor_exit_process@@YAXI@Z 000000014001e000 f   libucrtd:exit.obj
 0001:0001d670       uninitialize_c             000000014001e670 f   libucrtd:initialization.obj
 0001:0001d670       uninitialize_global_state_isolation 000000014001e670 f   libucrtd:initialization.obj
 0001:0001d6a0       ??$?RV<lambda_410d79af7f07d98d83a3f525b3859a53>@@AEAV<lambda_3e16ef9562a7dcce91392c22ab16ea36>@@V<lambda_38119f0e861e05405d8a144b9b982f0a>@@@?$__crt_seh_guarded_call@X@@QEAAX$$QEAV<lambda_410d79af7f07d98d83a3f525b3859a53>@@AEAV<lambda_3e16ef9562a7dcce91392c22ab16ea36>@@$$QEAV<lambda_38119f0e861e05405d8a144b9b982f0a>@@@Z 000000014001e6a0 f   libucrtd:wsetlocale.obj
 0001:0001d6e0       ??$__acrt_lock_and_call@V<lambda_3e16ef9562a7dcce91392c22ab16ea36>@@@@YAXW4__acrt_lock_id@@$$QEAV<lambda_3e16ef9562a7dcce91392c22ab16ea36>@@@Z 000000014001e6e0 f   libucrtd:wsetlocale.obj
 0001:0001d740       ??$uninitialize@V<lambda_363eea9039da1e8169e2d060c7fe5cbc>@@@?$dual_state_global@PEAU__crt_locale_data@@@__crt_state_management@@QEAAX$$QEAV<lambda_363eea9039da1e8169e2d060c7fe5cbc>@@@Z 000000014001e740 f   libucrtd:wsetlocale.obj
 0001:0001d7a0       ??R<lambda_363eea9039da1e8169e2d060c7fe5cbc>@@QEBAXAEAPEAU__crt_locale_data@@@Z 000000014001e7a0 f   libucrtd:wsetlocale.obj
 0001:0001d7e0       ??R<lambda_3e16ef9562a7dcce91392c22ab16ea36>@@QEBA@XZ 000000014001e7e0 f   libucrtd:wsetlocale.obj
 0001:0001db00       ??$?RV<lambda_6a47f4c8fd0152770a780fc1d70204eb>@@AEAV<lambda_d121dba8a4adeaf3a9819e48611155df>@@V<lambda_6aaa2265f5b6a89667e7d7630012e97a>@@@?$__crt_seh_guarded_call@H@@QEAAH$$QEAV<lambda_6a47f4c8fd0152770a780fc1d70204eb>@@AEAV<lambda_d121dba8a4adeaf3a9819e48611155df>@@$$QEAV<lambda_6aaa2265f5b6a89667e7d7630012e97a>@@@Z 000000014001eb00 f   libucrtd:onexit.obj
 0001:0001db50       ??$?RV<lambda_80060f20ac3990516b753a27f211934c>@@AEAV<lambda_208ce30acdd7200aa596f2796f4d5154>@@V<lambda_fd91b99c0687e8936f1d70d7d9b78e69>@@@?$__crt_seh_guarded_call@H@@QEAAH$$QEAV<lambda_80060f20ac3990516b753a27f211934c>@@AEAV<lambda_208ce30acdd7200aa596f2796f4d5154>@@$$QEAV<lambda_fd91b99c0687e8936f1d70d7d9b78e69>@@@Z 000000014001eb50 f   libucrtd:onexit.obj
 0001:0001dba0       ??$__acrt_lock_and_call@V<lambda_208ce30acdd7200aa596f2796f4d5154>@@@@YAHW4__acrt_lock_id@@$$QEAV<lambda_208ce30acdd7200aa596f2796f4d5154>@@@Z 000000014001eba0 f   libucrtd:onexit.obj
 0001:0001dc00       ??$__acrt_lock_and_call@V<lambda_d121dba8a4adeaf3a9819e48611155df>@@@@YAHW4__acrt_lock_id@@$$QEAV<lambda_d121dba8a4adeaf3a9819e48611155df>@@@Z 000000014001ec00 f   libucrtd:onexit.obj
 0001:0001dc60       ??R<lambda_208ce30acdd7200aa596f2796f4d5154>@@QEBAHXZ 000000014001ec60 f   libucrtd:onexit.obj
 0001:0001dfa0       ??R<lambda_d121dba8a4adeaf3a9819e48611155df>@@QEBAHXZ 000000014001efa0 f   libucrtd:onexit.obj
 0001:0001e300       initialize_global_variables 000000014001f300 f   libucrtd:initialization.obj
 0001:0001e320       initialize_c               000000014001f320 f   libucrtd:initialization.obj
 0001:0001e350       uninitialize_environment   000000014001f350 f   libucrtd:initialization.obj
 0001:0001e380       initialize_pointers        000000014001f380 f   libucrtd:initialization.obj
 0001:0001e3e0       uninitialize_vcruntime     000000014001f3e0 f   libucrtd:initialization.obj
 0001:0001e400       uninitialize_allocated_memory 000000014001f400 f   libucrtd:initialization.obj
 0001:0001e440       uninitialize_allocated_io_buffers 000000014001f440 f   libucrtd:initialization.obj
 0001:0001e4c0       report_memory_leaks        000000014001f4c0 f   libucrtd:initialization.obj
 0001:0001e4f0       ??$uninitialize@V<lambda_af27fe6ede5d83bbdbd622796c194e9c>@@@?$dual_state_global@PEAU__crt_multibyte_data@@@__crt_state_management@@QEAAX$$QEAV<lambda_af27fe6ede5d83bbdbd622796c194e9c>@@@Z 000000014001f4f0 f   libucrtd:initialization.obj
 0001:0001e550       ??R<lambda_af27fe6ede5d83bbdbd622796c194e9c>@@QEBAXAEAPEAU__crt_multibyte_data@@@Z 000000014001f550 f   libucrtd:initialization.obj
 0001:0001e7c0       ?block_from_header@@YAPEAEQEAU_CrtMemBlockHeader@@@Z 000000014001f7c0 f   libucrtd:debug_heap.obj
 0001:0001e7d0       ?check_block@@YA_NQEAU_CrtMemBlockHeader@@@Z 000000014001f7d0 f   libucrtd:debug_heap.obj
 0001:0001ed40       ?check_bytes@@YA_NQEBEE_K@Z 000000014001fd40 f   libucrtd:debug_heap.obj
 0001:0001edb0       ?dump_all_object_since_nolock@@YAXQEBU_CrtMemState@@@Z 000000014001fdb0 f   libucrtd:debug_heap.obj
 0001:0001f230       ?free_dbg_nolock@@YAXQEAXH@Z 0000000140020230 f   libucrtd:debug_heap.obj
 0001:0001f9b0       ?header_from_block@@YAPEAU_CrtMemBlockHeader@@QEBX@Z 00000001400209b0 f   libucrtd:debug_heap.obj
 0001:0001f9c0       ?heap_alloc_dbg@@YAPEAX_KHQEBDH@Z 00000001400209c0 f   libucrtd:debug_heap.obj
 0001:0001fa60       ?heap_alloc_dbg_internal@@YAPEAX_KHQEBDH@Z 0000000140020a60 f   libucrtd:debug_heap.obj
 0001:0001feb0       ?is_bad_read_pointer@@YA_NQEBX_K@Z 0000000140020eb0 f   libucrtd:debug_heap.obj
 0001:0001ffc0       ?is_block_an_aligned_allocation@@YA_NQEBX@Z 0000000140020fc0 f   libucrtd:debug_heap.obj
 0001:00020000       ?is_block_type_valid@@YA_NH@Z 0000000140021000 f   libucrtd:debug_heap.obj
 0001:00020050       ?print_block_data@@YAXQEAU__crt_locale_pointers@@QEAU_CrtMemBlockHeader@@@Z 0000000140021050 f   libucrtd:debug_heap.obj
 0001:00020280       ?realloc_dbg_nolock@@YAPEAXQEAXQEA_KHQEBDH_N@Z 0000000140021280 f   libucrtd:debug_heap.obj
 0001:00020ac0       ?validate_heap_if_required_nolock@@YAXXZ 0000000140021ac0 f   libucrtd:debug_heap.obj
 0001:00021850       ??$common_tcscpy_s@D@@YAHQEAD_KQEBD@Z 0000000140022850 f   libucrtd:strcpy_s.obj
 0001:00021d60       $$000000                   0000000140022d60     libucrtd:strcmp.obj
 0001:00021de0       $$000000                   0000000140022de0     libucrtd:strlen.obj
 0001:00022430       ??$common_message_window@D@@YAHHQEAXQEBD111@Z 0000000140023430 f   libucrtd:dbgrpt.obj
 0001:00022b00       ??$common_message_window@_W@@YAHHQEAXQEB_W111@Z 0000000140023b00 f   libucrtd:dbgrpt.obj
 0001:00023300       ?get_output_message_format@@YAPEB_WD@Z 0000000140024300 f   libucrtd:dbgrpt.obj
 0001:00023310       ?get_output_message_format@@YAPEB_W_W@Z 0000000140024310 f   libucrtd:dbgrpt.obj
 0001:00023320       ?get_program_name_unknown_text@@YAPEBDD@Z 0000000140024320 f   libucrtd:dbgrpt.obj
 0001:00023330       ?get_program_name_unknown_text@@YAPEB_W_W@Z 0000000140024330 f   libucrtd:dbgrpt.obj
 0001:000235d0       $$000000                   00000001400245d0     libucrtd:strncmp.obj
 0001:00023880       ?try_get_AppPolicyGetProcessTerminationMethod@@YAP6AJPEAXPEAW4AppPolicyProcessTerminationMethod@@@ZXZ 0000000140024880 f   libucrtd:winapi_thunks.obj
 0001:000238b0       ?try_get_AppPolicyGetShowDeveloperDiagnostic@@YAP6AJPEAXPEAW4AppPolicyShowDeveloperDiagnostic@@@ZXZ 00000001400248b0 f   libucrtd:winapi_thunks.obj
 0001:000238e0       ?try_get_AppPolicyGetWindowingModel@@YAP6AJPEAXPEAW4AppPolicyWindowingModel@@@ZXZ 00000001400248e0 f   libucrtd:winapi_thunks.obj
 0001:00023910       ?try_get_AreFileApisANSI@@YAP6AHXZXZ 0000000140024910 f   libucrtd:winapi_thunks.obj
 0001:00023940       ?try_get_CompareStringEx@@YAP6AHPEB_WK0H0HPEAU_nlsversioninfo@@PEAX_J@ZXZ 0000000140024940 f   libucrtd:winapi_thunks.obj
 0001:00023970       ?try_get_GetActiveWindow@@YAP6APEAUHWND__@@XZXZ 0000000140024970 f   libucrtd:winapi_thunks.obj
 0001:000239a0       ?try_get_GetLastActivePopup@@YAP6APEAUHWND__@@PEAU1@@ZXZ 00000001400249a0 f   libucrtd:winapi_thunks.obj
 0001:000239d0       ?try_get_GetProcessWindowStation@@YAP6APEAUHWINSTA__@@XZXZ 00000001400249d0 f   libucrtd:winapi_thunks.obj
 0001:00023a00       ?try_get_GetUserObjectInformationW@@YAP6AHPEAXH0KPEAK@ZXZ 0000000140024a00 f   libucrtd:winapi_thunks.obj
 0001:00023a30       ?try_get_InitializeCriticalSectionEx@@YAP6AHPEAU_RTL_CRITICAL_SECTION@@KK@ZXZ 0000000140024a30 f   libucrtd:winapi_thunks.obj
 0001:00023a60       ?try_get_LCMapStringEx@@YAP6AHPEB_WK0HPEA_WHPEAU_nlsversioninfo@@PEAX_J@ZXZ 0000000140024a60 f   libucrtd:winapi_thunks.obj
 0001:00023a90       ?try_get_LocaleNameToLCID@@YAP6AKPEB_WK@ZXZ 0000000140024a90 f   libucrtd:winapi_thunks.obj
 0001:00023ac0       ?try_get_MessageBoxA@@YAP6AHPEAUHWND__@@PEBD1I@ZXZ 0000000140024ac0 f   libucrtd:winapi_thunks.obj
 0001:00023af0       ?try_get_MessageBoxW@@YAP6AHPEAUHWND__@@PEB_W1I@ZXZ 0000000140024af0 f   libucrtd:winapi_thunks.obj
 0001:00023b20       ?try_get_first_available_module@@YAPEAUHINSTANCE__@@QEBW4module_id@?A0x391cf84c@@0@Z 0000000140024b20 f   libucrtd:winapi_thunks.obj
 0001:00023b80       ?try_get_function@@YAPEAXW4function_id@?A0x391cf84c@@QEBDQEBW4module_id@2@2@Z 0000000140024b80 f   libucrtd:winapi_thunks.obj
 0001:00023d20       ?try_get_module@@YAPEAUHINSTANCE__@@W4module_id@?A0x391cf84c@@@Z 0000000140024d20 f   libucrtd:winapi_thunks.obj
 0001:00023e80       ?try_get_proc_address_from_first_available_module@@YAPEAXQEBDQEBW4module_id@?A0x391cf84c@@1@Z 0000000140024e80 f   libucrtd:winapi_thunks.obj
 0001:00023ed0       ?try_load_library_from_system_directory@@YAPEAUHINSTANCE__@@QEB_W@Z 0000000140024ed0 f   libucrtd:winapi_thunks.obj
 0001:00024930       ??$?RV<lambda_842d9ff0dc9ef11c61343bbaebe7f885>@@AEAV<lambda_c5860995281e5c4ce005b3de8f5874ee>@@V<lambda_d90129c13df834fdcbf8d2b88dafcf2d>@@@?$__crt_seh_guarded_call@X@@QEAAX$$QEAV<lambda_842d9ff0dc9ef11c61343bbaebe7f885>@@AEAV<lambda_c5860995281e5c4ce005b3de8f5874ee>@@$$QEAV<lambda_d90129c13df834fdcbf8d2b88dafcf2d>@@@Z 0000000140025930 f   libucrtd:fflush.obj
 0001:00024970       ??$?RV<lambda_886d6c58226a84441f68b9f2b8217b83>@@AEAV<lambda_ab61a845afdef5b7c387490eaf3616ee>@@V<lambda_f7f22ab5edc0698d5f6905b0d3f44752>@@@?$__crt_seh_guarded_call@X@@QEAAX$$QEAV<lambda_886d6c58226a84441f68b9f2b8217b83>@@AEAV<lambda_ab61a845afdef5b7c387490eaf3616ee>@@$$QEAV<lambda_f7f22ab5edc0698d5f6905b0d3f44752>@@@Z 0000000140025970 f   libucrtd:fflush.obj
 0001:000249b0       ??$__acrt_lock_and_call@V<lambda_ab61a845afdef5b7c387490eaf3616ee>@@@@YAXW4__acrt_lock_id@@$$QEAV<lambda_ab61a845afdef5b7c387490eaf3616ee>@@@Z 00000001400259b0 f   libucrtd:fflush.obj
 0001:00024a10       ??$__acrt_lock_stream_and_call@V<lambda_c5860995281e5c4ce005b3de8f5874ee>@@@@YAXQEAU_iobuf@@$$QEAV<lambda_c5860995281e5c4ce005b3de8f5874ee>@@@Z 0000000140025a10 f   libucrtd:fflush.obj
 0001:00024a70       ??0<lambda_c5860995281e5c4ce005b3de8f5874ee>@@QEAA@AEBV__crt_stdio_stream@@AEAHAEB_N1@Z 0000000140025a70 f   libucrtd:fflush.obj
 0001:00024ad0       ??R<lambda_ab61a845afdef5b7c387490eaf3616ee>@@QEBA@XZ 0000000140025ad0 f   libucrtd:fflush.obj
 0001:00024bc0       ??R<lambda_c5860995281e5c4ce005b3de8f5874ee>@@QEBAXXZ 0000000140025bc0 f   libucrtd:fflush.obj
 0001:00024c70       ?_fflush_nolock_internal@@YAHQEAU_iobuf@@AEAV__crt_cached_ptd_host@@@Z 0000000140025c70 f   libucrtd:fflush.obj
 0001:00024d10       ?common_flush_all@@YAH_N@Z 0000000140025d10 f   libucrtd:fflush.obj
 0001:00024d80       ?common_flush_all_should_try_to_flush_stream@@YA_NV__crt_stdio_stream@@QEAH@Z 0000000140025d80 f   libucrtd:fflush.obj
 0001:00024df0       ?is_stream_allocated@@YA_NJ@Z 0000000140025df0 f   libucrtd:fflush.obj
 0001:00024e20       ?is_stream_flushable@@YA_NJ@Z 0000000140025e20 f   libucrtd:fflush.obj
 0001:00024e50       ?is_stream_flushable_or_commitable@@YA_NJ@Z 0000000140025e50 f   libucrtd:fflush.obj
 0001:000250e0       ?get_std_handle_id@@YAKH@Z 00000001400260e0 f   libucrtd:ioinit.obj
 0001:00025130       ?initialize_inherited_file_handles_nolock@@YAXXZ 0000000140026130 f   libucrtd:ioinit.obj
 0001:000252e0       ?initialize_stdio_handles_nolock@@YAXXZ 00000001400262e0 f   libucrtd:ioinit.obj
 0001:00025630       ??$?RV<lambda_19eaff14c5fe7be5b1b106a862eb1091>@@AEAV<lambda_af29824b49a67d335554598d6cad2be6>@@V<lambda_3ce37f5b621ab310299ea5f68cbdf3bb>@@@?$__crt_seh_guarded_call@H@@QEAAH$$QEAV<lambda_19eaff14c5fe7be5b1b106a862eb1091>@@AEAV<lambda_af29824b49a67d335554598d6cad2be6>@@$$QEAV<lambda_3ce37f5b621ab310299ea5f68cbdf3bb>@@@Z 0000000140026630 f   libucrtd:close.obj
 0001:00025680       ??$__acrt_lowio_lock_fh_and_call@V<lambda_af29824b49a67d335554598d6cad2be6>@@@@YAHH$$QEAV<lambda_af29824b49a67d335554598d6cad2be6>@@@Z 0000000140026680 f   libucrtd:close.obj
 0001:000256e0       ??R<lambda_19eaff14c5fe7be5b1b106a862eb1091>@@QEBAXXZ 00000001400266e0 f   libucrtd:close.obj
 0001:000256e0       ??R<lambda_7d29013d608e9f25a034de83c9b9e983>@@QEBAXXZ 00000001400266e0 f   libucrtd:commit.obj
 0001:00025700       ??R<lambda_3ce37f5b621ab310299ea5f68cbdf3bb>@@QEBAXXZ 0000000140026700 f   libucrtd:close.obj
 0001:00025700       ??R<lambda_b869e5a4e1069fcb5c3da79c0d999133>@@QEBAXXZ 0000000140026700 f   libucrtd:commit.obj
 0001:00025720       ??R<lambda_af29824b49a67d335554598d6cad2be6>@@QEBAHXZ 0000000140026720 f   libucrtd:close.obj
 0001:000257f0       ?close_os_handle_nolock@@YAKH@Z 00000001400267f0 f   libucrtd:close.obj
 0001:00025de0       ?find_or_allocate_unused_stream_nolock@@YA?AV__crt_stdio_stream@@XZ 0000000140026de0 f   libucrtd:stream.obj
 0001:00026020       ??$?RV<lambda_0ae27a3a962d80f24befdcbee591983d>@@AEAV<lambda_8d0ee55de4b1038c4002e0adecdf1839>@@V<lambda_dc504788e8f1664fe9b84e20bfb512f2>@@@?$__crt_seh_guarded_call@X@@QEAAX$$QEAV<lambda_0ae27a3a962d80f24befdcbee591983d>@@AEAV<lambda_8d0ee55de4b1038c4002e0adecdf1839>@@$$QEAV<lambda_dc504788e8f1664fe9b84e20bfb512f2>@@@Z 0000000140027020 f   libucrtd:per_thread_data.obj
 0001:00026060       ??$?RV<lambda_2d41944a1d46af3157314b8a01080d33>@@AEAV<lambda_8f455de75cd7d7f24b4096f044d8b9e6>@@V<lambda_aa500f224e6afead328df44964fe2772>@@@?$__crt_seh_guarded_call@X@@QEAAX$$QEAV<lambda_2d41944a1d46af3157314b8a01080d33>@@AEAV<lambda_8f455de75cd7d7f24b4096f044d8b9e6>@@$$QEAV<lambda_aa500f224e6afead328df44964fe2772>@@@Z 0000000140027060 f   libucrtd:per_thread_data.obj
 0001:000260a0       ??$?RV<lambda_74a0ef281e44d15e1136f792f539efb3>@@AEAV<lambda_e157831efee4ea0afb0a2ace5dd5fd0d>@@V<lambda_04ddeca75b7c13fd67716e8dfcef87ee>@@@?$__crt_seh_guarded_call@X@@QEAAX$$QEAV<lambda_74a0ef281e44d15e1136f792f539efb3>@@AEAV<lambda_e157831efee4ea0afb0a2ace5dd5fd0d>@@$$QEAV<lambda_04ddeca75b7c13fd67716e8dfcef87ee>@@@Z 00000001400270a0 f   libucrtd:per_thread_data.obj
 0001:000260e0       ??$?RV<lambda_aa87e3671a710a21b5dc78c0bdf72e11>@@AEAV<lambda_92619d2358a28f41a33ba319515a20b9>@@V<lambda_6992ecaafeb10aed2b74cb1fae11a551>@@@?$__crt_seh_guarded_call@X@@QEAAX$$QEAV<lambda_aa87e3671a710a21b5dc78c0bdf72e11>@@AEAV<lambda_92619d2358a28f41a33ba319515a20b9>@@$$QEAV<lambda_6992ecaafeb10aed2b74cb1fae11a551>@@@Z 00000001400270e0 f   libucrtd:per_thread_data.obj
 0001:00026120       ??$__acrt_lock_and_call@V<lambda_8d0ee55de4b1038c4002e0adecdf1839>@@@@YAXW4__acrt_lock_id@@$$QEAV<lambda_8d0ee55de4b1038c4002e0adecdf1839>@@@Z 0000000140027120 f   libucrtd:per_thread_data.obj
 0001:00026180       ??$__acrt_lock_and_call@V<lambda_8f455de75cd7d7f24b4096f044d8b9e6>@@@@YAXW4__acrt_lock_id@@$$QEAV<lambda_8f455de75cd7d7f24b4096f044d8b9e6>@@@Z 0000000140027180 f   libucrtd:per_thread_data.obj
 0001:000261e0       ??$__acrt_lock_and_call@V<lambda_92619d2358a28f41a33ba319515a20b9>@@@@YAXW4__acrt_lock_id@@$$QEAV<lambda_92619d2358a28f41a33ba319515a20b9>@@@Z 00000001400271e0 f   libucrtd:per_thread_data.obj
 0001:00026240       ??$__acrt_lock_and_call@V<lambda_e157831efee4ea0afb0a2ace5dd5fd0d>@@@@YAXW4__acrt_lock_id@@$$QEAV<lambda_e157831efee4ea0afb0a2ace5dd5fd0d>@@@Z 0000000140027240 f   libucrtd:per_thread_data.obj
 0001:000262a0       ??R<lambda_8d0ee55de4b1038c4002e0adecdf1839>@@QEBAXXZ 00000001400272a0 f   libucrtd:per_thread_data.obj
 0001:000262c0       ??R<lambda_8f455de75cd7d7f24b4096f044d8b9e6>@@QEBAXXZ 00000001400272c0 f   libucrtd:per_thread_data.obj
 0001:000262e0       ??R<lambda_92619d2358a28f41a33ba319515a20b9>@@QEBAXXZ 00000001400272e0 f   libucrtd:per_thread_data.obj
 0001:00026310       ??R<lambda_e157831efee4ea0afb0a2ace5dd5fd0d>@@QEBAXXZ 0000000140027310 f   libucrtd:per_thread_data.obj
 0001:00026380       ?construct_ptd@@YAXQEAU__acrt_ptd@@QEAPEAU__crt_locale_data@@@Z 0000000140027380 f   libucrtd:per_thread_data.obj
 0001:00026460       ?construct_ptd_array@@YAXQEAU__acrt_ptd@@@Z 0000000140027460 f   libucrtd:per_thread_data.obj
 0001:000264d0       ?destroy_fls@@YAXPEAX@Z    00000001400274d0 f   libucrtd:per_thread_data.obj
 0001:00026510       ?destroy_ptd@@YAXQEAU__acrt_ptd@@@Z 0000000140027510 f   libucrtd:per_thread_data.obj
 0001:00026640       ?destroy_ptd_array@@YAXQEAU__acrt_ptd@@@Z 0000000140027640 f   libucrtd:per_thread_data.obj
 0001:00026690       ?internal_get_ptd_head@@YAPEAU__acrt_ptd@@XZ 0000000140027690 f   libucrtd:per_thread_data.obj
 0001:000267e0       ?internal_getptd_noexit@@YAPEAU__acrt_ptd@@AEBV__crt_scoped_get_last_error_reset@@_K@Z 00000001400277e0 f   libucrtd:per_thread_data.obj
 0001:00026820       ?internal_getptd_noexit@@YAPEAU__acrt_ptd@@XZ 0000000140027820 f   libucrtd:per_thread_data.obj
 0001:00026860       ?replace_current_thread_locale_nolock@@YAXQEAU__acrt_ptd@@QEAU__crt_locale_data@@@Z 0000000140027860 f   libucrtd:per_thread_data.obj
 0001:00026920       ?try_get_ptd_head@@YAPEAU__acrt_ptd@@XZ 0000000140027920 f   libucrtd:per_thread_data.obj
 0001:000274e8       $LN90                      00000001400284e8     libucrtd:openfile.obj
 0001:00027520       $LN89                      0000000140028520     libucrtd:openfile.obj
 0001:00027580       ??$common_openfile@D@@YAPEAU_iobuf@@QEBD0HV__crt_stdio_stream@@@Z 0000000140028580 f   libucrtd:openfile.obj
 0001:00027b80       ??$translate_text_mode_nolock@D@@YAHHQEAD_K@Z 0000000140028b80 f   libucrtd:read.obj
 0001:00027f90       ??$translate_text_mode_nolock@_W@@YAHHQEA_W_K@Z 0000000140028f90 f   libucrtd:read.obj
 0001:00028420       ?store_lookahead@@YAXHD@Z  0000000140029420 f   libucrtd:read.obj
 0001:00028460       ?store_lookahead@@YAXH_W@Z 0000000140029460 f   libucrtd:read.obj
 0001:00028540       ?translate_ansi_or_utf8_nolock@@YAHHQEAD_KQEA_W1@Z 0000000140029540 f   libucrtd:read.obj
 0001:000288e0       ?translate_utf16_from_console_nolock@@YAHHQEA_W_K@Z 00000001400298e0 f   libucrtd:read.obj
 0001:00029b50       ??$common_refill_and_read_nolock@D@@YAHV__crt_stdio_stream@@@Z 000000014002ab50 f   libucrtd:_filbuf.obj
 0001:00029f20       ?get_context_nolock@@YAHV__crt_stdio_stream@@D@Z 000000014002af20 f   libucrtd:_filbuf.obj
 0001:00029f30       ?is_buffer_valid_nolock@@YA_NV__crt_stdio_stream@@D@Z 000000014002af30 f   libucrtd:_filbuf.obj
 0001:00029f80       ?read_character_nolock@@YAEV__crt_stdio_stream@@HD@Z 000000014002af80 f   libucrtd:_filbuf.obj
 0001:0002a020       ??$common_lseek@_J@@YA_JH_JHAEAV__crt_cached_ptd_host@@@Z 000000014002b020 f   libucrtd:lseek.obj
 0001:0002a3d0       ??$common_lseek_nolock@_J@@YA_JH_JHAEAV__crt_cached_ptd_host@@@Z 000000014002b3d0 f   libucrtd:lseek.obj
 0001:0002a500       ?common_lseek_do_seek_nolock@@YA_JQEAX_JHAEAV__crt_cached_ptd_host@@@Z 000000014002b500 f   libucrtd:lseek.obj
 0001:0002a6a0       ?write_binary_nolock@@YA?AUwrite_result@?A0x17268360@@HQEBDI@Z 000000014002b6a0 f   libucrtd:write.obj
 0001:0002a770       ?write_double_translated_ansi_nolock@@YA?AUwrite_result@?A0x17268360@@HQEBDIAEAV__crt_cached_ptd_host@@@Z 000000014002b770 f   libucrtd:write.obj
 0001:0002b4d0       ?write_double_translated_unicode_nolock@@YA?AUwrite_result@?A0x17268360@@QEBDI@Z 000000014002c4d0 f   libucrtd:write.obj
 0001:0002b630       ?write_requires_double_translation_nolock@@YA_NHAEAV__crt_cached_ptd_host@@@Z 000000014002c630 f   libucrtd:write.obj
 0001:0002b740       ?write_text_ansi_nolock@@YA?AUwrite_result@?A0x17268360@@HQEBDI@Z 000000014002c740 f   libucrtd:write.obj
 0001:0002b970       ?write_text_utf16le_nolock@@YA?AUwrite_result@?A0x17268360@@HQEBDI@Z 000000014002c970 f   libucrtd:write.obj
 0001:0002bbc0       ?write_text_utf8_nolock@@YA?AUwrite_result@?A0x17268360@@HQEBDI@Z 000000014002cbc0 f   libucrtd:write.obj
 0001:0002c9c0       ??$common_flush_and_write_nolock@D@@YAHHV__crt_stdio_stream@@AEAV__crt_cached_ptd_host@@@Z 000000014002d9c0 f   libucrtd:_flsbuf.obj
 0001:0002cc20       ??$write_buffer_nolock@D@@YA_NDV__crt_stdio_stream@@AEAV__crt_cached_ptd_host@@@Z 000000014002dc20 f   libucrtd:_flsbuf.obj
 0001:0002ced0       ?stream_is_at_end_of_file_nolock@@YA_NV__crt_stdio_stream@@@Z 000000014002ded0 f   libucrtd:_flsbuf.obj
 0001:0002de20       ??$common_strnlen@$00G@@YA_KQEBG_K@Z 000000014002ee20 f   libucrtd:strnlen.obj
 0001:0002de80       ??$common_strnlen@$0A@E@@YA_KQEBE_K@Z 000000014002ee80 f   libucrtd:strnlen.obj
 0001:0002dee0       ??$common_strnlen@$0A@G@@YA_KQEBG_K@Z 000000014002eee0 f   libucrtd:strnlen.obj
 0001:0002df40       ??$common_strnlen_c@$00G@@YA_KQEBG_K@Z 000000014002ef40 f   libucrtd:strnlen.obj
 0001:0002dfc0       ??$common_strnlen_c@$0A@E@@YA_KQEBE_K@Z 000000014002efc0 f   libucrtd:strnlen.obj
 0001:0002e040       ??$common_strnlen_c@$0A@G@@YA_KQEBG_K@Z 000000014002f040 f   libucrtd:strnlen.obj
 0001:0002e0c0       ??$common_strnlen_simd@$00$00G@@YA_KQEBG_K@Z 000000014002f0c0 f   libucrtd:strnlen.obj
 0001:0002e360       ??$common_strnlen_simd@$00$0A@G@@YA_KQEBG_K@Z 000000014002f360 f   libucrtd:strnlen.obj
 0001:0002e650       ??$common_strnlen_simd@$0A@$00E@@YA_KQEBE_K@Z 000000014002f650 f   libucrtd:strnlen.obj
 0001:0002e8d0       ??$common_strnlen_simd@$0A@$00G@@YA_KQEBG_K@Z 000000014002f8d0 f   libucrtd:strnlen.obj
 0001:0002eb70       ??$common_strnlen_simd@$0A@$0A@E@@YA_KQEBE_K@Z 000000014002fb70 f   libucrtd:strnlen.obj
 0001:0002ee40       ??$common_strnlen_simd@$0A@$0A@G@@YA_KQEBG_K@Z 000000014002fe40 f   libucrtd:strnlen.obj
 0001:0002f130       ??$last_reached@$00@@YA_NQEBX0@Z 0000000140030130 f   libucrtd:strnlen.obj
 0001:0002f140       ??$last_reached@$0A@@@YA_NQEBX0@Z 0000000140030140 f   libucrtd:strnlen.obj
 0001:0002f690       ?fe_to_nearest@@YA_NQEBN_KF@Z 0000000140030690 f   libucrtd:cvt.obj
 0001:0002f7e0       ?fp_format_a@@YAHQEBNPEAD_KQEAD2H_NIW4__acrt_rounding_mode@@AEAV__crt_cached_ptd_host@@@Z 00000001400307e0 f   libucrtd:cvt.obj
 0001:00030030       ?fp_format_e@@YAHQEBNQEAD_K12H_NIW4__acrt_rounding_mode@@AEAV__crt_cached_ptd_host@@@Z 0000000140031030 f   libucrtd:cvt.obj
 0001:00030210       ?fp_format_e_internal@@YAHQEAD_KH_NIQEAU_strflt@@2AEAV__crt_cached_ptd_host@@@Z 0000000140031210 f   libucrtd:cvt.obj
 0001:00030640       ?fp_format_f@@YAHQEBNQEAD_K12HW4__acrt_rounding_mode@@AEAV__crt_cached_ptd_host@@@Z 0000000140031640 f   libucrtd:cvt.obj
 0001:000307d0       ?fp_format_f_internal@@YAHQEAD_KHQEAU_strflt@@_NAEAV__crt_cached_ptd_host@@@Z 00000001400317d0 f   libucrtd:cvt.obj
 0001:00030a10       ?fp_format_g@@YAHQEBNQEAD_K12H_NIW4__acrt_rounding_mode@@AEAV__crt_cached_ptd_host@@@Z 0000000140031a10 f   libucrtd:cvt.obj
 0001:00030c70       ?fp_format_nan_or_infinity@@YAHW4__acrt_fp_class@@_NPEAD_K1@Z 0000000140031c70 f   libucrtd:cvt.obj
 0001:00030de0       ?shift_bytes@@YAXQEAD_K0H@Z 0000000140031de0 f   libucrtd:cvt.obj
 0001:00030e30       ?should_round_up@@YA_NQEBN_KFW4__acrt_rounding_mode@@@Z 0000000140031e30 f   libucrtd:cvt.obj
 0001:000315f8       $LN42                      00000001400325f8     libucrtd:cvt.obj
 0001:0003160c       $LN41                      000000014003260c     libucrtd:cvt.obj
 0001:00032150       ??$common_tcscat_s@_W@@YAHQEA_W_KQEB_W@Z 0000000140033150 f   libucrtd:wcscat_s.obj
 0001:00032810       ??$common_tcscpy_s@_W@@YAHQEA_W_KQEB_W@Z 0000000140033810 f   libucrtd:wcscpy_s.obj
 0001:00032d40       ??$common_tcsncpy_s@_W@@YAHQEA_W_KQEB_W1@Z 0000000140033d40 f   libucrtd:wcsncpy_s.obj
 0001:00033430       ??$common_show_message_box@_W@@YAHQEB_W0I@Z 0000000140034430 f   libucrtd:crtmbox.obj
 0001:00033610       ?<lambda_invoker_cdecl>@<lambda_a1ce4c8ae42411fd470c77163914f50e>@@CAHPEBX0@Z 0000000140034610 f   libucrtd:argv_wildcards.obj
 0001:00033a40       ??$common_expand_argv_wildcards@D@@YAHQEAPEADQEAPEAPEAD@Z 0000000140034a40 f   libucrtd:argv_wildcards.obj
 0001:00033e70       ??$copy_and_add_argument_to_buffer@D@@YAHQEBD0_KAEAV?$argument_list@D@?A0x5f5c8891@@@Z 0000000140034e70 f   libucrtd:argv_wildcards.obj
 0001:00034020       ??$expand_argument_wildcards@D@@YAHQEAD0AEAV?$argument_list@D@?A0x5f5c8891@@@Z 0000000140035020 f   libucrtd:argv_wildcards.obj
 0001:00034510       ??0?$argument_list@D@?A0x5f5c8891@@QEAA@XZ 0000000140035510 f   libucrtd:argv_wildcards.obj
 0001:000345a0       ??1?$argument_list@D@?A0x5f5c8891@@QEAA@XZ 00000001400355a0 f   libucrtd:argv_wildcards.obj
 0001:00034610       ??B<lambda_a1ce4c8ae42411fd470c77163914f50e>@@QEBAP6AHPEBX0@ZXZ 0000000140035610 f   libucrtd:argv_wildcards.obj
 0001:00034670       ??R<lambda_a1ce4c8ae42411fd470c77163914f50e>@@QEBAHPEBX0@Z 0000000140035670 f   libucrtd:argv_wildcards.obj
 0001:000346b0       ??R<lambda_cfae5a0e6efa98e0d1aa03c4cec8f74e>@@QEBA_ND@Z 00000001400356b0 f   libucrtd:argv_wildcards.obj
 0001:000349c0       ?append@?$argument_list@D@?A0x5f5c8891@@QEAAHQEAD@Z 00000001400359c0 f   libucrtd:argv_wildcards.obj
 0001:00034b00       ?end@?$argument_list@D@?A0x5f5c8891@@QEBAPEAPEADXZ 0000000140035b00 f   libucrtd:argv_wildcards.obj
 0001:00034b10       ?expand_if_necessary@?$argument_list@D@?A0x5f5c8891@@AEAAHXZ 0000000140035b10 f   libucrtd:argv_wildcards.obj
 0001:00034cf0       ?get_file_name@@YAPEADQEAV?$__crt_win32_buffer@DU__crt_win32_buffer_internal_dynamic_resizing@@@@QEA_W@Z 0000000140035cf0 f   libucrtd:argv_wildcards.obj
 0001:00034d40       ?get_wide@@YAPEA_WQEAV?$__crt_win32_buffer@_WU__crt_win32_buffer_internal_dynamic_resizing@@@@QEAD@Z 0000000140035d40 f   libucrtd:argv_wildcards.obj
 0001:00034d90       ?previous_character@@YAPEADQEAD0@Z 0000000140035d90 f   libucrtd:argv_wildcards.obj
 0001:00034e20       ?size@?$argument_list@D@?A0x5f5c8891@@QEBA_KXZ 0000000140035e20 f   libucrtd:argv_wildcards.obj
 0001:00035380       ??$?RV<lambda_efa02eb69bf647d2f7ff0dd6f1103f72>@@AEAV<lambda_bd5a608237428601b7e45fbdc72b1ae8>@@V<lambda_728235dc0fc2b1f82d1fa5b3e7102d8f>@@@?$__crt_seh_guarded_call@X@@QEAAX$$QEAV<lambda_efa02eb69bf647d2f7ff0dd6f1103f72>@@AEAV<lambda_bd5a608237428601b7e45fbdc72b1ae8>@@$$QEAV<lambda_728235dc0fc2b1f82d1fa5b3e7102d8f>@@@Z 0000000140036380 f   libucrtd:mbctype.obj
 0001:000353c0       ??$__acrt_lock_and_call@V<lambda_bd5a608237428601b7e45fbdc72b1ae8>@@@@YAXW4__acrt_lock_id@@$$QEAV<lambda_bd5a608237428601b7e45fbdc72b1ae8>@@@Z 00000001400363c0 f   libucrtd:mbctype.obj
 0001:00035500       ??R<lambda_bd5a608237428601b7e45fbdc72b1ae8>@@QEBAXXZ 0000000140036500 f   libucrtd:mbctype.obj
 0001:00035630       ?CPtoLocaleName@@YAPEB_WH@Z 0000000140036630 f   libucrtd:mbctype.obj
 0001:000356d0       ?getSystemCP@@YAHH@Z       00000001400366d0 f   libucrtd:mbctype.obj
 0001:000357b0       ?setSBCS@@YAXPEAU__crt_multibyte_data@@@Z 00000001400367b0 f   libucrtd:mbctype.obj
 0001:000358b0       ?setSBUpLow@@YAXPEAU__crt_multibyte_data@@@Z 00000001400368b0 f   libucrtd:mbctype.obj
 0001:00035ca0       ?setmbcp_internal@@YAHH_NQEAU__acrt_ptd@@QEAPEAU__crt_multibyte_data@@@Z 0000000140036ca0 f   libucrtd:mbctype.obj
 0001:00035f20       ?update_thread_multibyte_data_internal@@YAPEAU__crt_multibyte_data@@QEAU__acrt_ptd@@QEAPEAU1@@Z 0000000140036f20 f   libucrtd:mbctype.obj
 0001:00036630       ?x_ismbbtype_l@@YAHPEAU__crt_locale_pointers@@IHH@Z 0000000140037630 f   libucrtd:ismbbyte.obj
 0001:00036720       ?filter_mbtowcs_flags@@YAKIK@Z 0000000140037720 f   libucrtd:multibytetowidechar.obj
 0001:00036820       ?filter_wcstomb_flags@@YAKIK@Z 0000000140037820 f   libucrtd:widechartomultibyte.obj
 0001:000369f0       ??1?$__crt_unique_handle_t@Uenvironment_strings_traits@?A0x1bf47908@@@@QEAA@XZ 00000001400379f0 f   libucrtd:get_environment_from_os.obj
 0001:00036a10       ?close@?$__crt_unique_handle_t@Uenvironment_strings_traits@?A0x1bf47908@@@@QEAAXXZ 0000000140037a10 f   libucrtd:get_environment_from_os.obj
 0001:00036a50       ?close@environment_strings_traits@?A0x1bf47908@@SA_NPEA_W@Z 0000000140037a50 f   libucrtd:get_environment_from_os.obj
 0001:00036a70       ?find_end_of_double_null_terminated_sequence@@YAPEB_WQEB_W@Z 0000000140037a70 f   libucrtd:get_environment_from_os.obj
 0001:00036ac0       ?is_valid@?$__crt_unique_handle_t@Uenvironment_strings_traits@?A0x1bf47908@@@@QEBA_NXZ 0000000140037ac0 f   libucrtd:get_environment_from_os.obj
 0001:00036d30       ??$common_set_variable_in_environment_nolock@D@@YAHQEADH@Z 0000000140037d30 f   libucrtd:setenv.obj
 0001:000375b0       ??$copy_environment@D@@YAPEAPEADQEAPEAD@Z 00000001400385b0 f   libucrtd:setenv.obj
 0001:00037780       ??$ensure_current_environment_is_not_initial_environment_nolock@D@@YAXXZ 0000000140038780 f   libucrtd:setenv.obj
 0001:000377d0       ??$find_in_environment_nolock@D@@YA_JQEBD_K@Z 00000001400387d0 f   libucrtd:setenv.obj
 0001:00037990       ?get_other_environment@@YAAEAPEAPEA_WD@Z 0000000140038990 f   libucrtd:setenv.obj
 0001:00037b20       ??$get_cached_win_policy@Udeveloper_information_policy_properties@?1??__acrt_get_developer_information_policy@@YA?AW4developer_information_policy@@XZ@@@YA?AW4developer_information_policy@@W4AppPolicyShowDeveloperDiagnostic@@@Z 0000000140038b20 f   libucrtd:win_policies.obj
 0001:00037bf0       ??$get_cached_win_policy@Uwindowing_model_policy_properties@?1??__acrt_get_windowing_model_policy@@YA?AW4windowing_model_policy@@XZ@@@YA?AW4windowing_model_policy@@W4AppPolicyWindowingModel@@@Z 0000000140038bf0 f   libucrtd:win_policies.obj
 0001:00037cc0       ??$get_win_policy@Uprocess_end_policy_properties@?1??__acrt_get_process_end_policy@@YA?AW4process_end_policy@@XZ@@@YA?AW4process_end_policy@@W4AppPolicyProcessTerminationMethod@@@Z 0000000140038cc0 f   libucrtd:win_policies.obj
 0001:00037d10       ?appmodel_get_policy@developer_information_policy_properties@?1??__acrt_get_developer_information_policy@@YA?AW4developer_information_policy@@XZ@SAJPEAW4AppPolicyShowDeveloperDiagnostic@@@Z 0000000140038d10 f   libucrtd:win_policies.obj
 0001:00037d30       ?appmodel_get_policy@process_end_policy_properties@?1??__acrt_get_process_end_policy@@YA?AW4process_end_policy@@XZ@SAJPEAW4AppPolicyProcessTerminationMethod@@@Z 0000000140038d30 f   libucrtd:win_policies.obj
 0001:00037d50       ?appmodel_get_policy@windowing_model_policy_properties@?1??__acrt_get_windowing_model_policy@@YA?AW4windowing_model_policy@@XZ@SAJPEAW4AppPolicyWindowingModel@@@Z 0000000140038d50 f   libucrtd:win_policies.obj
 0001:00037d70       ?appmodel_policy_to_policy_type@developer_information_policy_properties@?1??__acrt_get_developer_information_policy@@YA?AW4developer_information_policy@@XZ@SA?AW43@J@Z 0000000140038d70 f   libucrtd:win_policies.obj
 0001:00037d90       ?appmodel_policy_to_policy_type@process_end_policy_properties@?1??__acrt_get_process_end_policy@@YA?AW4process_end_policy@@XZ@SA?AW43@W4AppPolicyProcessTerminationMethod@@@Z 0000000140038d90 f   libucrtd:win_policies.obj
 0001:00037db0       ?appmodel_policy_to_policy_type@windowing_model_policy_properties@?1??__acrt_get_windowing_model_policy@@YA?AW4windowing_model_policy@@XZ@SA?AW43@J@Z 0000000140038db0 f   libucrtd:win_policies.obj
 0001:000381a0       ??$free_crt_array@D$01@@YAXAEAY01PEAD@Z 00000001400391a0 f   libucrtd:inittime.obj
 0001:000381a0       ??$free_crt_array@_W$01@@YAXAEAY01PEA_W@Z 00000001400391a0 f   libucrtd:inittime.obj
 0001:000381c0       ??$free_crt_array@D$06@@YAXAEAY06PEAD@Z 00000001400391c0 f   libucrtd:inittime.obj
 0001:000381c0       ??$free_crt_array@_W$06@@YAXAEAY06PEA_W@Z 00000001400391c0 f   libucrtd:inittime.obj
 0001:000381e0       ??$free_crt_array@D$0M@@@YAXAEAY0M@PEAD@Z 00000001400391e0 f   libucrtd:inittime.obj
 0001:000381e0       ??$free_crt_array@_W$0M@@@YAXAEAY0M@PEA_W@Z 00000001400391e0 f   libucrtd:inittime.obj
 0001:00038200       ?free_crt_array_internal@@YAXQEAPEBX_K@Z 0000000140039200 f   libucrtd:inittime.obj
 0001:00039550       ??$?RV<lambda_450d765d439847d4c735a33c368b5fc0>@@AEAV<lambda_44731a7d0e6d81c3e6aa82d741081786>@@V<lambda_601a2a7da3b7a96e9554ac7215c4b07c>@@@?$__crt_seh_guarded_call@P6AXH@Z@@QEAAP6AXH@Z$$QEAV<lambda_450d765d439847d4c735a33c368b5fc0>@@AEAV<lambda_44731a7d0e6d81c3e6aa82d741081786>@@$$QEAV<lambda_601a2a7da3b7a96e9554ac7215c4b07c>@@@Z 000000014003a550 f   libucrtd:signal.obj
 0001:000395a0       ??$__acrt_lock_and_call@V<lambda_44731a7d0e6d81c3e6aa82d741081786>@@@@YAP6AXH@ZW4__acrt_lock_id@@$$QEAV<lambda_44731a7d0e6d81c3e6aa82d741081786>@@@Z 000000014003a5a0 f   libucrtd:signal.obj
 0001:00039600       ??R<lambda_44731a7d0e6d81c3e6aa82d741081786>@@QEBAP6AXH@ZXZ 000000014003a600 f   libucrtd:signal.obj
 0001:00039630       ?get_global_action_nolock@@YAPEAP6AXH@ZH@Z 000000014003a630 f   libucrtd:signal.obj
 0001:000396c0       ?siglookup@@YAPEAU__crt_signal_action_t@@HQEAU1@@Z 000000014003a6c0 f   libucrtd:signal.obj
 0001:00039c94       $LN58                      000000014003ac94     libucrtd:signal.obj
 0001:00039ca0       $LN57                      000000014003aca0     libucrtd:signal.obj
 0001:00039cc0       ?select_heap@@YAPEAXQEAX@Z 000000014003acc0 f   libucrtd:free_base.obj
 0001:00039de0       ?is_contraction_possible@@YA_N_K@Z 000000014003ade0 f   libucrtd:expand.obj
 0001:0003b790       ?GetTableIndexFromLocaleName@@YAHPEB_W@Z 000000014003c790 f   libucrtd:lcidtoname_downlevel.obj
 0001:0003b8a0       ??$?RV<lambda_7d29013d608e9f25a034de83c9b9e983>@@AEAV<lambda_3e4146214822e0ea86c47ff907aef2ff>@@V<lambda_b869e5a4e1069fcb5c3da79c0d999133>@@@?$__crt_seh_guarded_call@H@@QEAAH$$QEAV<lambda_7d29013d608e9f25a034de83c9b9e983>@@AEAV<lambda_3e4146214822e0ea86c47ff907aef2ff>@@$$QEAV<lambda_b869e5a4e1069fcb5c3da79c0d999133>@@@Z 000000014003c8a0 f   libucrtd:commit.obj
 0001:0003b8f0       ??$__acrt_lowio_lock_fh_and_call@V<lambda_3e4146214822e0ea86c47ff907aef2ff>@@@@YAHH$$QEAV<lambda_3e4146214822e0ea86c47ff907aef2ff>@@@Z 000000014003c8f0 f   libucrtd:commit.obj
 0001:0003b950       ??R<lambda_3e4146214822e0ea86c47ff907aef2ff>@@QEBAHXZ 000000014003c950 f   libucrtd:commit.obj
 0001:0003c360       ??$common_sopen_dispatch@D@@YAHQEBDHHHQEAHH@Z 000000014003d360 f   libucrtd:open.obj
 0001:0003c720       ?configure_text_mode@@YAHHUfile_options@?A0xa9d50aae@@HAEAW4__crt_lowio_text_mode@@@Z 000000014003d720 f   libucrtd:open.obj
 0001:0003ccc0       ?create_file@@YAPEAXQEB_WQEAU_SECURITY_ATTRIBUTES@@Ufile_options@?A0xa9d50aae@@@Z 000000014003dcc0 f   libucrtd:open.obj
 0001:0003cd30       ?decode_access_flags@@YAKH@Z 000000014003dd30 f   libucrtd:open.obj
 0001:0003ce50       ?decode_open_create_flags@@YAKH@Z 000000014003de50 f   libucrtd:open.obj
 0001:0003cfa0       ?decode_options@@YA?AUfile_options@?A0xa9d50aae@@HHH@Z 000000014003dfa0 f   libucrtd:open.obj
 0001:0003d130       ?decode_sharing_flags@@YAKHH@Z 000000014003e130 f   libucrtd:open.obj
 0001:0003d260       ?is_text_mode@@YA_NH@Z     000000014003e260 f   libucrtd:open.obj
 0001:0003d2e0       ?truncate_ctrl_z_if_present@@YAHH@Z 000000014003e2e0 f   libucrtd:open.obj
 0001:0003df70       ??R<lambda_599026849492e2a71b24cce8b46aab16>@@QEBA_KPEBD@Z 000000014003ef70 f   libucrtd:mbrtowc.obj
 0001:0003e400       ?check_trailing@@YA_NPEBDW4__acrt_has_trailing_digits@@@Z 000000014003f400 f   libucrtd:_fptostr.obj
 0001:0003e450       ?should_round_up@@YA_NQEBD0HW4__acrt_has_trailing_digits@@W4__acrt_rounding_mode@@@Z 000000014003f450 f   libucrtd:_fptostr.obj
 0001:0003eaf0       ??$convert_to_fos_high_precision@N@@YA?AW4__acrt_has_trailing_digits@@NIW4__acrt_precision_style@@QEAHQEAD_K@Z 000000014003faf0 f   libucrtd:cfout.obj
 0001:0003f210       ??0scoped_fp_state_reset@?A0x71ca7cfb@@QEAA@XZ 0000000140040210 f   libucrtd:cfout.obj
 0001:0003f260       ??1scoped_fp_state_reset@?A0x71ca7cfb@@QEAA@XZ 0000000140040260 f   libucrtd:cfout.obj
 0001:00041120       ?shortsort@@YAXPEAD0_KP6AHPEBX2@Z@Z 0000000140042120 f   libucrtd:qsort.obj
 0001:00041220       ?swap@@YAXPEAD0_K@Z        0000000140042220 f   libucrtd:qsort.obj
 0001:00041a90       ??$common_tcsncpy_s@D@@YAHQEAD_KQEBD1@Z 0000000140042a90 f   libucrtd:strncpy_s.obj
 0001:00042160       fallbackMethod             0000000140043160 f   libucrtd:strpbrk.obj
 0001:00042ac4       $LN85                      0000000140043ac4     libucrtd:strpbrk.obj
 0001:00042b00       $LN84                      0000000140043b00     libucrtd:strpbrk.obj
 0001:00042b40       $LN83                      0000000140043b40     libucrtd:strpbrk.obj
 0001:00042e40       ?__acrt_LCMapStringA_stat@@YAHPEAU__crt_locale_pointers@@PEB_WKPEBDHPEADHHH@Z 0000000140043e40 f   libucrtd:lcmapstringa.obj
 0001:000434f0       ?initialize_multibyte@@YAHXZ 00000001400444f0 f   libucrtd:multibyte_initializer.obj
 0001:00043a90       ??$common_xtox@KD@@YAHKQEAD_KI_N@Z 0000000140044a90 f   libucrtd:xtoa.obj
 0001:00043cd0       ??$common_xtox@K_W@@YAHKQEA_W_KI_N@Z 0000000140044cd0 f   libucrtd:xtoa.obj
 0001:00043f20       ??$common_xtox_s@KD@@YAHKQEAD_KI_N@Z 0000000140044f20 f   libucrtd:xtoa.obj
 0001:000442d0       ??$common_xtox_s@K_W@@YAHKQEA_W_KI_N@Z 00000001400452d0 f   libucrtd:xtoa.obj
 0001:000447e0       ?_mbstowcs_internal@@YAHPEA_KPEA_W_KPEBD2AEAV__crt_cached_ptd_host@@@Z 00000001400457e0 f   libucrtd:mbstowcs.obj
 0001:00044dc0       ?_mbstowcs_l_helper@@YA_KPEA_WPEBD_KAEAV__crt_cached_ptd_host@@@Z 0000000140045dc0 f   libucrtd:mbstowcs.obj
 0001:00045370       ?_wcstombs_internal@@YAHPEA_KPEAD_KPEB_W2AEAV__crt_cached_ptd_host@@@Z 0000000140046370 f   libucrtd:wcstombs.obj
 0001:00045940       ?_wcstombs_l_helper@@YA_KPEADPEB_W_KAEAV__crt_cached_ptd_host@@@Z 0000000140046940 f   libucrtd:wcstombs.obj
 0001:000460d0       ?wcsncnt@@YA_KPEB_W_K@Z    00000001400470d0 f   libucrtd:wcstombs.obj
 0001:000461e0       ??$common_tcscat_s@D@@YAHQEAD_KQEBD@Z 00000001400471e0 f   libucrtd:strcat_s.obj
 0001:000470f0       ??$console_output_reopen_and_retry@V<lambda_61c1b8a38cedca4df5fdc542e6ccae6d>@@@@YAHAEBV<lambda_61c1b8a38cedca4df5fdc542e6ccae6d>@@@Z 00000001400480f0 f   libucrtd:initcon.obj
 0001:00047150       ??0<lambda_61c1b8a38cedca4df5fdc542e6ccae6d>@@QEAA@AEBQEBXAEBKAEBQEAK@Z 0000000140048150 f   libucrtd:initcon.obj
 0001:000471a0       ??R<lambda_61c1b8a38cedca4df5fdc542e6ccae6d>@@QEBAHXZ 00000001400481a0 f   libucrtd:initcon.obj
 0001:000471e0       ?__dcrt_lowio_initialize_console_output@@YAXXZ 00000001400481e0 f   libucrtd:initcon.obj
 0001:000472d0       $$000000                   00000001400482d0     libucrtd:log10.obj
 0001:00047e10       ??$to_abstract_status@W4__acrt_fenv_machine_sse_status@@@@YA?AW4__acrt_fenv_abstract_status@@W4__acrt_fenv_machine_sse_status@@@Z 0000000140048e10 f   libucrtd:_fenvutils.obj
 0001:00047e30       ??$translate_control_exception_mask@W4__acrt_fenv_abstract_control@@W4__acrt_fenv_machine_sse_control@@@@YA?AW4__acrt_fenv_abstract_control@@W4__acrt_fenv_machine_sse_control@@@Z 0000000140048e30 f   libucrtd:_fenvutils.obj
 0001:00047f20       ??$translate_control_exception_mask@W4__acrt_fenv_machine_sse_control@@W4__acrt_fenv_abstract_control@@@@YA?AW4__acrt_fenv_machine_sse_control@@W4__acrt_fenv_abstract_control@@@Z 0000000140048f20 f   libucrtd:_fenvutils.obj
 0001:00048010       ??$translate_control_rounding_control@W4__acrt_fenv_abstract_control@@W4__acrt_fenv_machine_sse_control@@@@YA?AW4__acrt_fenv_abstract_control@@W4__acrt_fenv_machine_sse_control@@@Z 0000000140049010 f   libucrtd:_fenvutils.obj
 0001:00048080       ??$translate_control_rounding_control@W4__acrt_fenv_machine_sse_control@@W4__acrt_fenv_abstract_control@@@@YA?AW4__acrt_fenv_machine_sse_control@@W4__acrt_fenv_abstract_control@@@Z 0000000140049080 f   libucrtd:_fenvutils.obj
 0001:000480f0       ??$translate_status@W4__acrt_fenv_abstract_status@@W4__acrt_fenv_machine_sse_status@@@@YA?AW4__acrt_fenv_abstract_status@@W4__acrt_fenv_machine_sse_status@@@Z 00000001400490f0 f   libucrtd:_fenvutils.obj
 0001:000481e0       ??$translate_status@W4__acrt_fenv_machine_sse_status@@W4__acrt_fenv_abstract_status@@@@YA?AW4__acrt_fenv_machine_sse_status@@W4__acrt_fenv_abstract_status@@@Z 00000001400491e0 f   libucrtd:_fenvutils.obj
 0001:000484b0       ?get_machine_sse_control@@YA?AW4__acrt_fenv_machine_sse_control@@XZ 00000001400494b0 f   libucrtd:_fenvutils.obj
 0001:000484d0       ?get_machine_sse_status@@YA?AW4__acrt_fenv_machine_sse_status@@XZ 00000001400494d0 f   libucrtd:_fenvutils.obj
 0001:000484f0       ?set_machine_sse_control@@YAXW4__acrt_fenv_machine_sse_control@@@Z 00000001400494f0 f   libucrtd:_fenvutils.obj
 0001:00048550       ?set_machine_sse_status@@YAXW4__acrt_fenv_machine_sse_status@@@Z 0000000140049550 f   libucrtd:_fenvutils.obj
 0001:000485a0       ?to_abstract_control@@YA?AW4__acrt_fenv_abstract_control@@W4__acrt_fenv_machine_sse_control@@@Z 00000001400495a0 f   libucrtd:_fenvutils.obj
 0001:00048600       ?to_machine_sse_control@@YA?AW4__acrt_fenv_machine_sse_control@@W4__acrt_fenv_abstract_control@@@Z 0000000140049600 f   libucrtd:_fenvutils.obj
 0001:00048670       ?to_machine_sse_status@@YA?AW4__acrt_fenv_machine_sse_status@@W4__acrt_fenv_abstract_status@@@Z 0000000140049670 f   libucrtd:_fenvutils.obj
 0001:00048690       ?translate_control_denormal_control_from_sse@@YA?AW4__acrt_fenv_abstract_control@@W4__acrt_fenv_machine_sse_control@@@Z 0000000140049690 f   libucrtd:_fenvutils.obj
 0001:00048710       ?translate_control_denormal_control_to_sse@@YA?AW4__acrt_fenv_machine_sse_control@@W4__acrt_fenv_abstract_control@@@Z 0000000140049710 f   libucrtd:_fenvutils.obj
 0001:00048930       ?InternalCompareStringA@@YAHPEAU__crt_locale_pointers@@PEB_WKPEBDH2HH@Z 0000000140049930 f   libucrtd:comparestringa.obj
 0001:00049400       _log_special_common        000000014004a400 f   libucrtd:log_special.obj
 0001:00049520       _call_matherr              000000014004a520 f   libucrtd:libm_error.obj
 0001:000495b0       _exception_enabled         000000014004a5b0 f   libucrtd:libm_error.obj
 0001:000498d0       _abstract_cw               000000014004a8d0 f   libucrtd:ieee.obj
 0001:00049a20       _abstract_sw               000000014004aa20 f   libucrtd:ieee.obj
 0001:00049b00       _hw_cw                     000000014004ab00 f   libucrtd:ieee.obj
 0001:00049c50       common_control87           000000014004ac50 f   libucrtd:ieee.obj
 0001:00049ea0       ?combine_second_surrogate@?A0xc60ee810@@YA_U_SPEAU_Mbstatet@@@Z 000000014004aea0 f   libucrtd:c16rtomb.obj
 0001:00049ec0       ?has_surrogate@?A0xc60ee810@@YA_NPEAU_Mbstatet@@@Z 000000014004aec0 f   libucrtd:c16rtomb.obj
 0001:00049ef0       ?is_first_surrogate@?A0xc60ee810@@YA_N_S@Z 000000014004aef0 f   libucrtd:c16rtomb.obj
 0001:00049f30       ?is_second_surrogate@?A0xc60ee810@@YA_N_S@Z 000000014004af30 f   libucrtd:c16rtomb.obj
 0001:00049f70       ?store_first_surrogate@?A0xc60ee810@@YAX_SPEAU_Mbstatet@@@Z 000000014004af70 f   libucrtd:c16rtomb.obj
 0001:0004a830       $$000000                   000000014004b830     libucrtd:fpsr.obj
 0001:0004ab90       $$000000                   000000014004bb90     LIBCMTD:chkstk.obj
 0001:0004ad50       $$000000                   000000014004bd50     libvcruntimed:memcmp.obj
 0001:0004b3e0       $$000000                   000000014004c3e0     LIBCMTD:guard_dispatch.obj
 0001:0004b400       $$000000                   000000014004c400     LIBCMTD:guard_xfg_dispatch.obj
 0001:0004b420       ?filt$0@?0??__scrt_common_main_seh@@YAHXZ@4HA 000000014004c420 f   LIBCMTD:exe_main.obj
 0001:0004b450       __scrt_is_nonwritable_in_current_image$filt$0 000000014004c450 f   LIBCMTD:utility.obj
 0001:0004b490       __DestructExceptionObject$filt$0 000000014004c490 f   libvcruntimed:ehhelpers.obj
 0001:0004b4c0       ?filt$0@?0???$_CallSETranslator@V__FrameHandler3@@@@YAHPEAUEHExceptionRecord@@PEA_KPEAU_CONTEXT@@PEAU_xDISPATCHER_CONTEXT@@PEBU_s_FuncInfo@@K1H@Z@4HA 000000014004c4c0 f   libvcruntimed:risctrnsctrl.obj
 0001:0004b530       ?filt$0@?0??is_bad_read_pointer@@YA_NQEBX_K@Z@4HA 000000014004c530 f   libucrtd:debug_heap.obj
 0001:0004b530       terminate$filt$0           000000014004c530 f   libucrtd:terminate.obj
 0001:0004b530       ?filt$0@?0???$BuildCatchObjectHelperInternal@V__FrameHandler3@@@@YAHPEAUEHExceptionRecord@@PEAXPEBU_s_HandlerType@@PEBU_s_CatchableType@@@Z@4HA 000000014004c530 f   libvcruntimed:frame.obj
 0001:0004b530       ?filt$0@?0???$BuildCatchObjectInternal@V__FrameHandler3@@@@YAXPEAUEHExceptionRecord@@PEAXPEBU_s_HandlerType@@PEBU_s_CatchableType@@@Z@4HA 000000014004c530 f   libvcruntimed:frame.obj
 0001:0004b550       ?filt$0@?0??CxxCallCatchBlock@__FrameHandler3@@SAPEAXPEAU_EXCEPTION_RECORD@@@Z@4HA 000000014004c550 f   libvcruntimed:frame.obj
 0001:0004b579       ?fin$1@?0??CxxCallCatchBlock@__FrameHandler3@@SAPEAXPEAU_EXCEPTION_RECORD@@@Z@4HA 000000014004c579 f   libvcruntimed:frame.obj
 0001:0004b610       ?filt$0@?0??FrameUnwindToState@__FrameHandler3@@SAXPEA_KPEAU_xDISPATCHER_CONTEXT@@PEBU_s_FuncInfo@@H@Z@4HA 000000014004c610 f   libvcruntimed:frame.obj
 0001:0004b631       ?fin$1@?0??FrameUnwindToState@__FrameHandler3@@SAXPEA_KPEAU_xDISPATCHER_CONTEXT@@PEBU_s_FuncInfo@@H@Z@4HA 000000014004c631 f   libvcruntimed:frame.obj
 0001:0004b670       ?fin$0@?0??_fclose_internal@@YAHQEAU_iobuf@@AEAV__crt_cached_ptd_host@@@Z@4HA 000000014004c670 f   libucrtd:fclose.obj
 0001:0004b6a0       ?fin$0@?0???$common_fsopen@D@@YAPEAU_iobuf@@QEBD0H@Z@4HA 000000014004c6a0 f   libucrtd:fopen.obj
 0001:0004b6d0       fread_s$fin$0              000000014004c6d0 f   libucrtd:fread.obj
 0001:0004b6f0       ?fin$0@?0??common_fseek@@YAHV__crt_stdio_stream@@_JHAEAV__crt_cached_ptd_host@@@Z@4HA 000000014004c6f0 f   libucrtd:fseek.obj
 0001:0004b720       ?fin$0@?0???$common_ftell@J@@YAJV__crt_stdio_stream@@AEAV__crt_cached_ptd_host@@@Z@4HA 000000014004c720 f   libucrtd:ftell.obj
 0001:0004b750       ?fin$0@?0???$?RV<lambda_a2589f19c515cac03caf6db9c38355e9>@@AEAV<lambda_26974eb511f701c600fccfa2a97a8e1b>@@V<lambda_ad9ce2f38261e34e8a422b9cc35dfe8d>@@@?$__crt_seh_guarded_call@_K@@QEAA_K$$QEAV<lambda_a2589f19c515cac03caf6db9c38355e9>@@AEAV<lambda_26974eb511f701c600fccfa2a97a8e1b>@@$$QEAV<lambda_ad9ce2f38261e34e8a422b9cc35dfe8d>@@@Z@4HA 000000014004c750 f   libucrtd:fwrite.obj
 0001:0004b750       ?fin$0@?0???$?RV<lambda_d854c62834386a3b23916ad6dae2782d>@@AEAV<lambda_303760bc4008a2b3ec4768a30b06a80c>@@V<lambda_4780a7ea4f8cbd2590aec34bd14e2bbf>@@@?$__crt_seh_guarded_call@H@@QEAAH$$QEAV<lambda_d854c62834386a3b23916ad6dae2782d>@@AEAV<lambda_303760bc4008a2b3ec4768a30b06a80c>@@$$QEAV<lambda_4780a7ea4f8cbd2590aec34bd14e2bbf>@@@Z@4HA 000000014004c750 f   libucrtd:output.obj
 0001:0004b770       ?fin$0@?0??_perror_internal@@YAXQEBDAEAV__crt_cached_ptd_host@@@Z@4HA 000000014004c770 f   libucrtd:perror.obj
 0001:0004b790       ?fin$0@?0???$?RV<lambda_0ae27a3a962d80f24befdcbee591983d>@@AEAV<lambda_8d0ee55de4b1038c4002e0adecdf1839>@@V<lambda_dc504788e8f1664fe9b84e20bfb512f2>@@@?$__crt_seh_guarded_call@X@@QEAAX$$QEAV<lambda_0ae27a3a962d80f24befdcbee591983d>@@AEAV<lambda_8d0ee55de4b1038c4002e0adecdf1839>@@$$QEAV<lambda_dc504788e8f1664fe9b84e20bfb512f2>@@@Z@4HA 000000014004c790 f   libucrtd:per_thread_data.obj
 0001:0004b790       ?fin$0@?0???$?RV<lambda_2d41944a1d46af3157314b8a01080d33>@@AEAV<lambda_8f455de75cd7d7f24b4096f044d8b9e6>@@V<lambda_aa500f224e6afead328df44964fe2772>@@@?$__crt_seh_guarded_call@X@@QEAAX$$QEAV<lambda_2d41944a1d46af3157314b8a01080d33>@@AEAV<lambda_8f455de75cd7d7f24b4096f044d8b9e6>@@$$QEAV<lambda_aa500f224e6afead328df44964fe2772>@@@Z@4HA 000000014004c790 f   libucrtd:per_thread_data.obj
 0001:0004b790       ?fin$0@?0???$?RV<lambda_74a0ef281e44d15e1136f792f539efb3>@@AEAV<lambda_e157831efee4ea0afb0a2ace5dd5fd0d>@@V<lambda_04ddeca75b7c13fd67716e8dfcef87ee>@@@?$__crt_seh_guarded_call@X@@QEAAX$$QEAV<lambda_74a0ef281e44d15e1136f792f539efb3>@@AEAV<lambda_e157831efee4ea0afb0a2ace5dd5fd0d>@@$$QEAV<lambda_04ddeca75b7c13fd67716e8dfcef87ee>@@@Z@4HA 000000014004c790 f   libucrtd:per_thread_data.obj
 0001:0004b790       ?fin$0@?0???$?RV<lambda_aa87e3671a710a21b5dc78c0bdf72e11>@@AEAV<lambda_92619d2358a28f41a33ba319515a20b9>@@V<lambda_6992ecaafeb10aed2b74cb1fae11a551>@@@?$__crt_seh_guarded_call@X@@QEAAX$$QEAV<lambda_aa87e3671a710a21b5dc78c0bdf72e11>@@AEAV<lambda_92619d2358a28f41a33ba319515a20b9>@@$$QEAV<lambda_6992ecaafeb10aed2b74cb1fae11a551>@@@Z@4HA 000000014004c790 f   libucrtd:per_thread_data.obj
 0001:0004b790       ?fin$0@?0???$?RV<lambda_410d79af7f07d98d83a3f525b3859a53>@@AEAV<lambda_3e16ef9562a7dcce91392c22ab16ea36>@@V<lambda_38119f0e861e05405d8a144b9b982f0a>@@@?$__crt_seh_guarded_call@X@@QEAAX$$QEAV<lambda_410d79af7f07d98d83a3f525b3859a53>@@AEAV<lambda_3e16ef9562a7dcce91392c22ab16ea36>@@$$QEAV<lambda_38119f0e861e05405d8a144b9b982f0a>@@@Z@4HA 000000014004c790 f   libucrtd:wsetlocale.obj
 0001:0004b790       ?fin$0@?0???$?RV<lambda_efa02eb69bf647d2f7ff0dd6f1103f72>@@AEAV<lambda_bd5a608237428601b7e45fbdc72b1ae8>@@V<lambda_728235dc0fc2b1f82d1fa5b3e7102d8f>@@@?$__crt_seh_guarded_call@X@@QEAAX$$QEAV<lambda_efa02eb69bf647d2f7ff0dd6f1103f72>@@AEAV<lambda_bd5a608237428601b7e45fbdc72b1ae8>@@$$QEAV<lambda_728235dc0fc2b1f82d1fa5b3e7102d8f>@@@Z@4HA 000000014004c790 f   libucrtd:mbctype.obj
 0001:0004b790       ?fin$0@?0???$?RV<lambda_d80eeec6fff315bfe5c115232f3240e3>@@AEAV<lambda_6e4b09c48022b2350581041d5f6b0c4c>@@V<lambda_2358e3775559c9db80273638284d5e45>@@@?$__crt_seh_guarded_call@X@@QEAAX$$QEAV<lambda_d80eeec6fff315bfe5c115232f3240e3>@@AEAV<lambda_6e4b09c48022b2350581041d5f6b0c4c>@@$$QEAV<lambda_2358e3775559c9db80273638284d5e45>@@@Z@4HA 000000014004c790 f   libucrtd:exit.obj
 0001:0004b790       ?fin$0@?0???$?RV<lambda_886d6c58226a84441f68b9f2b8217b83>@@AEAV<lambda_ab61a845afdef5b7c387490eaf3616ee>@@V<lambda_f7f22ab5edc0698d5f6905b0d3f44752>@@@?$__crt_seh_guarded_call@X@@QEAAX$$QEAV<lambda_886d6c58226a84441f68b9f2b8217b83>@@AEAV<lambda_ab61a845afdef5b7c387490eaf3616ee>@@$$QEAV<lambda_f7f22ab5edc0698d5f6905b0d3f44752>@@@Z@4HA 000000014004c790 f   libucrtd:fflush.obj
 0001:0004b7b0       ?filt$0@?0???R<lambda_6e4b09c48022b2350581041d5f6b0c4c>@@QEBA@XZ@4HA 000000014004c7b0 f   libucrtd:exit.obj
 0001:0004b7e0       ?fin$0@?0???$?RV<lambda_450d765d439847d4c735a33c368b5fc0>@@AEAV<lambda_44731a7d0e6d81c3e6aa82d741081786>@@V<lambda_601a2a7da3b7a96e9554ac7215c4b07c>@@@?$__crt_seh_guarded_call@P6AXH@Z@@QEAAP6AXH@Z$$QEAV<lambda_450d765d439847d4c735a33c368b5fc0>@@AEAV<lambda_44731a7d0e6d81c3e6aa82d741081786>@@$$QEAV<lambda_601a2a7da3b7a96e9554ac7215c4b07c>@@@Z@4HA 000000014004c7e0 f   libucrtd:signal.obj
 0001:0004b7e0       ?fin$0@?0???$?RV<lambda_6a47f4c8fd0152770a780fc1d70204eb>@@AEAV<lambda_d121dba8a4adeaf3a9819e48611155df>@@V<lambda_6aaa2265f5b6a89667e7d7630012e97a>@@@?$__crt_seh_guarded_call@H@@QEAAH$$QEAV<lambda_6a47f4c8fd0152770a780fc1d70204eb>@@AEAV<lambda_d121dba8a4adeaf3a9819e48611155df>@@$$QEAV<lambda_6aaa2265f5b6a89667e7d7630012e97a>@@@Z@4HA 000000014004c7e0 f   libucrtd:onexit.obj
 0001:0004b7e0       ?fin$0@?0???$?RV<lambda_80060f20ac3990516b753a27f211934c>@@AEAV<lambda_208ce30acdd7200aa596f2796f4d5154>@@V<lambda_fd91b99c0687e8936f1d70d7d9b78e69>@@@?$__crt_seh_guarded_call@H@@QEAAH$$QEAV<lambda_80060f20ac3990516b753a27f211934c>@@AEAV<lambda_208ce30acdd7200aa596f2796f4d5154>@@$$QEAV<lambda_fd91b99c0687e8936f1d70d7d9b78e69>@@@Z@4HA 000000014004c7e0 f   libucrtd:onexit.obj
 0001:0004b800       ?dtor$0@?0???R<lambda_d121dba8a4adeaf3a9819e48611155df>@@QEBAHXZ@4HA 000000014004c800 f   libucrtd:onexit.obj
 0001:0004b820       ?fin$0@?0??heap_alloc_dbg_internal@@YAPEAX_KHQEBDH@Z@4HA 000000014004c820 f   libucrtd:debug_heap.obj
 0001:0004b820       _CrtMemCheckpoint$fin$0    000000014004c820 f   libucrtd:debug_heap.obj
 0001:0004b840       ?fin$0@?0??validate_heap_if_required_nolock@@YAXXZ@4HA 000000014004c840 f   libucrtd:debug_heap.obj
 0001:0004b860       _CrtCheckMemory$fin$0      000000014004c860 f   libucrtd:debug_heap.obj
 0001:0004b860       _CrtMemDumpAllObjectsSince$fin$0 000000014004c860 f   libucrtd:debug_heap.obj
 0001:0004b860       _CrtSetDbgFlag$fin$0       000000014004c860 f   libucrtd:debug_heap.obj
 0001:0004b860       _msize_dbg$fin$0           000000014004c860 f   libucrtd:debug_heap.obj
 0001:0004b860       _realloc_dbg$fin$0         000000014004c860 f   libucrtd:debug_heap.obj
 0001:0004b880       _free_dbg$fin$0            000000014004c880 f   libucrtd:debug_heap.obj
 0001:0004b880       _query_new_handler$fin$0   000000014004c880 f   libucrtd:new_handler.obj
 0001:0004b8a0       _fcloseall$fin$0           000000014004c8a0 f   libucrtd:closeall.obj
 0001:0004b8a0       ?fin$0@?0??__acrt_stdio_allocate_stream@@YA?AV__crt_stdio_stream@@XZ@4HA 000000014004c8a0 f   libucrtd:stream.obj
 0001:0004b8c0       ?fin$0@?0???$?RV<lambda_842d9ff0dc9ef11c61343bbaebe7f885>@@AEAV<lambda_c5860995281e5c4ce005b3de8f5874ee>@@V<lambda_d90129c13df834fdcbf8d2b88dafcf2d>@@@?$__crt_seh_guarded_call@X@@QEAAX$$QEAV<lambda_842d9ff0dc9ef11c61343bbaebe7f885>@@AEAV<lambda_c5860995281e5c4ce005b3de8f5874ee>@@$$QEAV<lambda_d90129c13df834fdcbf8d2b88dafcf2d>@@@Z@4HA 000000014004c8c0 f   libucrtd:fflush.obj
 0001:0004b8e0       __acrt_initialize_lowio$fin$0 000000014004c8e0 f   libucrtd:ioinit.obj
 0001:0004b8e0       _alloc_osfhnd$fin$0        000000014004c8e0 f   libucrtd:osfinfo.obj
 0001:0004b900       ?fin$0@?0???$?RV<lambda_19eaff14c5fe7be5b1b106a862eb1091>@@AEAV<lambda_af29824b49a67d335554598d6cad2be6>@@V<lambda_3ce37f5b621ab310299ea5f68cbdf3bb>@@@?$__crt_seh_guarded_call@H@@QEAAH$$QEAV<lambda_19eaff14c5fe7be5b1b106a862eb1091>@@AEAV<lambda_af29824b49a67d335554598d6cad2be6>@@$$QEAV<lambda_3ce37f5b621ab310299ea5f68cbdf3bb>@@@Z@4HA 000000014004c900 f   libucrtd:close.obj
 0001:0004b900       ?fin$0@?0???$?RV<lambda_7d29013d608e9f25a034de83c9b9e983>@@AEAV<lambda_3e4146214822e0ea86c47ff907aef2ff>@@V<lambda_b869e5a4e1069fcb5c3da79c0d999133>@@@?$__crt_seh_guarded_call@H@@QEAAH$$QEAV<lambda_7d29013d608e9f25a034de83c9b9e983>@@AEAV<lambda_3e4146214822e0ea86c47ff907aef2ff>@@$$QEAV<lambda_b869e5a4e1069fcb5c3da79c0d999133>@@@Z@4HA 000000014004c900 f   libucrtd:commit.obj
 0001:0004b920       _read$fin$0                000000014004c920 f   libucrtd:read.obj
 0001:0004b940       ?fin$0@?0???$common_lseek@_J@@YA_JH_JHAEAV__crt_cached_ptd_host@@@Z@4HA 000000014004c940 f   libucrtd:lseek.obj
 0001:0004b940       _write_internal$fin$0      000000014004c940 f   libucrtd:write.obj
 0001:0004b960       __acrt_lowio_ensure_fh_exists$fin$0 000000014004c960 f   libucrtd:osfinfo.obj
 0001:0004b980       ?fin$0@?0??update_thread_multibyte_data_internal@@YAPEAU__crt_multibyte_data@@QEAU__acrt_ptd@@QEAPEAU1@@Z@4HA 000000014004c980 f   libucrtd:mbctype.obj
 0001:0004b9a0       __acrt_update_thread_locale_data$fin$0 000000014004c9a0 f   libucrtd:locale_refcounting.obj
 0001:0004b9c0       raise$fin$0                000000014004c9c0 f   libucrtd:signal.obj
 0001:0004b9f0       _VCrtDbgReportA$fin$0      000000014004c9f0 f   libucrtd:dbgrptt.obj
 0001:0004ba0b       _VCrtDbgReportA$fin$1      000000014004ca0b f   libucrtd:dbgrptt.obj
 0001:0004ba30       _VCrtDbgReportW$fin$0      000000014004ca30 f   libucrtd:dbgrptt.obj
 0001:0004ba4b       _VCrtDbgReportW$fin$1      000000014004ca4b f   libucrtd:dbgrptt.obj
 0001:0004ba70       ?fin$0@?0???$common_sopen_dispatch@D@@YAHQEBDHHHQEAHH@Z@4HA 000000014004ca70 f   libucrtd:open.obj
 0001:0004bb10       ?dtor$0@?0??shortsort@@YAXPEAD0_KP6AHPEBX2@Z@Z@4HA 000000014004cb10 f   libucrtd:qsort.obj
 0001:0004bb30       common_control87$filt$0    000000014004cb30 f   libucrtd:ieee.obj
 0001:0004bb80       _ctrlfp$filt$0             000000014004cb80 f   libucrtd:fpctrl.obj
 0001:0004bbd0       _IsNonwritableInCurrentImage$filt$0 000000014004cbd0 f   LIBCMTD:pesect.obj
 0002:000002d0       ?pre_cpp_initializer@@3P6AXXZEA 000000014004d2d0     LIBCMTD:exe_main.obj
 0002:000002e8       ?pre_c_initializer@@3P6AHXZEA 000000014004d2e8     LIBCMTD:exe_main.obj
 0002:000002f0       ?post_pgo_initializer@@3P6AHXZEA 000000014004d2f0     LIBCMTD:exe_main.obj
 0002:00000360       $SG6093                    000000014004d360     wav.obj
 0002:00000368       $SG6094                    000000014004d368     wav.obj
 0002:00000384       $SG6109                    000000014004d384     wav.obj
 0002:00000388       $SG6112                    000000014004d388     wav.obj
 0002:00000398       $SG6113                    000000014004d398     wav.obj
 0002:000003bc       $SG6255                    000000014004d3bc     wav.obj
 0002:000003c8       $SG6266                    000000014004d3c8     wav.obj
 0002:000003d8       GS_ExceptionPointers       000000014004d3d8     LIBCMTD:gs_report.obj
 0002:00000440       ?tokenTable@@3QBUStringLiteral@@B 000000014004d440     libvcruntimed:undname.obj
 0002:00000550       ?nameTable@@3QBUStringLiteral@@B 000000014004d550     libvcruntimed:undname.obj
 0002:00000a80       ?rttiTable@@3QBUStringLiteral@@B 000000014004da80     libvcruntimed:undname.obj
 0002:00000ad0       ?IndirectionName@@3QBUStringLiteral@@B 000000014004dad0     libvcruntimed:undname.obj
 0002:00000b30       ?PrefixName@@3QBUStringLiteral@@B 000000014004db30     libvcruntimed:undname.obj
 0002:00001220       ?module_names@?A0x14174aea@@3QBQEB_WB 000000014004e220     libvcruntimed:winapi_downlevel.obj
 0002:00001490       ?candidate_modules@?1??try_get_FlsAlloc@@YAP6AKP6AXPEAX@Z@ZXZ@4QBW4module_id@?A0x14174aea@@B 000000014004e490     libvcruntimed:winapi_downlevel.obj
 0002:000014a8       ?candidate_modules@?1??try_get_FlsFree@@YAP6AHK@ZXZ@4QBW4module_id@?A0x14174aea@@B 000000014004e4a8     libvcruntimed:winapi_downlevel.obj
 0002:000014b8       ?candidate_modules@?1??try_get_FlsGetValue@@YAP6APEAXK@ZXZ@4QBW4module_id@?A0x14174aea@@B 000000014004e4b8     libvcruntimed:winapi_downlevel.obj
 0002:000014d0       ?candidate_modules@?1??try_get_FlsSetValue@@YAP6AHKPEAX@ZXZ@4QBW4module_id@?A0x14174aea@@B 000000014004e4d0     libvcruntimed:winapi_downlevel.obj
 0002:000014e8       ?candidate_modules@?1??try_get_InitializeCriticalSectionEx@@YAP6AHPEAU_RTL_CRITICAL_SECTION@@KK@ZXZ@4QBW4module_id@?A0x14174aea@@B 000000014004e4e8     libvcruntimed:winapi_downlevel.obj
 0002:00001510       ?ExceptionTemplate@?1??UnwindNestedFrames@__FrameHandler3@@SAXPEA_KPEAUEHExceptionRecord@@PEAU_CONTEXT@@0PEAXPEBU_s_FuncInfo@@HHPEBU_s_HandlerType@@PEAU_xDISPATCHER_CONTEXT@@E@Z@4U_EXCEPTION_RECORD@@B 000000014004e510     libvcruntimed:risctrnsctrl.obj
 0002:00001bf8       $cppxdata$?common_fseek_binary_mode_read_only_fast_track_nolock@@YA_NV__crt_stdio_stream@@_JH@Z 000000014004ebf8     libucrtd:fseek.obj
 0002:00001e70       $cppxdata$??$__acrt_lock_stream_and_call@V<lambda_26974eb511f701c600fccfa2a97a8e1b>@@@@YA_KQEAU_iobuf@@$$QEAV<lambda_26974eb511f701c600fccfa2a97a8e1b>@@@Z 000000014004ee70     libucrtd:fwrite.obj
 0002:00002200       $cppxdata$??$common_vfprintf@Vstandard_base@__crt_stdio_output@@D@@YAH_KQEAU_iobuf@@QEBDAEAV__crt_cached_ptd_host@@QEAD@Z 000000014004f200     libucrtd:output.obj
 0002:00002228       $cppxdata$??0?$output_adapter_data@DV?$stream_output_adapter@D@__crt_stdio_output@@@__crt_stdio_output@@IEAA@AEBV?$stream_output_adapter@D@1@_KQEBDAEAV__crt_cached_ptd_host@@QEAD@Z 000000014004f228     libucrtd:output.obj
 0002:00002228       $cppxdata$??0?$output_adapter_data@DV?$string_output_adapter@D@__crt_stdio_output@@@__crt_stdio_output@@IEAA@AEBV?$string_output_adapter@D@1@_KQEBDAEAV__crt_cached_ptd_host@@QEAD@Z 000000014004f228     libucrtd:output.obj
 0002:00002250       $cppxdata$?find_next_state@?$output_processor@DV?$stream_output_adapter@D@__crt_stdio_output@@V?$standard_base@DV?$stream_output_adapter@D@__crt_stdio_output@@@2@@__crt_stdio_output@@AEBA?AW4state@2@DW432@@Z 000000014004f250     libucrtd:output.obj
 0002:00002278       $cppxdata$??$__acrt_lock_stream_and_call@V<lambda_303760bc4008a2b3ec4768a30b06a80c>@@@@YAHQEAU_iobuf@@$$QEAV<lambda_303760bc4008a2b3ec4768a30b06a80c>@@@Z 000000014004f278     libucrtd:output.obj
 0002:000022a0       $cppxdata$??0?$output_adapter_data@_WV?$string_output_adapter@_W@__crt_stdio_output@@@__crt_stdio_output@@IEAA@AEBV?$string_output_adapter@_W@1@_KQEB_WAEAV__crt_cached_ptd_host@@QEAD@Z 000000014004f2a0     libucrtd:output.obj
 0002:000022c8       $cppxdata$?find_next_state@?$output_processor@DV?$string_output_adapter@D@__crt_stdio_output@@V?$format_validation_base@DV?$string_output_adapter@D@__crt_stdio_output@@@2@@__crt_stdio_output@@AEBA?AW4state@2@DW432@@Z 000000014004f2c8     libucrtd:output.obj
 0002:000022f0       $cppxdata$?find_next_state@?$output_processor@_WV?$string_output_adapter@_W@__crt_stdio_output@@V?$format_validation_base@_WV?$string_output_adapter@_W@__crt_stdio_output@@@2@@__crt_stdio_output@@AEBA?AW4state@2@_WW432@@Z 000000014004f2f0     libucrtd:output.obj
 0002:000055d0       $cppxdata$??$common_configure_argv@D@@YAHW4_crt_argv_mode@@@Z 00000001400525d0     libucrtd:argv_parsing.obj
 0002:00005770       $cppxdata$??$uninitialize@A6AXAEAPEAPEAD@_E@?$dual_state_global@PEAPEAD@__crt_state_management@@QEAAXA6AXAEAPEAPEAD@_E@Z 0000000140052770     libucrtd:environment_initialization.obj
 0002:00005798       $cppxdata$??$uninitialize@A6AXAEAPEAPEA_W@_E@?$dual_state_global@PEAPEA_W@__crt_state_management@@QEAAXA6AXAEAPEAPEA_W@_E@Z 0000000140052798     libucrtd:environment_initialization.obj
 0002:000057c0       $cppxdata$??$initialize_environment_by_cloning_nolock@D@@YAHXZ 00000001400527c0     libucrtd:environment_initialization.obj
 0002:00005978       $cppxdata$?try_cor_exit_process@@YAXI@Z 0000000140052978     libucrtd:exit.obj
 0002:000059a0       $cppxdata$?common_exit@@YAXHW4_crt_exit_cleanup_mode@@W4_crt_exit_return_mode@@@Z 00000001400529a0     libucrtd:exit.obj
 0002:000059c8       $cppxdata$??$__acrt_lock_and_call@V<lambda_6e4b09c48022b2350581041d5f6b0c4c>@@@@YAXW4__acrt_lock_id@@$$QEAV<lambda_6e4b09c48022b2350581041d5f6b0c4c>@@@Z 00000001400529c8     libucrtd:exit.obj
 0002:00005c90       $cppxdata$??$uninitialize@V<lambda_363eea9039da1e8169e2d060c7fe5cbc>@@@?$dual_state_global@PEAU__crt_locale_data@@@__crt_state_management@@QEAAX$$QEAV<lambda_363eea9039da1e8169e2d060c7fe5cbc>@@@Z 0000000140052c90     libucrtd:wsetlocale.obj
 0002:00005cb8       $cppxdata$??$__acrt_lock_and_call@V<lambda_3e16ef9562a7dcce91392c22ab16ea36>@@@@YAXW4__acrt_lock_id@@$$QEAV<lambda_3e16ef9562a7dcce91392c22ab16ea36>@@@Z 0000000140052cb8     libucrtd:wsetlocale.obj
 0002:00005e98       $cppxdata$??$__acrt_lock_and_call@V<lambda_208ce30acdd7200aa596f2796f4d5154>@@@@YAHW4__acrt_lock_id@@$$QEAV<lambda_208ce30acdd7200aa596f2796f4d5154>@@@Z 0000000140052e98     libucrtd:onexit.obj
 0002:00005ec0       $cppxdata$??R<lambda_d121dba8a4adeaf3a9819e48611155df>@@QEBAHXZ 0000000140052ec0     libucrtd:onexit.obj
 0002:00005ee8       $cppxdata$??$__acrt_lock_and_call@V<lambda_d121dba8a4adeaf3a9819e48611155df>@@@@YAHW4__acrt_lock_id@@$$QEAV<lambda_d121dba8a4adeaf3a9819e48611155df>@@@Z 0000000140052ee8     libucrtd:onexit.obj
 0002:00005f50       __acrt_initializers        0000000140052f50     libucrtd:initialization.obj
 0002:00006050       $cppxdata$??$uninitialize@V<lambda_af27fe6ede5d83bbdbd622796c194e9c>@@@?$dual_state_global@PEAU__crt_multibyte_data@@@__crt_state_management@@QEAAX$$QEAV<lambda_af27fe6ede5d83bbdbd622796c194e9c>@@@Z 0000000140053050     libucrtd:initialization.obj
 0002:00006078       ?block_use_names@@3QBQEBDB 0000000140053078     libucrtd:debug_heap.obj
 0002:000060c8       $cppxdata$?realloc_dbg_nolock@@YAPEAXQEAXQEA_KHQEBDH_N@Z 00000001400530c8     libucrtd:debug_heap.obj
 0002:000060f0       $cppxdata$?free_dbg_nolock@@YAXQEAXH@Z 00000001400530f0     libucrtd:debug_heap.obj
 0002:00006118       $cppxdata$?dump_all_object_since_nolock@@YAXQEBU_CrtMemState@@@Z 0000000140053118     libucrtd:debug_heap.obj
 0002:00007260       ?report_type_messages@@3QBQEB_WB 0000000140054260     libucrtd:dbgrpt.obj
 0002:000072c0       ?more_info_string@@3QEB_WEB 00000001400542c0     libucrtd:dbgrpt.obj
 0002:000075ce       ?empty_string@?1???$common_message_window@D@@YAHHQEAXQEBD111@Z@4QBDB 00000001400545ce     libucrtd:dbgrpt.obj
 0002:00007848       ?empty_string@?1???$common_message_window@_W@@YAHHQEAXQEB_W111@Z@4QB_WB 0000000140054848     libucrtd:dbgrpt.obj
 0002:00007850       ?errtable@@3QBUerrentry@?A0x31fdb9ec@@B 0000000140054850     libucrtd:errno.obj
 0002:000079c0       ?module_names@?A0x391cf84c@@3QBQEB_WB 00000001400549c0     libucrtd:winapi_thunks.obj
 0002:00007f44       ?candidate_modules@?1??try_get_AreFileApisANSI@@YAP6AHXZXZ@4QBW4module_id@?A0x391cf84c@@B 0000000140054f44     libucrtd:winapi_thunks.obj
 0002:00007f58       ?candidate_modules@?1??try_get_CompareStringEx@@YAP6AHPEB_WK0H0HPEAU_nlsversioninfo@@PEAX_J@ZXZ@4QBW4module_id@?A0x391cf84c@@B 0000000140054f58     libucrtd:winapi_thunks.obj
 0002:00007f70       ?candidate_modules@?1??try_get_GetActiveWindow@@YAP6APEAUHWND__@@XZXZ@4QBW4module_id@?A0x391cf84c@@B 0000000140054f70     libucrtd:winapi_thunks.obj
 0002:00007f88       ?candidate_modules@?1??try_get_GetLastActivePopup@@YAP6APEAUHWND__@@PEAU2@@ZXZ@4QBW4module_id@?A0x391cf84c@@B 0000000140054f88     libucrtd:winapi_thunks.obj
 0002:00007fa8       ?candidate_modules@?1??try_get_GetProcessWindowStation@@YAP6APEAUHWINSTA__@@XZXZ@4QBW4module_id@?A0x391cf84c@@B 0000000140054fa8     libucrtd:winapi_thunks.obj
 0002:00007fc8       ?candidate_modules@?1??try_get_GetUserObjectInformationW@@YAP6AHPEAXH0KPEAK@ZXZ@4QBW4module_id@?A0x391cf84c@@B 0000000140054fc8     libucrtd:winapi_thunks.obj
 0002:00007ff0       ?candidate_modules@?1??try_get_InitializeCriticalSectionEx@@YAP6AHPEAU_RTL_CRITICAL_SECTION@@KK@ZXZ@4QBW4module_id@?A0x391cf84c@@B 0000000140054ff0     libucrtd:winapi_thunks.obj
 0002:00007ff8       ?candidate_modules@?1??try_get_LCMapStringEx@@YAP6AHPEB_WK0HPEA_WHPEAU_nlsversioninfo@@PEAX_J@ZXZ@4QBW4module_id@?A0x391cf84c@@B 0000000140054ff8     libucrtd:winapi_thunks.obj
 0002:00008010       ?candidate_modules@?1??try_get_LocaleNameToLCID@@YAP6AKPEB_WK@ZXZ@4QBW4module_id@?A0x391cf84c@@B 0000000140055010     libucrtd:winapi_thunks.obj
 0002:00008030       ?candidate_modules@?1??try_get_MessageBoxA@@YAP6AHPEAUHWND__@@PEBD1I@ZXZ@4QBW4module_id@?A0x391cf84c@@B 0000000140055030     libucrtd:winapi_thunks.obj
 0002:00008048       ?candidate_modules@?1??try_get_MessageBoxW@@YAP6AHPEAUHWND__@@PEB_W1I@ZXZ@4QBW4module_id@?A0x391cf84c@@B 0000000140055048     libucrtd:winapi_thunks.obj
 0002:0000805c       ?candidate_modules@?1??try_get_AppPolicyGetProcessTerminationMethod@@YAP6AJPEAXPEAW4AppPolicyProcessTerminationMethod@@@ZXZ@4QBW4module_id@?A0x391cf84c@@B 000000014005505c     libucrtd:winapi_thunks.obj
 0002:00008088       ?candidate_modules@?1??try_get_AppPolicyGetShowDeveloperDiagnostic@@YAP6AJPEAXPEAW4AppPolicyShowDeveloperDiagnostic@@@ZXZ@4QBW4module_id@?A0x391cf84c@@B 0000000140055088     libucrtd:winapi_thunks.obj
 0002:000080b4       ?candidate_modules@?1??try_get_AppPolicyGetWindowingModel@@YAP6AJPEAXPEAW4AppPolicyWindowingModel@@@ZXZ@4QBW4module_id@?A0x391cf84c@@B 00000001400550b4     libucrtd:winapi_thunks.obj
 0002:000080d8       $cppxdata$?common_flush_all@@YAH_N@Z 00000001400550d8     libucrtd:fflush.obj
 0002:00008100       $cppxdata$??$__acrt_lock_stream_and_call@V<lambda_c5860995281e5c4ce005b3de8f5874ee>@@@@YAXQEAU_iobuf@@$$QEAV<lambda_c5860995281e5c4ce005b3de8f5874ee>@@@Z 0000000140055100     libucrtd:fflush.obj
 0002:00008128       $cppxdata$??$__acrt_lock_and_call@V<lambda_ab61a845afdef5b7c387490eaf3616ee>@@@@YAXW4__acrt_lock_id@@$$QEAV<lambda_ab61a845afdef5b7c387490eaf3616ee>@@@Z 0000000140055128     libucrtd:fflush.obj
 0002:00008230       $cppxdata$??$__acrt_lowio_lock_fh_and_call@V<lambda_af29824b49a67d335554598d6cad2be6>@@@@YAHH$$QEAV<lambda_af29824b49a67d335554598d6cad2be6>@@@Z 0000000140055230     libucrtd:close.obj
 0002:00008310       $cppxdata$?construct_ptd@@YAXQEAU__acrt_ptd@@QEAPEAU__crt_locale_data@@@Z 0000000140055310     libucrtd:per_thread_data.obj
 0002:00008338       $cppxdata$??$__acrt_lock_and_call@V<lambda_8d0ee55de4b1038c4002e0adecdf1839>@@@@YAXW4__acrt_lock_id@@$$QEAV<lambda_8d0ee55de4b1038c4002e0adecdf1839>@@@Z 0000000140055338     libucrtd:per_thread_data.obj
 0002:00008360       $cppxdata$??$__acrt_lock_and_call@V<lambda_92619d2358a28f41a33ba319515a20b9>@@@@YAXW4__acrt_lock_id@@$$QEAV<lambda_92619d2358a28f41a33ba319515a20b9>@@@Z 0000000140055360     libucrtd:per_thread_data.obj
 0002:00008388       $cppxdata$?destroy_ptd@@YAXQEAU__acrt_ptd@@@Z 0000000140055388     libucrtd:per_thread_data.obj
 0002:000083b0       $cppxdata$??$__acrt_lock_and_call@V<lambda_e157831efee4ea0afb0a2ace5dd5fd0d>@@@@YAXW4__acrt_lock_id@@$$QEAV<lambda_e157831efee4ea0afb0a2ace5dd5fd0d>@@@Z 00000001400553b0     libucrtd:per_thread_data.obj
 0002:000083d8       $cppxdata$??$__acrt_lock_and_call@V<lambda_8f455de75cd7d7f24b4096f044d8b9e6>@@@@YAXW4__acrt_lock_id@@$$QEAV<lambda_8f455de75cd7d7f24b4096f044d8b9e6>@@@Z 00000001400553d8     libucrtd:per_thread_data.obj
 0002:00008fb0       $cppxdata$?write_double_translated_ansi_nolock@@YA?AUwrite_result@?A0x17268360@@HQEBDIAEAV__crt_cached_ptd_host@@@Z 0000000140055fb0     libucrtd:write.obj
 0002:00009ef0       ?strings@?1??fp_format_nan_or_infinity@@YAHW4__acrt_fp_class@@_NPEAD_K1@Z@4QAY03QEBDA 0000000140056ef0     libucrtd:cvt.obj
 0002:0000aa88       $cppxdata$??1?$__crt_win32_buffer@DU__crt_win32_buffer_internal_dynamic_resizing@@@@QEAA@XZ 0000000140057a88     libucrtd:argv_wildcards.obj
 0002:0000aa88       $cppxdata$??1?$__crt_win32_buffer@_WU__crt_win32_buffer_internal_dynamic_resizing@@@@QEAA@XZ 0000000140057a88     libucrtd:argv_wildcards.obj
 0002:0000aab0       $cppxdata$??$tcspbrk@AEAPEADAEAY02$$CBD@?$__crt_char_traits@D@@SAPEADAEAPEADAEAY02$$CBD@Z 0000000140057ab0     libucrtd:argv_wildcards.obj
 0002:0000aad8       $cppxdata$??$expand_argument_wildcards@D@@YAHQEAD0AEAV?$argument_list@D@?A0x5f5c8891@@@Z 0000000140057ad8     libucrtd:argv_wildcards.obj
 0002:0000aef8       $cppxdata$??1?$__crt_win32_buffer@DU__crt_win32_buffer_no_resizing@@@@QEAA@XZ 0000000140057ef8     libucrtd:getmodulefilenamea.obj
 0002:0000af20       ?_mb_locale_names@@3QBQEB_WB 0000000140057f20     libucrtd:mbctype.obj
 0002:0000af80       $cppxdata$?setmbcp_internal@@YAHH_NQEAU__acrt_ptd@@QEAPEAU__crt_multibyte_data@@@Z 0000000140057f80     libucrtd:mbctype.obj
 0002:0000afa8       $cppxdata$??$__acrt_lock_and_call@V<lambda_bd5a608237428601b7e45fbdc72b1ae8>@@@@YAXW4__acrt_lock_id@@$$QEAV<lambda_bd5a608237428601b7e45fbdc72b1ae8>@@@Z 0000000140057fa8     libucrtd:mbctype.obj
 0002:0000b058       $cppxdata$??$tcschr@AEBQEADD@?$__crt_char_traits@D@@SAPEADAEBQEAD$$QEAD@Z 0000000140058058     libucrtd:setenv.obj
 0002:0000be28       $cppxdata$??$__acrt_lock_and_call@V<lambda_44731a7d0e6d81c3e6aa82d741081786>@@@@YAP6AXH@ZW4__acrt_lock_id@@$$QEAV<lambda_44731a7d0e6d81c3e6aa82d741081786>@@@Z 0000000140058e28     libucrtd:signal.obj
 0002:0000cd40       ?LcidToLocaleNameTable@?A0x881e4c05@@3QBULcidToLocaleName@1@B 0000000140059d40     libucrtd:lcidtoname_downlevel.obj
 0002:0000e790       ?LocaleNameToIndexTable@?A0x881e4c05@@3QBULocaleNameIndex@1@B 000000014005b790     libucrtd:lcidtoname_downlevel.obj
 0002:00010028       $cppxdata$??$__acrt_lowio_lock_fh_and_call@V<lambda_3e4146214822e0ea86c47ff907aef2ff>@@@@YAHH$$QEAV<lambda_3e4146214822e0ea86c47ff907aef2ff>@@@Z 000000014005d028     libucrtd:commit.obj
 0002:00011790       $cppxdata$?shortsort@@YAXPEAD0_KP6AHPEBX2@Z@Z 000000014005e790     libucrtd:qsort.obj
 0002:00011c00       $cppxdata$?_mbstowcs_l_helper@@YA_KPEA_WPEBD_KAEAV__crt_cached_ptd_host@@@Z 000000014005ec00     libucrtd:mbstowcs.obj
 0002:00011fe0       $cppxdata$??$console_output_reopen_and_retry@V<lambda_61c1b8a38cedca4df5fdc542e6ccae6d>@@@@YAHAEBV<lambda_61c1b8a38cedca4df5fdc542e6ccae6d>@@@Z 000000014005efe0     libucrtd:initcon.obj
 0002:00012020       __real_ninf                000000014005f020     libucrtd:log10.obj
 0002:00012030       __real_inf                 000000014005f030     libucrtd:log10.obj
 0002:00012040       __real_neg_qnan            000000014005f040     libucrtd:log10.obj
 0002:00012050       __real_qnanbit             000000014005f050     libucrtd:log10.obj
 0002:00012060       __int_1023                 000000014005f060     libucrtd:log10.obj
 0002:00012070       __mask_001                 000000014005f070     libucrtd:log10.obj
 0002:00012080       __mask_mant                000000014005f080     libucrtd:log10.obj
 0002:00012090       __mask_mant_top8           000000014005f090     libucrtd:log10.obj
 0002:000120a0       __mask_mant9               000000014005f0a0     libucrtd:log10.obj
 0002:000120b0       __real_log10_e             000000014005f0b0     libucrtd:log10.obj
 0002:000120c0       __real_log10_e_lead        000000014005f0c0     libucrtd:log10.obj
 0002:000120d0       __real_log10_e_tail        000000014005f0d0     libucrtd:log10.obj
 0002:000120e0       __real_log10_2_lead        000000014005f0e0     libucrtd:log10.obj
 0002:000120f0       __real_log10_2_tail        000000014005f0f0     libucrtd:log10.obj
 0002:00012100       __real_two                 000000014005f100     libucrtd:log10.obj
 0002:00012110       __real_one                 000000014005f110     libucrtd:log10.obj
 0002:00012120       __real_half                000000014005f120     libucrtd:log10.obj
 0002:00012130       __mask_100                 000000014005f130     libucrtd:log10.obj
 0002:00012140       __real_1_over_512          000000014005f140     libucrtd:log10.obj
 0002:00012150       __real_1_over_2            000000014005f150     libucrtd:log10.obj
 0002:00012160       __real_1_over_3            000000014005f160     libucrtd:log10.obj
 0002:00012170       __real_1_over_4            000000014005f170     libucrtd:log10.obj
 0002:00012180       __real_1_over_5            000000014005f180     libucrtd:log10.obj
 0002:00012190       __real_1_over_6            000000014005f190     libucrtd:log10.obj
 0002:000121a0       __real_neg_1023            000000014005f1a0     libucrtd:log10.obj
 0002:000121b0       __mask_2045                000000014005f1b0     libucrtd:log10.obj
 0002:000121c0       __real_threshold           000000014005f1c0     libucrtd:log10.obj
 0002:000121d0       __real_near_one_lt         000000014005f1d0     libucrtd:log10.obj
 0002:000121e0       __real_near_one_gt         000000014005f1e0     libucrtd:log10.obj
 0002:000121f0       __real_min_norm            000000014005f1f0     libucrtd:log10.obj
 0002:00012200       __real_notsign             000000014005f200     libucrtd:log10.obj
 0002:00012210       __real_ca1                 000000014005f210     libucrtd:log10.obj
 0002:00012220       __real_ca2                 000000014005f220     libucrtd:log10.obj
 0002:00012230       __real_ca3                 000000014005f230     libucrtd:log10.obj
 0002:00012240       __real_ca4                 000000014005f240     libucrtd:log10.obj
 0002:00012250       __mask_lower               000000014005f250     libucrtd:log10.obj
 0002:00012260       __flag_x_zero              000000014005f260     libucrtd:log10.obj
 0002:00012264       __flag_x_neg               000000014005f264     libucrtd:log10.obj
 0002:00012268       __flag_x_nan               000000014005f268     libucrtd:log10.obj
 0002:00013d70       __real@433fffffffffffff    0000000140060d70     libucrtd:fpsr.obj
 0002:00013d78       __real@c33fffffffffffff    0000000140060d78     libucrtd:fpsr.obj
 0002:00014548       $unwind$_vfprintf_l        0000000140061548     wav.obj
 0002:00014548       $unwind$printf             0000000140061548     wav.obj
 0002:00014548       $unwind$_calloc_dbg        0000000140061548     libucrtd:debug_heap.obj
 0002:00014548       $unwind$?common_lseek_do_seek_nolock@@YA_JQEAX_JHAEAV__crt_cached_ptd_host@@@Z 0000000140061548     libucrtd:lseek.obj
 0002:00014548       $unwind$_sopen_s           0000000140061548     libucrtd:open.obj
 0002:00014548       $unwind$_vsnprintf_s       0000000140061548     libucrtd:dbgrptt.obj
 0002:00014548       $unwind$fread              0000000140061548     libucrtd:fread.obj
 0002:00014548       $unwind$?common_fseek_nolock@@YAHV__crt_stdio_stream@@_JHAEAV__crt_cached_ptd_host@@@Z 0000000140061548     libucrtd:fseek.obj
 0002:00014548       $unwind$??$tsopen_s@PEAHAEBQEBDAEBHAEBHH@?$__crt_char_traits@D@@SAH$$QEAPEAHAEBQEBDAEBH2$$QEAH@Z 0000000140061548     libucrtd:openfile.obj
 0002:00014548       $unwind$_openfile          0000000140061548     libucrtd:openfile.obj
 0002:00014548       $unwind$??$?0AEBV?$stream_output_adapter@D@__crt_stdio_output@@AEB_KAEBQEBDAEAV__crt_cached_ptd_host@@AEBQEAD@?$standard_base@DV?$stream_output_adapter@D@__crt_stdio_output@@@__crt_stdio_output@@IEAA@AEBV?$stream_output_adapter@D@1@AEB_KAEBQEBDAEAV__crt_cached_ptd_host@@AEBQEAD@Z 0000000140061548     libucrtd:output.obj
 0002:00014548       $unwind$??$?0AEBV?$string_output_adapter@D@__crt_stdio_output@@AEB_KAEBQEBDAEAV__crt_cached_ptd_host@@AEBQEAD@?$format_validation_base@DV?$string_output_adapter@D@__crt_stdio_output@@@__crt_stdio_output@@IEAA@AEBV?$string_output_adapter@D@1@AEB_KAEBQEBDAEAV__crt_cached_ptd_host@@AEBQEAD@Z 0000000140061548     libucrtd:output.obj
 0002:00014548       $unwind$??$?0AEBV?$string_output_adapter@D@__crt_stdio_output@@AEB_KAEBQEBDAEAV__crt_cached_ptd_host@@AEBQEAD@?$standard_base@DV?$string_output_adapter@D@__crt_stdio_output@@@__crt_stdio_output@@IEAA@AEBV?$string_output_adapter@D@1@AEB_KAEBQEBDAEAV__crt_cached_ptd_host@@AEBQEAD@Z 0000000140061548     libucrtd:output.obj
 0002:00014548       $unwind$??$?0AEBV?$string_output_adapter@_W@__crt_stdio_output@@AEB_KAEBQEB_WAEAV__crt_cached_ptd_host@@AEBQEAD@?$format_validation_base@_WV?$string_output_adapter@_W@__crt_stdio_output@@@__crt_stdio_output@@IEAA@AEBV?$string_output_adapter@_W@1@AEB_KAEBQEB_WAEAV__crt_cached_ptd_host@@AEBQEAD@Z 0000000140061548     libucrtd:output.obj
 0002:00014548       $unwind$??$?0AEBV?$string_output_adapter@_W@__crt_stdio_output@@AEB_KAEBQEB_WAEAV__crt_cached_ptd_host@@AEBQEAD@?$standard_base@_WV?$string_output_adapter@_W@__crt_stdio_output@@@__crt_stdio_output@@IEAA@AEBV?$string_output_adapter@_W@1@AEB_KAEBQEB_WAEAV__crt_cached_ptd_host@@AEBQEAD@Z 0000000140061548     libucrtd:output.obj
 0002:00014548       $unwind$??0?$output_processor@DV?$stream_output_adapter@D@__crt_stdio_output@@V?$standard_base@DV?$stream_output_adapter@D@__crt_stdio_output@@@2@@__crt_stdio_output@@QEAA@AEBV?$stream_output_adapter@D@1@_KQEBDAEAV__crt_cached_ptd_host@@QEAD@Z 0000000140061548     libucrtd:output.obj
 0002:00014548       $unwind$??0?$output_processor@DV?$string_output_adapter@D@__crt_stdio_output@@V?$format_validation_base@DV?$string_output_adapter@D@__crt_stdio_output@@@2@@__crt_stdio_output@@QEAA@AEBV?$string_output_adapter@D@1@_KQEBDAEAV__crt_cached_ptd_host@@QEAD@Z 0000000140061548     libucrtd:output.obj
 0002:00014548       $unwind$??0?$output_processor@_WV?$string_output_adapter@_W@__crt_stdio_output@@V?$format_validation_base@_WV?$string_output_adapter@_W@__crt_stdio_output@@@2@@__crt_stdio_output@@QEAA@AEBV?$string_output_adapter@_W@1@_KQEB_WAEAV__crt_cached_ptd_host@@QEAD@Z 0000000140061548     libucrtd:output.obj
 0002:00014548       $unwind$?write_string@?$stream_output_adapter@D@__crt_stdio_output@@QEBAXQEBDHQEAHAEAV__crt_cached_ptd_host@@@Z 0000000140061548     libucrtd:output.obj
 0002:00014548       $unwind$??$__acrt_fenv_translate_bit@W4__acrt_fenv_abstract_control@@W4__acrt_fenv_machine_sse_control@@@@YA?AW4__acrt_fenv_abstract_control@@W4__acrt_fenv_machine_sse_control@@0W40@1@Z 0000000140061548     libucrtd:_fenvutils.obj
 0002:00014548       $unwind$??$__acrt_fenv_translate_bit@W4__acrt_fenv_machine_sse_control@@W4__acrt_fenv_abstract_control@@@@YA?AW4__acrt_fenv_machine_sse_control@@W4__acrt_fenv_abstract_control@@0W40@1@Z 0000000140061548     libucrtd:_fenvutils.obj
 0002:00014548       $unwind$__C_specific_handler_noexcept 0000000140061548     libvcruntimed:chandler_noexcept.obj
 0002:00014548       $unwind$?SetUnwindTryBlock@__FrameHandler3@@SAXPEA_KPEAU_xDISPATCHER_CONTEXT@@PEBU_s_FuncInfo@@H@Z 0000000140061548     libvcruntimed:ehstate.obj
 0002:00014548       $unwind$?_CallMemberFunction2@@YAXQEAX00H@Z 0000000140061548     libvcruntimed:frame.obj
 0002:00014550       $unwind$?read_file@@YA?AUFile_Result@@PEAD@Z 0000000140061550     wav.obj
 0002:0001455c       $unwind$?free_file@@YAXUFile_Result@@@Z 000000014006155c     wav.obj
 0002:00014564       $unwind$?write_file@@YA_NPEADPEAXI@Z 0000000140061564     wav.obj
 0002:0001456c       $unwind$?EndianSwap@@YAXPEAI@Z 000000014006156c     wav.obj
 0002:00014574       $unwind$?ConsumeDataSize@@YAPEAXPEAPEAEI@Z 0000000140061574     wav.obj
 0002:0001457c       $unwind$?ConsumeDataSizeLong@@YAPEAXPEAPEAE_K@Z 000000014006157c     wav.obj
 0002:00014584       $unwind$?PushDataSize@@YAIPEAPEAEPEAEI@Z 0000000140061584     wav.obj
 0002:0001458c       $unwind$?calc_line_length@@YAIPEADI@Z 000000014006158c     wav.obj
 0002:00014594       $unwind$?copy_line_to_buffer@@YAXPEAD0PEAI@Z 0000000140061594     wav.obj
 0002:0001459c       $unwind$?LoadWAV@@YA?AUSound@@UFile_Result@@@Z 000000014006159c     wav.obj
 0002:000145a8       $unwind$main               00000001400615a8     wav.obj
 0002:000145b4       $unwind$__dcrt_lowio_ensure_console_output_initialized 00000001400615b4     libucrtd:initcon.obj
 0002:000145b4       $unwind$__dcrt_terminate_console_output 00000001400615b4     libucrtd:initcon.obj
 0002:000145b4       $unwind$??$get_environment_from_os@$$V@?$__crt_char_traits@D@@SAPEADXZ 00000001400615b4     libucrtd:environment_initialization.obj
 0002:000145b4       $unwind$__dcrt_get_or_create_narrow_environment_nolock 00000001400615b4     libucrtd:environment_initialization.obj
 0002:000145b4       $unwind$__dcrt_uninitialize_environments_nolock 00000001400615b4     libucrtd:environment_initialization.obj
 0002:000145b4       $unwind$_get_initial_narrow_environment 00000001400615b4     libucrtd:environment_initialization.obj
 0002:000145b4       $unwind$_initialize_narrow_environment 00000001400615b4     libucrtd:environment_initialization.obj
 0002:000145b4       $unwind$??$get_or_create_environment_nolock@$$V@?$__crt_char_traits@D@@SAPEAPEADXZ 00000001400615b4     libucrtd:setenv.obj
 0002:000145b4       $unwind$__acrt_initialize_heap 00000001400615b4     libucrtd:heap_handle.obj
 0002:000145b4       $unwind$_query_new_mode    00000001400615b4     libucrtd:new_mode.obj
 0002:000145b4       $unwind$__acrt_initialize  00000001400615b4     libucrtd:initialization.obj
 0002:000145b4       $unwind$initialize_c       00000001400615b4     libucrtd:initialization.obj
 0002:000145b4       $unwind$initialize_global_variables 00000001400615b4     libucrtd:initialization.obj
 0002:000145b4       $unwind$__acrt_getptd_noexit 00000001400615b4     libucrtd:per_thread_data.obj
 0002:000145b4       $unwind$__acrt_initialize_ptd 00000001400615b4     libucrtd:per_thread_data.obj
 0002:000145b4       $unwind$__acrt_get_developer_information_policy 00000001400615b4     libucrtd:win_policies.obj
 0002:000145b4       $unwind$__acrt_get_process_end_policy 00000001400615b4     libucrtd:win_policies.obj
 0002:000145b4       $unwind$__acrt_get_windowing_model_policy 00000001400615b4     libucrtd:win_policies.obj
 0002:000145b4       $unwind$?try_get_AppPolicyGetProcessTerminationMethod@@YAP6AJPEAXPEAW4AppPolicyProcessTerminationMethod@@@ZXZ 00000001400615b4     libucrtd:winapi_thunks.obj
 0002:000145b4       $unwind$?try_get_AppPolicyGetShowDeveloperDiagnostic@@YAP6AJPEAXPEAW4AppPolicyShowDeveloperDiagnostic@@@ZXZ 00000001400615b4     libucrtd:winapi_thunks.obj
 0002:000145b4       $unwind$?try_get_AppPolicyGetWindowingModel@@YAP6AJPEAXPEAW4AppPolicyWindowingModel@@@ZXZ 00000001400615b4     libucrtd:winapi_thunks.obj
 0002:000145b4       $unwind$?try_get_AreFileApisANSI@@YAP6AHXZXZ 00000001400615b4     libucrtd:winapi_thunks.obj
 0002:000145b4       $unwind$?try_get_CompareStringEx@@YAP6AHPEB_WK0H0HPEAU_nlsversioninfo@@PEAX_J@ZXZ 00000001400615b4     libucrtd:winapi_thunks.obj
 0002:000145b4       $unwind$?try_get_GetActiveWindow@@YAP6APEAUHWND__@@XZXZ 00000001400615b4     libucrtd:winapi_thunks.obj
 0002:000145b4       $unwind$?try_get_GetLastActivePopup@@YAP6APEAUHWND__@@PEAU1@@ZXZ 00000001400615b4     libucrtd:winapi_thunks.obj
 0002:000145b4       $unwind$?try_get_GetProcessWindowStation@@YAP6APEAUHWINSTA__@@XZXZ 00000001400615b4     libucrtd:winapi_thunks.obj
 0002:000145b4       $unwind$?try_get_GetUserObjectInformationW@@YAP6AHPEAXH0KPEAK@ZXZ 00000001400615b4     libucrtd:winapi_thunks.obj
 0002:000145b4       $unwind$?try_get_InitializeCriticalSectionEx@@YAP6AHPEAU_RTL_CRITICAL_SECTION@@KK@ZXZ 00000001400615b4     libucrtd:winapi_thunks.obj
 0002:000145b4       $unwind$?try_get_LCMapStringEx@@YAP6AHPEB_WK0HPEA_WHPEAU_nlsversioninfo@@PEAX_J@ZXZ 00000001400615b4     libucrtd:winapi_thunks.obj
 0002:000145b4       $unwind$?try_get_LocaleNameToLCID@@YAP6AKPEB_WK@ZXZ 00000001400615b4     libucrtd:winapi_thunks.obj
 0002:000145b4       $unwind$?try_get_MessageBoxA@@YAP6AHPEAUHWND__@@PEBD1I@ZXZ 00000001400615b4     libucrtd:winapi_thunks.obj
 0002:000145b4       $unwind$?try_get_MessageBoxW@@YAP6AHPEAUHWND__@@PEB_W1I@ZXZ 00000001400615b4     libucrtd:winapi_thunks.obj
 0002:000145b4       $unwind$__fpecode          00000001400615b4     libucrtd:signal.obj
 0002:000145b4       $unwind$__acrt_initialize_command_line 00000001400615b4     libucrtd:argv_data.obj
 0002:000145b4       $unwind$_c_exit            00000001400615b4     libucrtd:exit.obj
 0002:000145b4       $unwind$_cexit             00000001400615b4     libucrtd:exit.obj
 0002:000145b4       $unwind$_flushall          00000001400615b4     libucrtd:fflush.obj
 0002:000145b4       $unwind$fegetround         00000001400615b4     libucrtd:fegetround.obj
 0002:000145b4       $unwind$?__scrt_common_main@@YAHXZ 00000001400615b4     LIBCMTD:exe_main.obj
 0002:000145b4       $unwind$?configure_argv@__scrt_narrow_argv_policy@@SAHXZ 00000001400615b4     LIBCMTD:exe_main.obj
 0002:000145b4       $unwind$?initialize_environment@__scrt_narrow_environment_policy@@SAHXZ 00000001400615b4     LIBCMTD:exe_main.obj
 0002:000145b4       $unwind$?post_pgo_initialization@@YAHXZ 00000001400615b4     LIBCMTD:exe_main.obj
 0002:000145b4       $unwind$?pre_c_initialization@@YAHXZ 00000001400615b4     LIBCMTD:exe_main.obj
 0002:000145b4       $unwind$?pre_cpp_initialization@@YAXXZ 00000001400615b4     LIBCMTD:exe_main.obj
 0002:000145b4       $unwind$?set_app_type@__scrt_main_policy@@SAXXZ 00000001400615b4     LIBCMTD:exe_main.obj
 0002:000145b4       $unwind$?set_fmode@__scrt_file_policy@@SAXXZ 00000001400615b4     LIBCMTD:exe_main.obj
 0002:000145b4       $unwind$__report_rangecheckfailure 00000001400615b4     LIBCMTD:gs_report.obj
 0002:000145b4       $unwind$?__scrt_initialize_type_info@@YAXXZ 00000001400615b4     LIBCMTD:tncleanup.obj
 0002:000145b4       $unwind$__scrt_initialize_mta 00000001400615b4     LIBCMTD:utility_desktop.obj
 0002:000145b4       $unwind$__scrt_set_unhandled_exception_filter 00000001400615b4     LIBCMTD:utility_desktop.obj
 0002:000145b4       $unwind$__current_exception 00000001400615b4     libvcruntimed:ehhelpers.obj
 0002:000145b4       $unwind$__current_exception_context 00000001400615b4     libvcruntimed:ehhelpers.obj
 0002:000145b4       $unwind$__vcrt_initialize  00000001400615b4     libvcruntimed:initialization.obj
 0002:000145b4       $unwind$__vcrt_initialize_ptd 00000001400615b4     libvcruntimed:per_thread_data.obj
 0002:000145b4       $unwind$__vcrt_uninitialize_ptd 00000001400615b4     libvcruntimed:per_thread_data.obj
 0002:000145b4       $unwind$_GetImageBase      00000001400615b4     libvcruntimed:risctrnsctrl.obj
 0002:000145b4       $unwind$_GetThrowImageBase 00000001400615b4     libvcruntimed:risctrnsctrl.obj
 0002:000145b4       $unwind$?try_get_FlsAlloc@@YAP6AKP6AXPEAX@Z@ZXZ 00000001400615b4     libvcruntimed:winapi_downlevel.obj
 0002:000145b4       $unwind$?try_get_FlsFree@@YAP6AHK@ZXZ 00000001400615b4     libvcruntimed:winapi_downlevel.obj
 0002:000145b4       $unwind$?try_get_FlsGetValue@@YAP6APEAXK@ZXZ 00000001400615b4     libvcruntimed:winapi_downlevel.obj
 0002:000145b4       $unwind$?try_get_FlsSetValue@@YAP6AHKPEAX@ZXZ 00000001400615b4     libvcruntimed:winapi_downlevel.obj
 0002:000145b4       $unwind$?try_get_InitializeCriticalSectionEx@@YAP6AHPEAU_RTL_CRITICAL_SECTION@@KK@ZXZ 00000001400615b4     libvcruntimed:winapi_downlevel.obj
 0002:000145bc       $unwind$??$common_get_initial_environment@D@@YAPEAPEADXZ 00000001400615bc     libucrtd:environment_initialization.obj
 0002:000145bc       $unwind$??$common_get_or_create_environment_nolock@D@@YAPEAPEADXZ 00000001400615bc     libucrtd:environment_initialization.obj
 0002:000145bc       $unwind$??$ensure_current_environment_is_not_initial_environment_nolock@D@@YAXXZ 00000001400615bc     libucrtd:setenv.obj
 0002:000145bc       $unwind$?initialize_multibyte@@YAHXZ 00000001400615bc     libucrtd:multibyte_initializer.obj
 0002:000145bc       $unwind$initialize_pointers 00000001400615bc     libucrtd:initialization.obj
 0002:000145bc       $unwind$__acrt_initialize_locks 00000001400615bc     libucrtd:locks.obj
 0002:000145bc       $unwind$?internal_getptd_noexit@@YAPEAU__acrt_ptd@@XZ 00000001400615bc     libucrtd:per_thread_data.obj
 0002:000145bc       $unwind$?try_get_ptd_head@@YAPEAU__acrt_ptd@@XZ 00000001400615bc     libucrtd:per_thread_data.obj
 0002:000145bc       $unwind$__acrt_getptd      00000001400615bc     libucrtd:per_thread_data.obj
 0002:000145bc       $unwind$__acrt_getptd_head 00000001400615bc     libucrtd:per_thread_data.obj
 0002:000145bc       $unwind$?should_write_error_to_console@@YA_NXZ 00000001400615bc     libucrtd:report_runtime_error.obj
 0002:000145bc       $unwind$__acrt_AreFileApisANSI 00000001400615bc     libucrtd:winapi_thunks.obj
 0002:000145bc       $unwind$__acrt_can_show_message_box 00000001400615bc     libucrtd:winapi_thunks.obj
 0002:000145bc       $unwind$__acrt_initialize_multibyte 00000001400615bc     libucrtd:mbctype.obj
 0002:000145bc       $unwind$__acrt_update_thread_multibyte_data 00000001400615bc     libucrtd:mbctype.obj
 0002:000145bc       $unwind$__doserrno         00000001400615bc     libucrtd:errno.obj
 0002:000145bc       $unwind$_errno             00000001400615bc     libucrtd:errno.obj
 0002:000145bc       $unwind$_invalid_parameter_noinfo 00000001400615bc     libucrtd:invalid_parameter.obj
 0002:000145bc       $unwind$abort              00000001400615bc     libucrtd:abort.obj
 0002:000145bc       $unwind$?is_managed_app@@YA_NXZ 00000001400615bc     libucrtd:exit.obj
 0002:000145bc       $unwind$?should_call_terminate_process@@YA_NXZ 00000001400615bc     libucrtd:exit.obj
 0002:000145bc       $unwind$__acrt_uninitialize_stdio 00000001400615bc     libucrtd:_file.obj
 0002:000145bc       $unwind$_clrfp             00000001400615bc     libucrtd:fpctrl.obj
 0002:000145bc       $unwind$_statfp            00000001400615bc     libucrtd:fpctrl.obj
 0002:000145bc       $unwind$_clearfp           00000001400615bc     libucrtd:ieee.obj
 0002:000145bc       $unwind$?get_machine_sse_control@@YA?AW4__acrt_fenv_machine_sse_control@@XZ 00000001400615bc     libucrtd:_fenvutils.obj
 0002:000145bc       $unwind$?get_machine_sse_status@@YA?AW4__acrt_fenv_machine_sse_status@@XZ 00000001400615bc     libucrtd:_fenvutils.obj
 0002:000145bc       $unwind$__acrt_fenv_get_control 00000001400615bc     libucrtd:_fenvutils.obj
 0002:000145bc       $unwind$__acrt_fenv_get_status 00000001400615bc     libucrtd:_fenvutils.obj
 0002:000145bc       $unwind$__acrt_has_user_matherr 00000001400615bc     libucrtd:matherr.obj
 0002:000145bc       $unwind$__scrt_initialize_default_local_stdio_options 00000001400615bc     LIBCMTD:default_local_stdio_options.obj
 0002:000145bc       $unwind$?set_commode@__scrt_file_policy@@SAXXZ 00000001400615bc     LIBCMTD:exe_main.obj
 0002:000145bc       $unwind$__security_init_cookie 00000001400615bc     LIBCMTD:gs_support.obj
 0002:000145bc       $unwind$_guard_icall_checks_enforced 00000001400615bc     LIBCMTD:guard_support.obj
 0002:000145bc       $unwind$__scrt_is_managed_app 00000001400615bc     LIBCMTD:utility_desktop.obj
 0002:000145bc       $unwind$__vcrt_initialize_locks 00000001400615bc     libvcruntimed:locks.obj
 0002:000145bc       $unwind$__vcrt_uninitialize_locks 00000001400615bc     libvcruntimed:locks.obj
 0002:000145bc       $unwind$__vcrt_getptd      00000001400615bc     libvcruntimed:per_thread_data.obj
 0002:000145c4       $unwind$?__dcrt_lowio_initialize_console_output@@YAXXZ 00000001400615c4     libucrtd:initcon.obj
 0002:000145c4       $unwind$?initialize_stdio_handles_nolock@@YAXXZ 00000001400615c4     libucrtd:ioinit.obj
 0002:000145c4       $unwind$__acrt_initialize_fmode 00000001400615c4     libucrtd:txtmode.obj
 0002:000145c4       $unwind$?invoke_main@@YAHXZ 00000001400615c4     LIBCMTD:exe_main.obj
 0002:000145c4       $unwind$__scrt_acquire_startup_lock 00000001400615c4     LIBCMTD:utility.obj
 0002:000145cc       $unwind$?__scrt_common_main_seh@@YAHXZ 00000001400615cc     LIBCMTD:exe_main.obj
 0002:000145ec       $unwind$?filt$0@?0??is_bad_read_pointer@@YA_NQEBX_K@Z@4HA 00000001400615ec     libucrtd:debug_heap.obj
 0002:000145ec       $unwind$_free_dbg$fin$0    00000001400615ec     libucrtd:debug_heap.obj
 0002:000145ec       $unwind$_query_new_handler$fin$0 00000001400615ec     libucrtd:new_handler.obj
 0002:000145ec       $unwind$?fin$0@?0???$?RV<lambda_0ae27a3a962d80f24befdcbee591983d>@@AEAV<lambda_8d0ee55de4b1038c4002e0adecdf1839>@@V<lambda_dc504788e8f1664fe9b84e20bfb512f2>@@@?$__crt_seh_guarded_call@X@@QEAAX$$QEAV<lambda_0ae27a3a962d80f24befdcbee591983d>@@AEAV<lambda_8d0ee55de4b1038c4002e0adecdf1839>@@$$QEAV<lambda_dc504788e8f1664fe9b84e20bfb512f2>@@@Z@4HA 00000001400615ec     libucrtd:per_thread_data.obj
 0002:000145ec       $unwind$?fin$0@?0???$?RV<lambda_2d41944a1d46af3157314b8a01080d33>@@AEAV<lambda_8f455de75cd7d7f24b4096f044d8b9e6>@@V<lambda_aa500f224e6afead328df44964fe2772>@@@?$__crt_seh_guarded_call@X@@QEAAX$$QEAV<lambda_2d41944a1d46af3157314b8a01080d33>@@AEAV<lambda_8f455de75cd7d7f24b4096f044d8b9e6>@@$$QEAV<lambda_aa500f224e6afead328df44964fe2772>@@@Z@4HA 00000001400615ec     libucrtd:per_thread_data.obj
 0002:000145ec       $unwind$?fin$0@?0???$?RV<lambda_74a0ef281e44d15e1136f792f539efb3>@@AEAV<lambda_e157831efee4ea0afb0a2ace5dd5fd0d>@@V<lambda_04ddeca75b7c13fd67716e8dfcef87ee>@@@?$__crt_seh_guarded_call@X@@QEAAX$$QEAV<lambda_74a0ef281e44d15e1136f792f539efb3>@@AEAV<lambda_e157831efee4ea0afb0a2ace5dd5fd0d>@@$$QEAV<lambda_04ddeca75b7c13fd67716e8dfcef87ee>@@@Z@4HA 00000001400615ec     libucrtd:per_thread_data.obj
 0002:000145ec       $unwind$?fin$0@?0???$?RV<lambda_aa87e3671a710a21b5dc78c0bdf72e11>@@AEAV<lambda_92619d2358a28f41a33ba319515a20b9>@@V<lambda_6992ecaafeb10aed2b74cb1fae11a551>@@@?$__crt_seh_guarded_call@X@@QEAAX$$QEAV<lambda_aa87e3671a710a21b5dc78c0bdf72e11>@@AEAV<lambda_92619d2358a28f41a33ba319515a20b9>@@$$QEAV<lambda_6992ecaafeb10aed2b74cb1fae11a551>@@@Z@4HA 00000001400615ec     libucrtd:per_thread_data.obj
 0002:000145ec       $unwind$__acrt_update_thread_locale_data$fin$0 00000001400615ec     libucrtd:locale_refcounting.obj
 0002:000145ec       $unwind$?fin$0@?0???$?RV<lambda_410d79af7f07d98d83a3f525b3859a53>@@AEAV<lambda_3e16ef9562a7dcce91392c22ab16ea36>@@V<lambda_38119f0e861e05405d8a144b9b982f0a>@@@?$__crt_seh_guarded_call@X@@QEAAX$$QEAV<lambda_410d79af7f07d98d83a3f525b3859a53>@@AEAV<lambda_3e16ef9562a7dcce91392c22ab16ea36>@@$$QEAV<lambda_38119f0e861e05405d8a144b9b982f0a>@@@Z@4HA 00000001400615ec     libucrtd:wsetlocale.obj
 0002:000145ec       $unwind$?fin$0@?0???$?RV<lambda_19eaff14c5fe7be5b1b106a862eb1091>@@AEAV<lambda_af29824b49a67d335554598d6cad2be6>@@V<lambda_3ce37f5b621ab310299ea5f68cbdf3bb>@@@?$__crt_seh_guarded_call@H@@QEAAH$$QEAV<lambda_19eaff14c5fe7be5b1b106a862eb1091>@@AEAV<lambda_af29824b49a67d335554598d6cad2be6>@@$$QEAV<lambda_3ce37f5b621ab310299ea5f68cbdf3bb>@@@Z@4HA 00000001400615ec     libucrtd:close.obj
 0002:000145ec       $unwind$?fin$0@?0???$?RV<lambda_7d29013d608e9f25a034de83c9b9e983>@@AEAV<lambda_3e4146214822e0ea86c47ff907aef2ff>@@V<lambda_b869e5a4e1069fcb5c3da79c0d999133>@@@?$__crt_seh_guarded_call@H@@QEAAH$$QEAV<lambda_7d29013d608e9f25a034de83c9b9e983>@@AEAV<lambda_3e4146214822e0ea86c47ff907aef2ff>@@$$QEAV<lambda_b869e5a4e1069fcb5c3da79c0d999133>@@@Z@4HA 00000001400615ec     libucrtd:commit.obj
 0002:000145ec       $unwind$__acrt_initialize_lowio$fin$0 00000001400615ec     libucrtd:ioinit.obj
 0002:000145ec       $unwind$_alloc_osfhnd$fin$0 00000001400615ec     libucrtd:osfinfo.obj
 0002:000145ec       $unwind$?fin$0@?0???$?RV<lambda_efa02eb69bf647d2f7ff0dd6f1103f72>@@AEAV<lambda_bd5a608237428601b7e45fbdc72b1ae8>@@V<lambda_728235dc0fc2b1f82d1fa5b3e7102d8f>@@@?$__crt_seh_guarded_call@X@@QEAAX$$QEAV<lambda_efa02eb69bf647d2f7ff0dd6f1103f72>@@AEAV<lambda_bd5a608237428601b7e45fbdc72b1ae8>@@$$QEAV<lambda_728235dc0fc2b1f82d1fa5b3e7102d8f>@@@Z@4HA 00000001400615ec     libucrtd:mbctype.obj
 0002:000145ec       $unwind$?fin$0@?0??update_thread_multibyte_data_internal@@YAPEAU__crt_multibyte_data@@QEAU__acrt_ptd@@QEAPEAU1@@Z@4HA 00000001400615ec     libucrtd:mbctype.obj
 0002:000145ec       $unwind$?fin$0@?0??_perror_internal@@YAXQEBDAEAV__crt_cached_ptd_host@@@Z@4HA 00000001400615ec     libucrtd:perror.obj
 0002:000145ec       $unwind$?fin$0@?0???$?RV<lambda_450d765d439847d4c735a33c368b5fc0>@@AEAV<lambda_44731a7d0e6d81c3e6aa82d741081786>@@V<lambda_601a2a7da3b7a96e9554ac7215c4b07c>@@@?$__crt_seh_guarded_call@P6AXH@Z@@QEAAP6AXH@Z$$QEAV<lambda_450d765d439847d4c735a33c368b5fc0>@@AEAV<lambda_44731a7d0e6d81c3e6aa82d741081786>@@$$QEAV<lambda_601a2a7da3b7a96e9554ac7215c4b07c>@@@Z@4HA 00000001400615ec     libucrtd:signal.obj
 0002:000145ec       $unwind$terminate$filt$0   00000001400615ec     libucrtd:terminate.obj
 0002:000145ec       $unwind$?filt$0@?0???R<lambda_6e4b09c48022b2350581041d5f6b0c4c>@@QEBA@XZ@4HA 00000001400615ec     libucrtd:exit.obj
 0002:000145ec       $unwind$?fin$0@?0???$?RV<lambda_d80eeec6fff315bfe5c115232f3240e3>@@AEAV<lambda_6e4b09c48022b2350581041d5f6b0c4c>@@V<lambda_2358e3775559c9db80273638284d5e45>@@@?$__crt_seh_guarded_call@X@@QEAAX$$QEAV<lambda_d80eeec6fff315bfe5c115232f3240e3>@@AEAV<lambda_6e4b09c48022b2350581041d5f6b0c4c>@@$$QEAV<lambda_2358e3775559c9db80273638284d5e45>@@@Z@4HA 00000001400615ec     libucrtd:exit.obj
 0002:000145ec       $unwind$?dtor$0@?0???R<lambda_d121dba8a4adeaf3a9819e48611155df>@@QEBAHXZ@4HA 00000001400615ec     libucrtd:onexit.obj
 0002:000145ec       $unwind$?fin$0@?0???$?RV<lambda_6a47f4c8fd0152770a780fc1d70204eb>@@AEAV<lambda_d121dba8a4adeaf3a9819e48611155df>@@V<lambda_6aaa2265f5b6a89667e7d7630012e97a>@@@?$__crt_seh_guarded_call@H@@QEAAH$$QEAV<lambda_6a47f4c8fd0152770a780fc1d70204eb>@@AEAV<lambda_d121dba8a4adeaf3a9819e48611155df>@@$$QEAV<lambda_6aaa2265f5b6a89667e7d7630012e97a>@@@Z@4HA 00000001400615ec     libucrtd:onexit.obj
 0002:000145ec       $unwind$?fin$0@?0???$?RV<lambda_80060f20ac3990516b753a27f211934c>@@AEAV<lambda_208ce30acdd7200aa596f2796f4d5154>@@V<lambda_fd91b99c0687e8936f1d70d7d9b78e69>@@@?$__crt_seh_guarded_call@H@@QEAAH$$QEAV<lambda_80060f20ac3990516b753a27f211934c>@@AEAV<lambda_208ce30acdd7200aa596f2796f4d5154>@@$$QEAV<lambda_fd91b99c0687e8936f1d70d7d9b78e69>@@@Z@4HA 00000001400615ec     libucrtd:onexit.obj
 0002:000145ec       $unwind$_fcloseall$fin$0   00000001400615ec     libucrtd:closeall.obj
 0002:000145ec       $unwind$?fin$0@?0???$?RV<lambda_842d9ff0dc9ef11c61343bbaebe7f885>@@AEAV<lambda_c5860995281e5c4ce005b3de8f5874ee>@@V<lambda_d90129c13df834fdcbf8d2b88dafcf2d>@@@?$__crt_seh_guarded_call@X@@QEAAX$$QEAV<lambda_842d9ff0dc9ef11c61343bbaebe7f885>@@AEAV<lambda_c5860995281e5c4ce005b3de8f5874ee>@@$$QEAV<lambda_d90129c13df834fdcbf8d2b88dafcf2d>@@@Z@4HA 00000001400615ec     libucrtd:fflush.obj
 0002:000145ec       $unwind$?fin$0@?0???$?RV<lambda_886d6c58226a84441f68b9f2b8217b83>@@AEAV<lambda_ab61a845afdef5b7c387490eaf3616ee>@@V<lambda_f7f22ab5edc0698d5f6905b0d3f44752>@@@?$__crt_seh_guarded_call@X@@QEAAX$$QEAV<lambda_886d6c58226a84441f68b9f2b8217b83>@@AEAV<lambda_ab61a845afdef5b7c387490eaf3616ee>@@$$QEAV<lambda_f7f22ab5edc0698d5f6905b0d3f44752>@@@Z@4HA 00000001400615ec     libucrtd:fflush.obj
 0002:000145ec       $unwind$?fin$0@?0???$?RV<lambda_a2589f19c515cac03caf6db9c38355e9>@@AEAV<lambda_26974eb511f701c600fccfa2a97a8e1b>@@V<lambda_ad9ce2f38261e34e8a422b9cc35dfe8d>@@@?$__crt_seh_guarded_call@_K@@QEAA_K$$QEAV<lambda_a2589f19c515cac03caf6db9c38355e9>@@AEAV<lambda_26974eb511f701c600fccfa2a97a8e1b>@@$$QEAV<lambda_ad9ce2f38261e34e8a422b9cc35dfe8d>@@@Z@4HA 00000001400615ec     libucrtd:fwrite.obj
 0002:000145ec       $unwind$?fin$0@?0???$?RV<lambda_d854c62834386a3b23916ad6dae2782d>@@AEAV<lambda_303760bc4008a2b3ec4768a30b06a80c>@@V<lambda_4780a7ea4f8cbd2590aec34bd14e2bbf>@@@?$__crt_seh_guarded_call@H@@QEAAH$$QEAV<lambda_d854c62834386a3b23916ad6dae2782d>@@AEAV<lambda_303760bc4008a2b3ec4768a30b06a80c>@@$$QEAV<lambda_4780a7ea4f8cbd2590aec34bd14e2bbf>@@@Z@4HA 00000001400615ec     libucrtd:output.obj
 0002:000145ec       $unwind$?fin$0@?0??__acrt_stdio_allocate_stream@@YA?AV__crt_stdio_stream@@XZ@4HA 00000001400615ec     libucrtd:stream.obj
 0002:000145ec       $unwind$?dtor$0@?0??shortsort@@YAXPEAD0_KP6AHPEBX2@Z@Z@4HA 00000001400615ec     libucrtd:qsort.obj
 0002:000145ec       $unwind$_ctrlfp$filt$0     00000001400615ec     libucrtd:fpctrl.obj
 0002:000145ec       $unwind$?filt$0@?0??__scrt_common_main_seh@@YAHXZ@4HA 00000001400615ec     LIBCMTD:exe_main.obj
 0002:000145ec       $unwind$_IsNonwritableInCurrentImage$filt$0 00000001400615ec     LIBCMTD:pesect.obj
 0002:000145ec       $unwind$__scrt_is_nonwritable_in_current_image$filt$0 00000001400615ec     LIBCMTD:utility.obj
 0002:000145ec       $unwind$__DestructExceptionObject$filt$0 00000001400615ec     libvcruntimed:ehhelpers.obj
 0002:000145ec       $unwind$?filt$0@?0???$BuildCatchObjectHelperInternal@V__FrameHandler3@@@@YAHPEAUEHExceptionRecord@@PEAXPEBU_s_HandlerType@@PEBU_s_CatchableType@@@Z@4HA 00000001400615ec     libvcruntimed:frame.obj
 0002:000145ec       $unwind$?filt$0@?0???$BuildCatchObjectInternal@V__FrameHandler3@@@@YAXPEAUEHExceptionRecord@@PEAXPEBU_s_HandlerType@@PEBU_s_CatchableType@@@Z@4HA 00000001400615ec     libvcruntimed:frame.obj
 0002:000145ec       $unwind$?filt$0@?0??CxxCallCatchBlock@__FrameHandler3@@SAPEAXPEAU_EXCEPTION_RECORD@@@Z@4HA 00000001400615ec     libvcruntimed:frame.obj
 0002:000145ec       $unwind$?filt$0@?0??FrameUnwindToState@__FrameHandler3@@SAXPEA_KPEAU_xDISPATCHER_CONTEXT@@PEBU_s_FuncInfo@@H@Z@4HA 00000001400615ec     libvcruntimed:frame.obj
 0002:000145ec       $unwind$?fin$1@?0??CxxCallCatchBlock@__FrameHandler3@@SAPEAXPEAU_EXCEPTION_RECORD@@@Z@4HA 00000001400615ec     libvcruntimed:frame.obj
 0002:000145ec       $unwind$?fin$1@?0??FrameUnwindToState@__FrameHandler3@@SAXPEA_KPEAU_xDISPATCHER_CONTEXT@@PEBU_s_FuncInfo@@H@Z@4HA 00000001400615ec     libvcruntimed:frame.obj
 0002:000145f4       $unwind$??$tcslen@AEAPEAD@?$__crt_char_traits@D@@SA_KAEAPEAD@Z 00000001400615f4     libucrtd:environment_initialization.obj
 0002:000145f4       $unwind$??$uninitialize_environment_internal@D@@YAXAEAPEAPEAD@Z 00000001400615f4     libucrtd:environment_initialization.obj
 0002:000145f4       $unwind$??$uninitialize_environment_internal@_W@@YAXAEAPEAPEA_W@Z 00000001400615f4     libucrtd:environment_initialization.obj
 0002:000145f4       $unwind$??B?$__crt_unique_heap_ptr@PEADU__crt_internal_free_policy@@@@QEBA_NXZ 00000001400615f4     libucrtd:environment_initialization.obj
 0002:000145f4       $unwind$?get_environment_nolock@@YAAEAPEAPEA_W_W@Z 00000001400615f4     libucrtd:environment_initialization.obj
 0002:000145f4       $unwind$?value@?$dual_state_global@PEAPEAD@__crt_state_management@@QEAAAEAPEAPEADXZ 00000001400615f4     libucrtd:environment_initialization.obj
 0002:000145f4       $unwind$?value@?$dual_state_global@PEAPEA_W@__crt_state_management@@QEAAAEAPEAPEA_WXZ 00000001400615f4     libucrtd:environment_initialization.obj
 0002:000145f4       $unwind$??1?$__crt_unique_handle_t@Uenvironment_strings_traits@?A0x1bf47908@@@@QEAA@XZ 00000001400615f4     libucrtd:get_environment_from_os.obj
 0002:000145f4       $unwind$?close@?$__crt_unique_handle_t@Uenvironment_strings_traits@?A0x1bf47908@@@@QEAAXXZ 00000001400615f4     libucrtd:get_environment_from_os.obj
 0002:000145f4       $unwind$?close@environment_strings_traits@?A0x1bf47908@@SA_NPEA_W@Z 00000001400615f4     libucrtd:get_environment_from_os.obj
 0002:000145f4       $unwind$??$tcslen@AEBQEAD@?$__crt_char_traits@D@@SA_KAEBQEAD@Z 00000001400615f4     libucrtd:setenv.obj
 0002:000145f4       $unwind$??0big_integer@__crt_strtox@@QEAA@XZ 00000001400615f4     libucrtd:cfout.obj
 0002:000145f4       $unwind$??0scoped_fp_state_reset@?A0x71ca7cfb@@QEAA@XZ 00000001400615f4     libucrtd:cfout.obj
 0002:000145f4       $unwind$??1scoped_fp_state_reset@?A0x71ca7cfb@@QEAA@XZ 00000001400615f4     libucrtd:cfout.obj
 0002:000145f4       $unwind$??1_LocaleUpdate@@QEAA@XZ 00000001400615f4     libucrtd:debug_heap.obj
 0002:000145f4       $unwind$malloc             00000001400615f4     libucrtd:malloc.obj
 0002:000145f4       $unwind$??$__crt_fast_decode_pointer@P6AH_K@Z@@YAP6AH_K@ZQ6AH0@Z@Z 00000001400615f4     libucrtd:new_handler.obj
 0002:000145f4       $unwind$?value@?$dual_state_global@P6AH_K@Z@__crt_state_management@@QEAAAEAP6AH_K@ZXZ 00000001400615f4     libucrtd:new_handler.obj
 0002:000145f4       $unwind$__acrt_initialize_new_handler 00000001400615f4     libucrtd:new_handler.obj
 0002:000145f4       $unwind$?value@?$dual_state_global@J@__crt_state_management@@QEAAAEAJXZ 00000001400615f4     libucrtd:new_mode.obj
 0002:000145f4       $unwind$?set_to_nullptr@?$__crt_win32_buffer@DU__crt_win32_buffer_no_resizing@@@@QEAAXXZ 00000001400615f4     libucrtd:getmodulefilenamea.obj
 0002:000145f4       $unwind$??$?BX@__crt_fast_encoded_nullptr_t@@QEBAPEAXXZ 00000001400615f4     libucrtd:initialization.obj
 0002:000145f4       $unwind$??$__crt_fast_encode_pointer@PEAX@@YAPEAXQEAX@Z 00000001400615f4     libucrtd:initialization.obj
 0002:000145f4       $unwind$??1?$__crt_unique_heap_ptr@U__acrt_ptd@@U__crt_internal_free_policy@@@@QEAA@XZ 00000001400615f4     libucrtd:per_thread_data.obj
 0002:000145f4       $unwind$??B?$__crt_unique_heap_ptr@U__acrt_ptd@@U__crt_internal_free_policy@@@@QEBA_NXZ 00000001400615f4     libucrtd:per_thread_data.obj
 0002:000145f4       $unwind$??R<lambda_04ddeca75b7c13fd67716e8dfcef87ee>@@QEBAXXZ 00000001400615f4     libucrtd:per_thread_data.obj
 0002:000145f4       $unwind$??R<lambda_0ae27a3a962d80f24befdcbee591983d>@@QEBAXXZ 00000001400615f4     libucrtd:per_thread_data.obj
 0002:000145f4       $unwind$??R<lambda_2d41944a1d46af3157314b8a01080d33>@@QEBAXXZ 00000001400615f4     libucrtd:per_thread_data.obj
 0002:000145f4       $unwind$??R<lambda_6992ecaafeb10aed2b74cb1fae11a551>@@QEBAXXZ 00000001400615f4     libucrtd:per_thread_data.obj
 0002:000145f4       $unwind$??R<lambda_74a0ef281e44d15e1136f792f539efb3>@@QEBAXXZ 00000001400615f4     libucrtd:per_thread_data.obj
 0002:000145f4       $unwind$??R<lambda_8f455de75cd7d7f24b4096f044d8b9e6>@@QEBAXXZ 00000001400615f4     libucrtd:per_thread_data.obj
 0002:000145f4       $unwind$??R<lambda_92619d2358a28f41a33ba319515a20b9>@@QEBAXXZ 00000001400615f4     libucrtd:per_thread_data.obj
 0002:000145f4       $unwind$??R<lambda_aa500f224e6afead328df44964fe2772>@@QEBAXXZ 00000001400615f4     libucrtd:per_thread_data.obj
 0002:000145f4       $unwind$??R<lambda_aa87e3671a710a21b5dc78c0bdf72e11>@@QEBAXXZ 00000001400615f4     libucrtd:per_thread_data.obj
 0002:000145f4       $unwind$??R<lambda_dc504788e8f1664fe9b84e20bfb512f2>@@QEBAXXZ 00000001400615f4     libucrtd:per_thread_data.obj
 0002:000145f4       $unwind$?destroy_fls@@YAXPEAX@Z 00000001400615f4     libucrtd:per_thread_data.obj
